---
triple:          'arm64-apple-darwin'
binary-path:     '/Users/runner/work/whisper.cpp/whisper.cpp/build-visionos-sim/framework/whisper.framework/whisper'
relocations:
  - { offset: 0x52, size: 0x8, addend: 0x0, symName: __MergedGlobals, symObjAddr: 0x5746D8, symBinAddr: 0x22E570, symSize: 0x0 }
  - { offset: 0x17F51, size: 0x8, addend: 0x0, symName: __ZNSt3__1L19piecewise_constructE, symObjAddr: 0x42890, symBinAddr: 0x16BD68, symSize: 0x0 }
  - { offset: 0x5EB48, size: 0x8, addend: 0x0, symName: '__ZNSt3__111__introsortINS_17_ClassicAlgPolicyERZL11whisper_vadP15whisper_contextP13whisper_state19whisper_full_paramsPKfiRNS_6vectorIfNS_9allocatorIfEEEEE3$_0P16vad_time_mappingLb0EEEvT1_SI_T0_NS_15iterator_traitsISI_E15difference_typeEb', symObjAddr: 0x320D0, symBinAddr: 0x32C18, symSize: 0xAFC }
  - { offset: 0x60285, size: 0x8, addend: 0x0, symName: '__ZNSt3__127__insertion_sort_incompleteB8ne190102INS_17_ClassicAlgPolicyERZL11whisper_vadP15whisper_contextP13whisper_state19whisper_full_paramsPKfiRNS_6vectorIfNS_9allocatorIfEEEEE3$_0P16vad_time_mappingEEbT1_SI_T0_', symObjAddr: 0x32BCC, symBinAddr: 0x33714, symSize: 0x348 }
  - { offset: 0x65DA5, size: 0x8, addend: 0x0, symName: '__ZNSt3__111__introsortINS_17_ClassicAlgPolicyERZ35whisper_lang_auto_detect_with_stateE3$_0P12whisper_pairIdiELb0EEEvT1_S7_T0_NS_15iterator_traitsIS7_E15difference_typeEb', symObjAddr: 0x3565C, symBinAddr: 0x361A4, symSize: 0xD94 }
  - { offset: 0x67502, size: 0x8, addend: 0x0, symName: '__ZNSt3__127__insertion_sort_incompleteB8ne190102INS_17_ClassicAlgPolicyERZ35whisper_lang_auto_detect_with_stateE3$_0P12whisper_pairIdiEEEbT1_S7_T0_', symObjAddr: 0x363F0, symBinAddr: 0x36F38, symSize: 0x490 }
  - { offset: 0x6C57A, size: 0x8, addend: 0x0, symName: '__ZNSt3__111__introsortINS_17_ClassicAlgPolicyERZ23whisper_full_with_stateE3$_1PZ23whisper_full_with_stateE14beam_candidateLb0EEEvT1_S6_T0_NS_15iterator_traitsIS6_E15difference_typeEb', symObjAddr: 0x37A58, symBinAddr: 0x385A0, symSize: 0x1B68 }
  - { offset: 0x73FBC, size: 0x8, addend: 0x0, symName: '__ZNSt3__127__insertion_sort_incompleteB8ne190102INS_17_ClassicAlgPolicyERZ23whisper_full_with_stateE3$_1PZ23whisper_full_with_stateE14beam_candidateEEbT1_S6_T0_', symObjAddr: 0x39804, symBinAddr: 0x3A34C, symSize: 0x40C }
  - { offset: 0x7B982, size: 0x8, addend: 0x0, symName: __ZNSt3__120__throw_out_of_rangeB8ne190102EPKc, symObjAddr: 0x1BB14, symBinAddr: 0x1C65C, symSize: 0x50 }
  - { offset: 0x7BB4E, size: 0x8, addend: 0x0, symName: __ZNSt3__125__throw_bad_function_callB8ne190102Ev, symObjAddr: 0x1BBB0, symBinAddr: 0x1C6F8, symSize: 0x34 }
  - { offset: 0x7BE73, size: 0x8, addend: 0x0, symName: __ZNSt3__127__tree_balance_after_insertB8ne190102IPNS_16__tree_node_baseIPvEEEEvT_S5_, symObjAddr: 0x1AE64, symBinAddr: 0x1B9AC, symSize: 0x1B4 }
  - { offset: 0x7C949, size: 0x8, addend: 0x0, symName: __ZNSt3__113__tree_removeB8ne190102IPNS_16__tree_node_baseIPvEEEEvT_S5_, symObjAddr: 0x1EC8C, symBinAddr: 0x1F7D4, symSize: 0x3C0 }
  - { offset: 0x81FA9, size: 0x8, addend: 0x0, symName: __ZNSt3__18__rotateB8ne190102INS_17_ClassicAlgPolicyENS_11__wrap_iterIPiEES4_EENS_4pairIT0_S6_EES6_S6_T1_, symObjAddr: 0x37380, symBinAddr: 0x37EC8, symSize: 0x1B8 }
  - { offset: 0x82A73, size: 0x8, addend: 0x0, symName: __ZNSt3__111regex_matchB8ne190102INS_11__wrap_iterIPKcEEcNS_12regex_traitsIcEEEEbT_S7_RKNS_11basic_regexIT0_T1_EENS_15regex_constants15match_flag_typeE, symObjAddr: 0x2F6B0, symBinAddr: 0x301F8, symSize: 0x108 }
  - { offset: 0x854AE, size: 0x8, addend: 0x0, symName: __ZNSt3__120__throw_length_errorB8ne190102EPKc, symObjAddr: 0x1B604, symBinAddr: 0x1C14C, symSize: 0x50 }
  - { offset: 0x86249, size: 0x8, addend: 0x0, symName: __ZNSt3__114__thread_proxyB8ne190102INS_5tupleIJNS_10unique_ptrINS_15__thread_structENS_14default_deleteIS3_EEEEPFviPKfRKNS_6vectorIfNS_9allocatorIfEEEEiiiiRK15whisper_filtersR11whisper_melEiS8_NS_17reference_wrapperISD_EExiiiNSM_ISG_EENSM_ISI_EEEEEEEPvSR_, symObjAddr: 0x1E178, symBinAddr: 0x1ECC0, symSize: 0x94 }
  - { offset: 0x866F6, size: 0x8, addend: 0x0, symName: __ZNSt3__119__throw_regex_errorB8ne190102ILNS_15regex_constants10error_typeE17EEEvv, symObjAddr: 0x1FFE0, symBinAddr: 0x20B28, symSize: 0x4C }
  - { offset: 0x874C2, size: 0x8, addend: 0x0, symName: __ZNSt3__119__throw_regex_errorB8ne190102ILNS_15regex_constants10error_typeE14EEEvv, symObjAddr: 0x208F8, symBinAddr: 0x21440, symSize: 0x4C }
  - { offset: 0x8779C, size: 0x8, addend: 0x0, symName: __ZNSt3__119__throw_regex_errorB8ne190102ILNS_15regex_constants10error_typeE15EEEvv, symObjAddr: 0x27C14, symBinAddr: 0x2875C, symSize: 0x4C }
  - { offset: 0x87AE1, size: 0x8, addend: 0x0, symName: __ZNSt3__119__throw_regex_errorB8ne190102ILNS_15regex_constants10error_typeE6EEEvv, symObjAddr: 0x215F8, symBinAddr: 0x22140, symSize: 0x4C }
  - { offset: 0x87C87, size: 0x8, addend: 0x0, symName: __ZNSt3__119__throw_regex_errorB8ne190102ILNS_15regex_constants10error_typeE11EEEvv, symObjAddr: 0x22E8C, symBinAddr: 0x239D4, symSize: 0x4C }
  - { offset: 0x87CCB, size: 0x8, addend: 0x0, symName: __ZNSt3__119__throw_regex_errorB8ne190102ILNS_15regex_constants10error_typeE8EEEvv, symObjAddr: 0x275D4, symBinAddr: 0x2811C, symSize: 0x4C }
  - { offset: 0x87CF1, size: 0x8, addend: 0x0, symName: __ZNSt3__119__throw_regex_errorB8ne190102ILNS_15regex_constants10error_typeE7EEEvv, symObjAddr: 0x27620, symBinAddr: 0x28168, symSize: 0x4C }
  - { offset: 0x87E1F, size: 0x8, addend: 0x0, symName: __ZNSt3__119__throw_regex_errorB8ne190102ILNS_15regex_constants10error_typeE12EEEvv, symObjAddr: 0x2236C, symBinAddr: 0x22EB4, symSize: 0x4C }
  - { offset: 0x87E45, size: 0x8, addend: 0x0, symName: __ZNSt3__119__throw_regex_errorB8ne190102ILNS_15regex_constants10error_typeE16EEEvv, symObjAddr: 0x223B8, symBinAddr: 0x22F00, symSize: 0x4C }
  - { offset: 0x886CA, size: 0x8, addend: 0x0, symName: __ZNSt3__119__throw_regex_errorB8ne190102ILNS_15regex_constants10error_typeE4EEEvv, symObjAddr: 0x23754, symBinAddr: 0x2429C, symSize: 0x4C }
  - { offset: 0x886F0, size: 0x8, addend: 0x0, symName: __ZNSt3__119__throw_regex_errorB8ne190102ILNS_15regex_constants10error_typeE3EEEvv, symObjAddr: 0x22FE4, symBinAddr: 0x23B2C, symSize: 0x4C }
  - { offset: 0x88716, size: 0x8, addend: 0x0, symName: __ZNSt3__119__throw_regex_errorB8ne190102ILNS_15regex_constants10error_typeE5EEEvv, symObjAddr: 0x252D0, symBinAddr: 0x25E18, symSize: 0x4C }
  - { offset: 0x892A1, size: 0x8, addend: 0x0, symName: __ZNSt3__119__throw_regex_errorB8ne190102ILNS_15regex_constants10error_typeE1EEEvv, symObjAddr: 0x26834, symBinAddr: 0x2737C, symSize: 0x4C }
  - { offset: 0x892C7, size: 0x8, addend: 0x0, symName: __ZNSt3__119__throw_regex_errorB8ne190102ILNS_15regex_constants10error_typeE2EEEvv, symObjAddr: 0x26E34, symBinAddr: 0x2797C, symSize: 0x4C }
  - { offset: 0x8941C, size: 0x8, addend: 0x0, symName: __ZNSt3__119__throw_regex_errorB8ne190102ILNS_15regex_constants10error_typeE9EEEvv, symObjAddr: 0x272A0, symBinAddr: 0x27DE8, symSize: 0x4C }
  - { offset: 0x8B683, size: 0x8, addend: 0x0, symName: __ZNSt3__135__uninitialized_allocator_copy_implB8ne190102INS_9allocatorINS_6vectorI23whisper_grammar_elementNS1_IS3_EEEEEEPS5_S7_S7_EET2_RT_T0_T1_S8_, symObjAddr: 0x311BC, symBinAddr: 0x31D04, symSize: 0xFC }
  - { offset: 0x8BBFE, size: 0x8, addend: 0x0, symName: __ZNSt3__135__uninitialized_allocator_copy_implB8ne190102INS_9allocatorINS_6vectorIPK23whisper_grammar_elementNS1_IS5_EEEEEEPS7_S9_S9_EET2_RT_T0_T1_SA_, symObjAddr: 0x313A8, symBinAddr: 0x31EF0, symSize: 0xFC }
  - { offset: 0x8D602, size: 0x8, addend: 0x0, symName: '__ZNSt3__17__sort4B8ne190102INS_17_ClassicAlgPolicyERZL11whisper_vadP15whisper_contextP13whisper_state19whisper_full_paramsPKfiRNS_6vectorIfNS_9allocatorIfEEEEE3$_0P16vad_time_mappingEEvT1_SI_SI_SI_T0_', symObjAddr: 0x32F14, symBinAddr: 0x33A5C, symSize: 0x104 }
  - { offset: 0x8EB93, size: 0x8, addend: 0x0, symName: '__ZNSt3__17__sort4B8ne190102INS_17_ClassicAlgPolicyERZ35whisper_lang_auto_detect_with_stateE3$_0P12whisper_pairIdiEEEvT1_S7_S7_S7_T0_', symObjAddr: 0x36880, symBinAddr: 0x373C8, symSize: 0x1B8 }
  - { offset: 0x90273, size: 0x8, addend: 0x0, symName: '__ZNSt3__114__thread_proxyB8ne190102INS_5tupleIJNS_10unique_ptrINS_15__thread_structENS_14default_deleteIS3_EEEEZ23whisper_full_with_stateE3$_0EEEEEPvS9_', symObjAddr: 0x37998, symBinAddr: 0x384E0, symSize: 0x78 }
  - { offset: 0x90E06, size: 0x8, addend: 0x0, symName: '__ZNSt3__17__sort3B8ne190102INS_17_ClassicAlgPolicyERZ23whisper_full_with_stateE3$_1PZ23whisper_full_with_stateE14beam_candidateEEjT1_S6_S6_T0_', symObjAddr: 0x396F0, symBinAddr: 0x3A238, symSize: 0x114 }
  - { offset: 0x90FAA, size: 0x8, addend: 0x0, symName: __ZNSt3__19iter_swapB8ne190102IPZ23whisper_full_with_stateE14beam_candidateS2_EEvT_T0_, symObjAddr: 0x39C10, symBinAddr: 0x3A758, symSize: 0x1FC }
  - { offset: 0x91A43, size: 0x8, addend: 0x0, symName: '__ZNSt3__124__sort5_maybe_branchlessB8ne190102INS_17_ClassicAlgPolicyERZ23whisper_full_with_stateE3$_1PZ23whisper_full_with_stateE14beam_candidateLi0EEEvT1_S6_S6_S6_S6_T0_', symObjAddr: 0x395C0, symBinAddr: 0x3A108, symSize: 0x130 }
  - { offset: 0x91C66, size: 0x8, addend: 0x0, symName: '__ZNSt3__17__sort4B8ne190102INS_17_ClassicAlgPolicyERZ23whisper_full_with_stateE3$_1PZ23whisper_full_with_stateE14beam_candidateEEvT1_S6_S6_S6_T0_', symObjAddr: 0x39E0C, symBinAddr: 0x3A954, symSize: 0xE8 }
  - { offset: 0x91EEB, size: 0x8, addend: 0x0, symName: '__ZNSt3__114__thread_proxyB8ne190102INS_5tupleIJNS_10unique_ptrINS_15__thread_structENS_14default_deleteIS3_EEEEZ23whisper_full_with_stateE3$_2EEEEEPvS9_', symObjAddr: 0x39EF4, symBinAddr: 0x3AA3C, symSize: 0x130 }
  - { offset: 0x92908, size: 0x8, addend: 0x0, symName: __ZNSt3__114__thread_proxyB8ne190102INS_5tupleIJNS_10unique_ptrINS_15__thread_structENS_14default_deleteIS3_EEEEPFiP15whisper_contextP13whisper_state19whisper_full_paramsPKfiES8_SA_SB_SD_iEEEEEPvSH_, symObjAddr: 0x3A1A8, symBinAddr: 0x3ACF0, symSize: 0xB0 }
  - { offset: 0x92DA4, size: 0x8, addend: 0x0, symName: '__ZNSt3__114__thread_proxyB8ne190102INS_5tupleIJNS_10unique_ptrINS_15__thread_structENS_14default_deleteIS3_EEEEZ24whisper_bench_memcpy_strE3$_0iEEEEEPvS9_', symObjAddr: 0x3A2A0, symBinAddr: 0x3ADE8, symSize: 0x120 }
  - { offset: 0x9681E, size: 0x8, addend: 0x0, symName: __ZSt28__throw_bad_array_new_lengthB8ne190102v, symObjAddr: 0x1AE3C, symBinAddr: 0x1B984, symSize: 0x28 }
  - { offset: 0x972E8, size: 0x8, addend: 0x0, symName: __MergedGlobals, symObjAddr: 0x5746D8, symBinAddr: 0x22E570, symSize: 0x0 }
  - { offset: 0x9795D, size: 0x8, addend: 0x0, symName: __MergedGlobals, symObjAddr: 0x5746D8, symBinAddr: 0x22E570, symSize: 0x0 }
  - { offset: 0x97DFB, size: 0x8, addend: 0x0, symName: __MergedGlobals, symObjAddr: 0x5746D8, symBinAddr: 0x22E570, symSize: 0x0 }
  - { offset: 0x98218, size: 0x8, addend: 0x0, symName: __MergedGlobals, symObjAddr: 0x5746D8, symBinAddr: 0x22E570, symSize: 0x0 }
  - { offset: 0x98834, size: 0x8, addend: 0x0, symName: __MergedGlobals, symObjAddr: 0x5746D8, symBinAddr: 0x22E570, symSize: 0x0 }
  - { offset: 0x98C80, size: 0x8, addend: 0x0, symName: __MergedGlobals, symObjAddr: 0x5746D8, symBinAddr: 0x22E570, symSize: 0x0 }
  - { offset: 0x9917D, size: 0x8, addend: 0x0, symName: __ZN12_GLOBAL__N_112global_cacheE, symObjAddr: 0x573410, symBinAddr: 0x22D2A8, symSize: 0x0 }
  - { offset: 0x99228, size: 0x8, addend: 0x0, symName: _whisper_print_system_info, symObjAddr: 0x84B4, symBinAddr: 0x8FFC, symSize: 0x398 }
  - { offset: 0x99250, size: 0x8, addend: 0x0, symName: __MergedGlobals, symObjAddr: 0x5746D8, symBinAddr: 0x22E570, symSize: 0x0 }
  - { offset: 0x9A041, size: 0x8, addend: 0x0, symName: __MergedGlobals, symObjAddr: 0x5746D8, symBinAddr: 0x22E570, symSize: 0x0 }
  - { offset: 0x9A247, size: 0x8, addend: 0x0, symName: _whisper_bench_memcpy_str, symObjAddr: 0x19218, symBinAddr: 0x19D60, symSize: 0x1210 }
  - { offset: 0x9A26F, size: 0x8, addend: 0x0, symName: __MergedGlobals, symObjAddr: 0x5746D8, symBinAddr: 0x22E570, symSize: 0x0 }
  - { offset: 0x9B370, size: 0x8, addend: 0x0, symName: _whisper_bench_ggml_mul_mat_str, symObjAddr: 0x1A450, symBinAddr: 0x1AF98, symSize: 0x6CC }
  - { offset: 0x9B398, size: 0x8, addend: 0x0, symName: __MergedGlobals, symObjAddr: 0x5746D8, symBinAddr: 0x22E570, symSize: 0x0 }
  - { offset: 0x9C7E2, size: 0x8, addend: 0x0, symName: __ZL16g_aheads_tiny_en, symObjAddr: 0x42440, symBinAddr: 0x16B918, symSize: 0x0 }
  - { offset: 0x9C80B, size: 0x8, addend: 0x0, symName: __ZL13g_aheads_tiny, symObjAddr: 0x42480, symBinAddr: 0x16B958, symSize: 0x0 }
  - { offset: 0x9C834, size: 0x8, addend: 0x0, symName: __ZL16g_aheads_base_en, symObjAddr: 0x424B0, symBinAddr: 0x16B988, symSize: 0x0 }
  - { offset: 0x9C85D, size: 0x8, addend: 0x0, symName: __ZL13g_aheads_base, symObjAddr: 0x424D8, symBinAddr: 0x16B9B0, symSize: 0x0 }
  - { offset: 0x9C878, size: 0x8, addend: 0x0, symName: __ZL17g_aheads_small_en, symObjAddr: 0x42518, symBinAddr: 0x16B9F0, symSize: 0x0 }
  - { offset: 0x9C8A1, size: 0x8, addend: 0x0, symName: __ZL14g_aheads_small, symObjAddr: 0x425B0, symBinAddr: 0x16BA88, symSize: 0x0 }
  - { offset: 0x9C8CA, size: 0x8, addend: 0x0, symName: __ZL18g_aheads_medium_en, symObjAddr: 0x42600, symBinAddr: 0x16BAD8, symSize: 0x0 }
  - { offset: 0x9C8F3, size: 0x8, addend: 0x0, symName: __ZL15g_aheads_medium, symObjAddr: 0x42690, symBinAddr: 0x16BB68, symSize: 0x0 }
  - { offset: 0x9C90E, size: 0x8, addend: 0x0, symName: __ZL17g_aheads_large_v1, symObjAddr: 0x426C0, symBinAddr: 0x16BB98, symSize: 0x0 }
  - { offset: 0x9C937, size: 0x8, addend: 0x0, symName: __ZL17g_aheads_large_v2, symObjAddr: 0x42708, symBinAddr: 0x16BBE0, symSize: 0x0 }
  - { offset: 0x9C960, size: 0x8, addend: 0x0, symName: __ZL17g_aheads_large_v3, symObjAddr: 0x427C0, symBinAddr: 0x16BC98, symSize: 0x0 }
  - { offset: 0x9C97B, size: 0x8, addend: 0x0, symName: __ZL23g_aheads_large_v3_turbo, symObjAddr: 0x42810, symBinAddr: 0x16BCE8, symSize: 0x0 }
  - { offset: 0x9C994, size: 0x8, addend: 0x0, symName: __ZL27whisper_build_graph_encoderR15whisper_contextR13whisper_state, symObjAddr: 0x1E3F4, symBinAddr: 0x1EF3C, symSize: 0x5D0 }
  - { offset: 0x9D387, size: 0x8, addend: 0x0, symName: __ZL25whisper_build_graph_crossR15whisper_contextR13whisper_state, symObjAddr: 0x1E9C4, symBinAddr: 0x1F50C, symSize: 0x2C8 }
  - { offset: 0x9D814, size: 0x8, addend: 0x0, symName: __ZL11decode_utf8PKc20whisper_partial_utf8, symObjAddr: 0x2F7B8, symBinAddr: 0x30300, symSize: 0x3D0 }
  - { offset: 0x9D840, size: 0x8, addend: 0x0, symName: __ZZL11decode_utf8PKc20whisper_partial_utf8E6lookup, symObjAddr: 0x42DC8, symBinAddr: 0x16C2A0, symSize: 0x0 }
  - { offset: 0x9ED3E, size: 0x8, addend: 0x0, symName: __ZL7g_state.0, symObjAddr: 0x42FE8, symBinAddr: 0x198288, symSize: 0x0 }
  - { offset: 0x9ED49, size: 0x8, addend: 0x0, symName: __ZL7g_state.1, symObjAddr: 0x5746D0, symBinAddr: 0x22E568, symSize: 0x0 }
  - { offset: 0x9EDDF, size: 0x8, addend: 0x0, symName: _whisper_vad_segments_from_probs, symObjAddr: 0xB890, symBinAddr: 0xC3D8, symSize: 0xAA8 }
  - { offset: 0xA24AA, size: 0x8, addend: 0x0, symName: _whisper_init_from_buffer_with_params_no_state, symObjAddr: 0x4788, symBinAddr: 0x52D0, symSize: 0x88 }
  - { offset: 0xA715C, size: 0x8, addend: 0x0, symName: _whisper_full_with_state, symObjAddr: 0xC808, symBinAddr: 0xD350, symSize: 0x6DC8 }
  - { offset: 0xC1116, size: 0x8, addend: 0x0, symName: _whisper_init_state, symObjAddr: 0x218, symBinAddr: 0xD60, symSize: 0x12E8 }
  - { offset: 0xC7656, size: 0x8, addend: 0x0, symName: __ZNSt3__13mapI10asr_systemNS0_I10asr_tensorPKcNS_4lessIS2_EENS_9allocatorINS_4pairIKS2_S4_EEEEEENS5_IS1_EENS7_INS8_IKS1_SC_EEEEED1B8ne190102Ev, symObjAddr: 0x0, symBinAddr: 0xB48, symSize: 0x28 }
  - { offset: 0xC7714, size: 0x8, addend: 0x0, symName: __ZNSt3__16__treeINS_12__value_typeI10asr_systemNS_3mapI10asr_tensorPKcNS_4lessIS4_EENS_9allocatorINS_4pairIKS4_S6_EEEEEEEENS_19__map_value_compareIS2_SF_NS7_IS2_EELb1EEENS9_ISF_EEE7destroyEPNS_11__tree_nodeISF_PvEE, symObjAddr: 0x33808, symBinAddr: 0x34350, symSize: 0x50 }
  - { offset: 0xC79BA, size: 0x8, addend: 0x0, symName: __ZNSt3__13mapI10asr_tensor7ggml_opNS_4lessIS1_EENS_9allocatorINS_4pairIKS1_S2_EEEEED1B8ne190102Ev, symObjAddr: 0x28, symBinAddr: 0xB70, symSize: 0x28 }
  - { offset: 0xC7A78, size: 0x8, addend: 0x0, symName: __ZNSt3__16__treeINS_12__value_typeI10asr_tensor7ggml_opEENS_19__map_value_compareIS2_S4_NS_4lessIS2_EELb1EEENS_9allocatorIS4_EEE7destroyEPNS_11__tree_nodeIS4_PvEE, symObjAddr: 0x33AFC, symBinAddr: 0x34644, symSize: 0x44 }
  - { offset: 0xC7C37, size: 0x8, addend: 0x0, symName: __ZNSt3__13mapI10vad_tensor7ggml_opNS_4lessIS1_EENS_9allocatorINS_4pairIKS1_S2_EEEEED1B8ne190102Ev, symObjAddr: 0x50, symBinAddr: 0xB98, symSize: 0x28 }
  - { offset: 0xC7CF5, size: 0x8, addend: 0x0, symName: __ZNSt3__16__treeINS_12__value_typeI10vad_tensor7ggml_opEENS_19__map_value_compareIS2_S4_NS_4lessIS2_EELb1EEENS_9allocatorIS4_EEE7destroyEPNS_11__tree_nodeIS4_PvEE, symObjAddr: 0x33DE4, symBinAddr: 0x3492C, symSize: 0x44 }
  - { offset: 0xC7EB4, size: 0x8, addend: 0x0, symName: __ZNSt3__13mapI10vad_tensorPKcNS_4lessIS1_EENS_9allocatorINS_4pairIKS1_S3_EEEEED1B8ne190102Ev, symObjAddr: 0x78, symBinAddr: 0xBC0, symSize: 0x28 }
  - { offset: 0xC7F72, size: 0x8, addend: 0x0, symName: __ZNSt3__16__treeINS_12__value_typeI10vad_tensorPKcEENS_19__map_value_compareIS2_S5_NS_4lessIS2_EELb1EEENS_9allocatorIS5_EEE7destroyEPNS_11__tree_nodeIS5_PvEE, symObjAddr: 0x340CC, symBinAddr: 0x34C14, symSize: 0x44 }
  - { offset: 0xC8131, size: 0x8, addend: 0x0, symName: __ZNSt3__13mapI7e_modelNS_12basic_stringIcNS_11char_traitsIcEENS_9allocatorIcEEEENS_4lessIS1_EENS5_INS_4pairIKS1_S7_EEEEED1B8ne190102Ev, symObjAddr: 0xA0, symBinAddr: 0xBE8, symSize: 0x28 }
  - { offset: 0xC81EF, size: 0x8, addend: 0x0, symName: __ZNSt3__16__treeINS_12__value_typeI7e_modelNS_12basic_stringIcNS_11char_traitsIcEENS_9allocatorIcEEEEEENS_19__map_value_compareIS2_S9_NS_4lessIS2_EELb1EEENS6_IS9_EEE7destroyEPNS_11__tree_nodeIS9_PvEE, symObjAddr: 0x34438, symBinAddr: 0x34F80, symSize: 0x60 }
  - { offset: 0xC862D, size: 0x8, addend: 0x0, symName: __ZNSt3__112basic_stringIcNS_11char_traitsIcEENS_9allocatorIcEEEC1B8ne190102ILi0EEEPKc, symObjAddr: 0xC8, symBinAddr: 0xC10, symSize: 0xA8 }
  - { offset: 0xC88BE, size: 0x8, addend: 0x0, symName: __ZNSt3__14pairIKNS_12basic_stringIcNS_11char_traitsIcEENS_9allocatorIcEEEENS0_IiS6_EEED1Ev, symObjAddr: 0x170, symBinAddr: 0xCB8, symSize: 0x58 }
  - { offset: 0xC88E3, size: 0x8, addend: 0x0, symName: __ZNKSt3__112basic_stringIcNS_11char_traitsIcEENS_9allocatorIcEEE20__throw_length_errorB8ne190102Ev, symObjAddr: 0x1E290, symBinAddr: 0x1EDD8, symSize: 0x14 }
  - { offset: 0xC890D, size: 0x8, addend: 0x0, symName: __ZL24whisper_build_graph_convR15whisper_contextR13whisper_state, symObjAddr: 0x1E2A4, symBinAddr: 0x1EDEC, symSize: 0x150 }
  - { offset: 0xC8A2A, size: 0x8, addend: 0x0, symName: __ZNSt3__14pairIKNS_12basic_stringIcNS_11char_traitsIcEENS_9allocatorIcEEEENS0_IiS6_EEED1Ev, symObjAddr: 0x170, symBinAddr: 0xCB8, symSize: 0x58 }
  - { offset: 0xC8D4B, size: 0x8, addend: 0x0, symName: __ZNSt3__13mapINS_12basic_stringIcNS_11char_traitsIcEENS_9allocatorIcEEEENS_4pairIiS6_EENS_4lessIS6_EENS4_INS7_IKS6_S8_EEEEED1B8ne190102Ev, symObjAddr: 0x1C8, symBinAddr: 0xD10, symSize: 0x28 }
  - { offset: 0xC8E09, size: 0x8, addend: 0x0, symName: __ZNSt3__16__treeINS_12__value_typeINS_12basic_stringIcNS_11char_traitsIcEENS_9allocatorIcEEEENS_4pairIiS7_EEEENS_19__map_value_compareIS7_SA_NS_4lessIS7_EELb1EEENS5_ISA_EEE7destroyEPNS_11__tree_nodeISA_PvEE, symObjAddr: 0x34B7C, symBinAddr: 0x356C4, symSize: 0x78 }
  - { offset: 0xC927B, size: 0x8, addend: 0x0, symName: __ZNSt3__13mapI30whisper_alignment_heads_preset14whisper_aheadsNS_4lessIS1_EENS_9allocatorINS_4pairIKS1_S2_EEEEED1B8ne190102Ev, symObjAddr: 0x1F0, symBinAddr: 0xD38, symSize: 0x28 }
  - { offset: 0xC9339, size: 0x8, addend: 0x0, symName: __ZNSt3__16__treeINS_12__value_typeI30whisper_alignment_heads_preset14whisper_aheadsEENS_19__map_value_compareIS2_S4_NS_4lessIS2_EELb1EEENS_9allocatorIS4_EEE7destroyEPNS_11__tree_nodeIS4_PvEE, symObjAddr: 0x34EA4, symBinAddr: 0x359EC, symSize: 0x44 }
  - { offset: 0xCB5DB, size: 0x8, addend: 0x0, symName: __ZN13whisper_stateC2Ev, symObjAddr: 0x1B05C, symBinAddr: 0x1BBA4, symSize: 0x440 }
  - { offset: 0xCBB49, size: 0x8, addend: 0x0, symName: __ZL20whisper_backend_initRK22whisper_context_params, symObjAddr: 0x1500, symBinAddr: 0x2048, symSize: 0x4C8 }
  - { offset: 0xCCC0F, size: 0x8, addend: 0x0, symName: __ZL21whisper_kv_cache_initR16whisper_kv_cacheP12ggml_backend9ggml_typexxi, symObjAddr: 0x1BDC, symBinAddr: 0x2724, symSize: 0x288 }
  - { offset: 0xCD60A, size: 0x8, addend: 0x0, symName: __ZL19aheads_masks_nbytesR20whisper_aheads_masks, symObjAddr: 0x1E64, symBinAddr: 0x29AC, symSize: 0x6C }
  - { offset: 0xCD633, size: 0x8, addend: 0x0, symName: __ZL20whisper_log_internal14ggml_log_levelPKcz, symObjAddr: 0x19C8, symBinAddr: 0x2510, symSize: 0x100 }
  - { offset: 0xCD73C, size: 0x8, addend: 0x0, symName: _whisper_free_state, symObjAddr: 0x1AC8, symBinAddr: 0x2610, symSize: 0x114 }
  - { offset: 0xCDA08, size: 0x8, addend: 0x0, symName: __ZL28get_alignment_heads_by_layerRK22whisper_context_paramsiii, symObjAddr: 0x1B864, symBinAddr: 0x1C3AC, symSize: 0x2B0 }
  - { offset: 0xCE563, size: 0x8, addend: 0x0, symName: __ZNSt3__16vectorIfNS_9allocatorIfEEE8__appendEm, symObjAddr: 0x34EE8, symBinAddr: 0x35A30, symSize: 0x124 }
  - { offset: 0xCE9A7, size: 0x8, addend: 0x0, symName: __ZNSt3__16__treeINS_12__value_typeIP24ggml_backend_buffer_typeP12ggml_contextEENS_19__map_value_compareIS3_S6_NS_4lessIS3_EELb1EEENS_9allocatorIS6_EEE7destroyEPNS_11__tree_nodeIS6_PvEE, symObjAddr: 0x3500C, symBinAddr: 0x35B54, symSize: 0x44 }
  - { offset: 0xCE9CE, size: 0x8, addend: 0x0, symName: __ZL19aheads_masks_nbytesR20whisper_aheads_masks, symObjAddr: 0x1E64, symBinAddr: 0x29AC, symSize: 0x6C }
  - { offset: 0xCEA69, size: 0x8, addend: 0x0, symName: __ZL24whisper_sched_graph_initR13whisper_schedNSt3__16vectorIP12ggml_backendNS1_9allocatorIS4_EEEEONS1_8functionIFP11ggml_cgraphvEEE, symObjAddr: 0x1ED0, symBinAddr: 0x2A18, symSize: 0x18C }
  - { offset: 0xCF071, size: 0x8, addend: 0x0, symName: __ZNSt3__16vectorIP12ggml_backendNS_9allocatorIS2_EEEC1ERKS5_, symObjAddr: 0x205C, symBinAddr: 0x2BA4, symSize: 0x8C }
  - { offset: 0xCF0BF, size: 0x8, addend: 0x0, symName: __ZL18whisper_sched_sizeR13whisper_sched, symObjAddr: 0x20E8, symBinAddr: 0x2C30, symSize: 0x74 }
  - { offset: 0xCF16B, size: 0x8, addend: 0x0, symName: __ZNSt3__16vectorIP12ggml_backendNS_9allocatorIS2_EEEC1ERKS5_, symObjAddr: 0x205C, symBinAddr: 0x2BA4, symSize: 0x8C }
  - { offset: 0xCF605, size: 0x8, addend: 0x0, symName: __ZNKSt3__16vectorIP11ggml_tensorNS_9allocatorIS2_EEE20__throw_length_errorB8ne190102Ev, symObjAddr: 0x1BB9C, symBinAddr: 0x1C6E4, symSize: 0x14 }
  - { offset: 0xCF62F, size: 0x8, addend: 0x0, symName: __ZNSt3__125__throw_bad_function_callB8ne190102Ev, symObjAddr: 0x1BBB0, symBinAddr: 0x1C6F8, symSize: 0x34 }
  - { offset: 0xCF63A, size: 0x8, addend: 0x0, symName: __ZNKSt3__16vectorIP12ggml_backendNS_9allocatorIS2_EEE20__throw_length_errorB8ne190102Ev, symObjAddr: 0x1B5F0, symBinAddr: 0x1C138, symSize: 0x14 }
  - { offset: 0xCF664, size: 0x8, addend: 0x0, symName: __ZNSt3__120__throw_length_errorB8ne190102EPKc, symObjAddr: 0x1B604, symBinAddr: 0x1C14C, symSize: 0x50 }
  - { offset: 0xCF66F, size: 0x8, addend: 0x0, symName: __ZNKSt3__16vectorIfNS_9allocatorIfEEE20__throw_length_errorB8ne190102Ev, symObjAddr: 0x333F8, symBinAddr: 0x33F40, symSize: 0x14 }
  - { offset: 0xCF699, size: 0x8, addend: 0x0, symName: __ZNSt3__13mapI10asr_tensorPKcNS_4lessIS1_EENS_9allocatorINS_4pairIKS1_S3_EEEEEC2B8ne190102ESt16initializer_listIS9_ERKS5_, symObjAddr: 0x3340C, symBinAddr: 0x33F54, symSize: 0xF4 }
  - { offset: 0xCF6A4, size: 0x8, addend: 0x0, symName: __ZNKSt3__16vectorI18whisper_token_dataNS_9allocatorIS1_EEE20__throw_length_errorB8ne190102Ev, symObjAddr: 0x308C8, symBinAddr: 0x31410, symSize: 0x14 }
  - { offset: 0xCF6CE, size: 0x8, addend: 0x0, symName: __ZNSt3__121discrete_distributionIiE10param_type6__initEv, symObjAddr: 0x308DC, symBinAddr: 0x31424, symSize: 0x220 }
  - { offset: 0xCF6D9, size: 0x8, addend: 0x0, symName: __ZNKSt3__16vectorI12whisper_pairIdiENS_9allocatorIS2_EEE20__throw_length_errorB8ne190102Ev, symObjAddr: 0x30F14, symBinAddr: 0x31A5C, symSize: 0x14 }
  - { offset: 0xCF703, size: 0x8, addend: 0x0, symName: __ZNKSt3__16vectorIZ23whisper_full_with_stateE14beam_candidateNS_9allocatorIS1_EEE20__throw_length_errorB8ne190102Ev, symObjAddr: 0x30F28, symBinAddr: 0x31A70, symSize: 0x14 }
  - { offset: 0xCFC06, size: 0x8, addend: 0x0, symName: _whisper_vad_free, symObjAddr: 0x4D04, symBinAddr: 0x584C, symSize: 0xC0 }
  - { offset: 0xCFE1C, size: 0x8, addend: 0x0, symName: __ZN13whisper_stateD2Ev, symObjAddr: 0x1CD88, symBinAddr: 0x1D8D0, symSize: 0x2DC }
  - { offset: 0xD2FFF, size: 0x8, addend: 0x0, symName: __ZNSt3__16__treeIiNS_4lessIiEENS_9allocatorIiEEE7destroyEPNS_11__tree_nodeIiPvEE, symObjAddr: 0x1B5AC, symBinAddr: 0x1C0F4, symSize: 0x44 }
  - { offset: 0xD3148, size: 0x8, addend: 0x0, symName: __ZNSt3__16vectorI15whisper_kv_cellNS_9allocatorIS1_EEE8__appendEm, symObjAddr: 0x1B68C, symBinAddr: 0x1C1D4, symSize: 0x1C4 }
  - { offset: 0xD3A16, size: 0x8, addend: 0x0, symName: __ZNKSt3__16vectorI15whisper_kv_cellNS_9allocatorIS1_EEE20__throw_length_errorB8ne190102Ev, symObjAddr: 0x1B850, symBinAddr: 0x1C398, symSize: 0x14 }
  - { offset: 0xD3A50, size: 0x8, addend: 0x0, symName: __ZNKSt3__16vectorIhNS_9allocatorIhEEE20__throw_length_errorB8ne190102Ev, symObjAddr: 0x1B678, symBinAddr: 0x1C1C0, symSize: 0x14 }
  - { offset: 0xD3A7A, size: 0x8, addend: 0x0, symName: __ZNSt3__16vectorI15whisper_kv_cellNS_9allocatorIS1_EEE8__appendEm, symObjAddr: 0x1B68C, symBinAddr: 0x1C1D4, symSize: 0x1C4 }
  - { offset: 0xD3B22, size: 0x8, addend: 0x0, symName: _whisper_ctx_init_openvino_encoder_with_state, symObjAddr: 0x215C, symBinAddr: 0x2CA4, symSize: 0x8 }
  - { offset: 0xD3B8B, size: 0x8, addend: 0x0, symName: _whisper_ctx_init_openvino_encoder, symObjAddr: 0x2164, symBinAddr: 0x2CAC, symSize: 0x8 }
  - { offset: 0xD3BE5, size: 0x8, addend: 0x0, symName: _whisper_context_default_params, symObjAddr: 0x216C, symBinAddr: 0x2CB4, symSize: 0x24 }
  - { offset: 0xD3C75, size: 0x8, addend: 0x0, symName: _whisper_init_from_file_with_params_no_state, symObjAddr: 0x2190, symBinAddr: 0x2CD8, symSize: 0x198 }
  - { offset: 0xD3E8B, size: 0x8, addend: 0x0, symName: __ZNSt3__114basic_ifstreamIcNS_11char_traitsIcEEEC1EPKcj, symObjAddr: 0x2328, symBinAddr: 0x2E70, symSize: 0x118 }
  - { offset: 0xD3FB4, size: 0x8, addend: 0x0, symName: _whisper_init_with_params_no_state, symObjAddr: 0x2440, symBinAddr: 0x2F88, symSize: 0x22F0 }
  - { offset: 0xD9FAB, size: 0x8, addend: 0x0, symName: __ZNSt3__114basic_ifstreamIcNS_11char_traitsIcEEED1Ev, symObjAddr: 0x4730, symBinAddr: 0x5278, symSize: 0x58 }
  - { offset: 0xDC45B, size: 0x8, addend: 0x0, symName: __ZNSt3__16__treeINS_12__value_typeINS_12basic_stringIcNS_11char_traitsIcEENS_9allocatorIcEEEEiEENS_19__map_value_compareIS7_S8_NS_4lessIS7_EELb1EEENS5_IS8_EEE25__emplace_unique_key_argsIS7_JRKNS_21piecewise_construct_tENS_5tupleIJRKS7_EEENSJ_IJEEEEEENS_4pairINS_15__tree_iteratorIS8_PNS_11__tree_nodeIS8_PvEElEEbEERKT_DpOT0_, symObjAddr: 0x1C41C, symBinAddr: 0x1CF64, symSize: 0x1B8 }
  - { offset: 0xDCB4A, size: 0x8, addend: 0x0, symName: _whisper_lang_str, symObjAddr: 0x7894, symBinAddr: 0x83DC, symSize: 0xBC }
  - { offset: 0xDCD1C, size: 0x8, addend: 0x0, symName: __ZL14make_buft_listR22whisper_context_params, symObjAddr: 0xA26C, symBinAddr: 0xADB4, symSize: 0x3AC }
  - { offset: 0xDDE0F, size: 0x8, addend: 0x0, symName: __ZNSt3__16vectorI21whisper_layer_encoderNS_9allocatorIS1_EEE8__appendEm, symObjAddr: 0x1C634, symBinAddr: 0x1D17C, symSize: 0x188 }
  - { offset: 0xDE224, size: 0x8, addend: 0x0, symName: __ZNKSt3__16vectorI21whisper_layer_encoderNS_9allocatorIS1_EEE20__throw_length_errorB8ne190102Ev, symObjAddr: 0x1C7BC, symBinAddr: 0x1D304, symSize: 0x14 }
  - { offset: 0xDE22F, size: 0x8, addend: 0x0, symName: __ZNSt3__16vectorI21whisper_layer_decoderNS_9allocatorIS1_EEE8__appendEm, symObjAddr: 0x1C7D0, symBinAddr: 0x1D318, symSize: 0x184 }
  - { offset: 0xDE644, size: 0x8, addend: 0x0, symName: __ZNKSt3__16vectorI21whisper_layer_decoderNS_9allocatorIS1_EEE20__throw_length_errorB8ne190102Ev, symObjAddr: 0x1C954, symBinAddr: 0x1D49C, symSize: 0x14 }
  - { offset: 0xDE64F, size: 0x8, addend: 0x0, symName: '__ZZL18whisper_model_loadP20whisper_model_loaderR15whisper_contextENK3$_1clE10asr_tensor10asr_systemP11ggml_tensori', symObjAddr: 0x1BCD4, symBinAddr: 0x1C81C, symSize: 0x734 }
  - { offset: 0xDFFB3, size: 0x8, addend: 0x0, symName: __ZNSt3__16__treeINS_12__value_typeINS_12basic_stringIcNS_11char_traitsIcEENS_9allocatorIcEEEEP11ggml_tensorEENS_19__map_value_compareIS7_SA_NS_4lessIS7_EELb1EEENS5_ISA_EEE25__emplace_unique_key_argsIS7_JRKNS_21piecewise_construct_tENS_5tupleIJOS7_EEENSL_IJEEEEEENS_4pairINS_15__tree_iteratorISA_PNS_11__tree_nodeISA_PvEElEEbEERKT_DpOT0_, symObjAddr: 0x35050, symBinAddr: 0x35B98, symSize: 0x178 }
  - { offset: 0xE0625, size: 0x8, addend: 0x0, symName: __ZNSt3__16vectorIcNS_9allocatorIcEEE6resizeEm, symObjAddr: 0xAD08, symBinAddr: 0xB850, symSize: 0x114 }
  - { offset: 0xE0B4E, size: 0x8, addend: 0x0, symName: _whisper_vad_reset_state, symObjAddr: 0xAE1C, symBinAddr: 0xB964, symSize: 0xC }
  - { offset: 0xE0B73, size: 0x8, addend: 0x0, symName: __ZNSt3__16__treeINS_12__value_typeIP24ggml_backend_buffer_typeP12ggml_contextEENS_19__map_value_compareIS3_S6_NS_4lessIS3_EELb1EEENS_9allocatorIS6_EEE7destroyEPNS_11__tree_nodeIS6_PvEE, symObjAddr: 0x3500C, symBinAddr: 0x35B54, symSize: 0x44 }
  - { offset: 0xE0CBE, size: 0x8, addend: 0x0, symName: __ZNKSt3__16vectorIcNS_9allocatorIcEEE20__throw_length_errorB8ne190102Ev, symObjAddr: 0x1C408, symBinAddr: 0x1CF50, symSize: 0x14 }
  - { offset: 0xE0CE8, size: 0x8, addend: 0x0, symName: __ZNSt3__16__treeINS_12__value_typeINS_12basic_stringIcNS_11char_traitsIcEENS_9allocatorIcEEEEiEENS_19__map_value_compareIS7_S8_NS_4lessIS7_EELb1EEENS5_IS8_EEE25__emplace_unique_key_argsIS7_JRKNS_21piecewise_construct_tENS_5tupleIJRKS7_EEENSJ_IJEEEEEENS_4pairINS_15__tree_iteratorIS8_PNS_11__tree_nodeIS8_PvEElEEbEERKT_DpOT0_, symObjAddr: 0x1C41C, symBinAddr: 0x1CF64, symSize: 0x1B8 }
  - { offset: 0xE0CF3, size: 0x8, addend: 0x0, symName: __ZNKSt3__16vectorIP19ggml_backend_bufferNS_9allocatorIS2_EEE20__throw_length_errorB8ne190102Ev, symObjAddr: 0x351C8, symBinAddr: 0x35D10, symSize: 0x14 }
  - { offset: 0xE0D1D, size: 0x8, addend: 0x0, symName: __ZNSt3__128__exception_guard_exceptionsINS_6vectorINS_6threadENS_9allocatorIS2_EEE16__destroy_vectorEED1B8ne190102Ev, symObjAddr: 0x351DC, symBinAddr: 0x35D24, symSize: 0x70 }
  - { offset: 0xE0D28, size: 0x8, addend: 0x0, symName: __ZN15whisper_contextD2Ev, symObjAddr: 0x1CBC4, symBinAddr: 0x1D70C, symSize: 0xA4 }
  - { offset: 0xE181D, size: 0x8, addend: 0x0, symName: _whisper_init_from_file_with_params, symObjAddr: 0x4820, symBinAddr: 0x5368, symSize: 0xC4 }
  - { offset: 0xE19F0, size: 0x8, addend: 0x0, symName: _whisper_free, symObjAddr: 0x48E4, symBinAddr: 0x542C, symSize: 0x74 }
  - { offset: 0xE1C17, size: 0x8, addend: 0x0, symName: _whisper_init_from_buffer_with_params, symObjAddr: 0x4958, symBinAddr: 0x54A0, symSize: 0x110 }
  - { offset: 0xE1E4E, size: 0x8, addend: 0x0, symName: _whisper_init_with_params, symObjAddr: 0x4A68, symBinAddr: 0x55B0, symSize: 0xC4 }
  - { offset: 0xE203D, size: 0x8, addend: 0x0, symName: _whisper_init_from_file, symObjAddr: 0x4B2C, symBinAddr: 0x5674, symSize: 0x40 }
  - { offset: 0xE20A8, size: 0x8, addend: 0x0, symName: _whisper_init_from_buffer, symObjAddr: 0x4B6C, symBinAddr: 0x56B4, symSize: 0x40 }
  - { offset: 0xE212C, size: 0x8, addend: 0x0, symName: _whisper_init, symObjAddr: 0x4BAC, symBinAddr: 0x56F4, symSize: 0x40 }
  - { offset: 0xE2197, size: 0x8, addend: 0x0, symName: _whisper_init_from_file_no_state, symObjAddr: 0x4BEC, symBinAddr: 0x5734, symSize: 0x40 }
  - { offset: 0xE2202, size: 0x8, addend: 0x0, symName: _whisper_init_from_buffer_no_state, symObjAddr: 0x4C2C, symBinAddr: 0x5774, symSize: 0x98 }
  - { offset: 0xE22E1, size: 0x8, addend: 0x0, symName: _whisper_init_no_state, symObjAddr: 0x4CC4, symBinAddr: 0x580C, symSize: 0x40 }
  - { offset: 0xE236F, size: 0x8, addend: 0x0, symName: __ZN19whisper_vad_contextD2Ev, symObjAddr: 0x2B2B4, symBinAddr: 0x2BDFC, symSize: 0xD0 }
  - { offset: 0xE3026, size: 0x8, addend: 0x0, symName: _whisper_free_context_params, symObjAddr: 0x4DC4, symBinAddr: 0x590C, symSize: 0xC }
  - { offset: 0xE304D, size: 0x8, addend: 0x0, symName: _whisper_free_params, symObjAddr: 0x4DD0, symBinAddr: 0x5918, symSize: 0xC }
  - { offset: 0xE377A, size: 0x8, addend: 0x0, symName: _whisper_pcm_to_mel_with_state, symObjAddr: 0x4DDC, symBinAddr: 0x5924, symSize: 0x834 }
  - { offset: 0xE4524, size: 0x8, addend: 0x0, symName: __ZNSt3__16threadC2IRFviPKfRKNS_6vectorIfNS_9allocatorIfEEEEiiiiRK15whisper_filtersR11whisper_melEJiRS3_NS_17reference_wrapperIS8_EExRKiSL_SL_NSI_ISB_EENSI_ISD_EEELi0EEEOT_DpOT0_, symObjAddr: 0x1E03C, symBinAddr: 0x1EB84, symSize: 0x13C }
  - { offset: 0xE4BDF, size: 0x8, addend: 0x0, symName: __ZL33log_mel_spectrogram_worker_threadiPKfRKNSt3__16vectorIfNS1_9allocatorIfEEEEiiiiRK15whisper_filtersR11whisper_mel, symObjAddr: 0x1D064, symBinAddr: 0x1DBAC, symSize: 0x97C }
  - { offset: 0xE55C0, size: 0x8, addend: 0x0, symName: __ZNKSt3__16vectorINS_6threadENS_9allocatorIS1_EEE20__throw_length_errorB8ne190102Ev, symObjAddr: 0x3524C, symBinAddr: 0x35D94, symSize: 0x14 }
  - { offset: 0xE55EA, size: 0x8, addend: 0x0, symName: __ZNKSt3__16vectorIiNS_9allocatorIiEEE20__throw_length_errorB8ne190102Ev, symObjAddr: 0x35260, symBinAddr: 0x35DA8, symSize: 0x14 }
  - { offset: 0xE55F5, size: 0x8, addend: 0x0, symName: __ZNSt3__128__exception_guard_exceptionsINS_6vectorINS_6threadENS_9allocatorIS2_EEE16__destroy_vectorEED1B8ne190102Ev, symObjAddr: 0x351DC, symBinAddr: 0x35D24, symSize: 0x70 }
  - { offset: 0xE5623, size: 0x8, addend: 0x0, symName: __ZNSt3__128__exception_guard_exceptionsINS_6vectorINS_6threadENS_9allocatorIS2_EEE16__destroy_vectorEED1B8ne190102Ev, symObjAddr: 0x351DC, symBinAddr: 0x35D24, symSize: 0x70 }
  - { offset: 0xE57A3, size: 0x8, addend: 0x0, symName: __ZNSt3__16vectorINS_6threadENS_9allocatorIS1_EEED1B8ne190102Ev, symObjAddr: 0x16584, symBinAddr: 0x170CC, symSize: 0x58 }
  - { offset: 0xE5935, size: 0x8, addend: 0x0, symName: _whisper_pcm_to_mel, symObjAddr: 0x5610, symBinAddr: 0x6158, symSize: 0x28 }
  - { offset: 0xE59C4, size: 0x8, addend: 0x0, symName: _whisper_set_mel_with_state, symObjAddr: 0x5638, symBinAddr: 0x6180, symSize: 0xD4 }
  - { offset: 0xE5B06, size: 0x8, addend: 0x0, symName: _whisper_set_mel, symObjAddr: 0x570C, symBinAddr: 0x6254, symSize: 0xCC }
  - { offset: 0xE5C60, size: 0x8, addend: 0x0, symName: _whisper_encode_with_state, symObjAddr: 0x57D8, symBinAddr: 0x6320, symSize: 0x58 }
  - { offset: 0xE5CED, size: 0x8, addend: 0x0, symName: __ZL23whisper_encode_internalR15whisper_contextR13whisper_stateiiPFbPvES3_, symObjAddr: 0x5830, symBinAddr: 0x6378, symSize: 0x3FC }
  - { offset: 0xE61D2, size: 0x8, addend: 0x0, symName: __ZL24whisper_build_graph_convR15whisper_contextR13whisper_state, symObjAddr: 0x1E2A4, symBinAddr: 0x1EDEC, symSize: 0x150 }
  - { offset: 0xE6461, size: 0x8, addend: 0x0, symName: __ZL25ggml_graph_compute_helperP18ggml_backend_schedP11ggml_cgraphib, symObjAddr: 0xB728, symBinAddr: 0xC270, symSize: 0xD4 }
  - { offset: 0xE6604, size: 0x8, addend: 0x0, symName: __ZL25whisper_build_graph_crossR15whisper_contextR13whisper_state, symObjAddr: 0x1E9C4, symBinAddr: 0x1F50C, symSize: 0x2C8 }
  - { offset: 0xE6A96, size: 0x8, addend: 0x0, symName: _whisper_encode, symObjAddr: 0x5C2C, symBinAddr: 0x6774, symSize: 0x64 }
  - { offset: 0xE6B8E, size: 0x8, addend: 0x0, symName: _whisper_decode_with_state, symObjAddr: 0x5C90, symBinAddr: 0x67D8, symSize: 0x128 }
  - { offset: 0xE6CBF, size: 0x8, addend: 0x0, symName: __ZL23whisper_kv_cache_seq_rmR16whisper_kv_cacheiii, symObjAddr: 0x5DB8, symBinAddr: 0x6900, symSize: 0x200 }
  - { offset: 0xE71F5, size: 0x8, addend: 0x0, symName: __ZL23whisper_decode_internalR15whisper_contextR13whisper_stateRK13whisper_batchibPFbPvES6_, symObjAddr: 0x5FB8, symBinAddr: 0x6B00, symSize: 0x7D4 }
  - { offset: 0xE8754, size: 0x8, addend: 0x0, symName: __ZL27whisper_build_graph_decoderR15whisper_contextR13whisper_stateRK13whisper_batchbb, symObjAddr: 0x1F04C, symBinAddr: 0x1FB94, symSize: 0xC08 }
  - { offset: 0xE9A2E, size: 0x8, addend: 0x0, symName: __ZNSt3__111basic_regexIcNS_12regex_traitsIcEEED1Ev, symObjAddr: 0x1FC54, symBinAddr: 0x2079C, symSize: 0x5C }
  - { offset: 0xE9A80, size: 0x8, addend: 0x0, symName: _whisper_decode, symObjAddr: 0x678C, symBinAddr: 0x72D4, symSize: 0x54 }
  - { offset: 0xEAF15, size: 0x8, addend: 0x0, symName: _whisper_tokenize, symObjAddr: 0x67E0, symBinAddr: 0x7328, symSize: 0xBC8 }
  - { offset: 0xEEC9F, size: 0x8, addend: 0x0, symName: __ZNSt3__112basic_stringIcNS_11char_traitsIcEENS_9allocatorIcEEE25__init_copy_ctor_externalEPKcm, symObjAddr: 0x34498, symBinAddr: 0x34FE0, symSize: 0x8C }
  - { offset: 0xEEE78, size: 0x8, addend: 0x0, symName: __ZNSt3__13mapINS_12basic_stringIcNS_11char_traitsIcEENS_9allocatorIcEEEENS_4pairIiS6_EENS_4lessIS6_EENS4_INS7_IKS6_S8_EEEEEC2B8ne190102ESt16initializer_listISC_ERKSA_, symObjAddr: 0x34524, symBinAddr: 0x3506C, symSize: 0x104 }
  - { offset: 0xEEE8B, size: 0x8, addend: 0x0, symName: __ZNSt3__111basic_regexIcNS_12regex_traitsIcEEEC2B8ne190102INS_11char_traitsIcEENS_9allocatorIcEEEERKNS_12basic_stringIcT_T0_EENS_15regex_constants18syntax_option_typeE, symObjAddr: 0x1FCB0, symBinAddr: 0x207F8, symSize: 0xD4 }
  - { offset: 0xEF076, size: 0x8, addend: 0x0, symName: __ZNKSt3__111basic_regexIcNS_12regex_traitsIcEEE8__searchINS_9allocatorINS_9sub_matchIPKcEEEEEEbS8_S8_RNS_13match_resultsIS8_T_EENS_15regex_constants15match_flag_typeE, symObjAddr: 0x287E4, symBinAddr: 0x2932C, symSize: 0x308 }
  - { offset: 0xEF670, size: 0x8, addend: 0x0, symName: __ZNSt3__113match_resultsINS_11__wrap_iterIPKcEENS_9allocatorINS_9sub_matchIS4_EEEEE8__assignB8ne190102IS3_NS5_INS6_IS3_EEEEEEvS4_S4_RKNS0_IT_T0_EEb, symObjAddr: 0x28AEC, symBinAddr: 0x29634, symSize: 0x1AC }
  - { offset: 0xEFA10, size: 0x8, addend: 0x0, symName: __ZNKSt3__16vectorINS_12basic_stringIcNS_11char_traitsIcEENS_9allocatorIcEEEENS4_IS6_EEE20__throw_length_errorB8ne190102Ev, symObjAddr: 0x26E20, symBinAddr: 0x27968, symSize: 0x14 }
  - { offset: 0xEFA3A, size: 0x8, addend: 0x0, symName: __ZNSt3__119__throw_regex_errorB8ne190102ILNS_15regex_constants10error_typeE2EEEvv, symObjAddr: 0x26E34, symBinAddr: 0x2797C, symSize: 0x4C }
  - { offset: 0xEFA45, size: 0x8, addend: 0x0, symName: __ZNKSt3__112basic_stringIcNS_11char_traitsIcEENS_9allocatorIcEEE20__throw_out_of_rangeB8ne190102Ev, symObjAddr: 0x2B0F4, symBinAddr: 0x2BC3C, symSize: 0x14 }
  - { offset: 0xEFA6F, size: 0x8, addend: 0x0, symName: '__ZZ38whisper_vad_init_from_file_with_paramsEN3$_08__invokeEPvS0_m', symObjAddr: 0x2B108, symBinAddr: 0x2BC50, symSize: 0x24 }
  - { offset: 0xEFA7A, size: 0x8, addend: 0x0, symName: __ZNKSt3__16vectorIiNS_9allocatorIiEEE20__throw_length_errorB8ne190102Ev, symObjAddr: 0x35260, symBinAddr: 0x35DA8, symSize: 0x14 }
  - { offset: 0xEFAA4, size: 0x8, addend: 0x0, symName: '__ZNSt3__110__function6__funcIZ18whisper_init_stateE3$_0NS_9allocatorIS2_EEFP11ggml_cgraphvEED1Ev', symObjAddr: 0x35274, symBinAddr: 0x35DBC, symSize: 0x4 }
  - { offset: 0xEFAAF, size: 0x8, addend: 0x0, symName: __ZNSt3__111basic_regexIcNS_12regex_traitsIcEEED1Ev, symObjAddr: 0x1FC54, symBinAddr: 0x2079C, symSize: 0x5C }
  - { offset: 0xEFBBA, size: 0x8, addend: 0x0, symName: _whisper_token_count, symObjAddr: 0x73A8, symBinAddr: 0x7EF0, symSize: 0x20 }
  - { offset: 0xEFC8D, size: 0x8, addend: 0x0, symName: _whisper_lang_max_id, symObjAddr: 0x73C8, symBinAddr: 0x7F10, symSize: 0x74 }
  - { offset: 0xEFCAB, size: 0x8, addend: 0x0, symName: _whisper_lang_max_id, symObjAddr: 0x73C8, symBinAddr: 0x7F10, symSize: 0x74 }
  - { offset: 0xEFCDB, size: 0x8, addend: 0x0, symName: _whisper_lang_max_id, symObjAddr: 0x73C8, symBinAddr: 0x7F10, symSize: 0x74 }
  - { offset: 0xEFCFB, size: 0x8, addend: 0x0, symName: _whisper_lang_max_id, symObjAddr: 0x73C8, symBinAddr: 0x7F10, symSize: 0x74 }
  - { offset: 0xF0011, size: 0x8, addend: 0x0, symName: _whisper_lang_id, symObjAddr: 0x743C, symBinAddr: 0x7F84, symSize: 0x458 }
  - { offset: 0xF122D, size: 0x8, addend: 0x0, symName: _whisper_lang_str_full, symObjAddr: 0x7950, symBinAddr: 0x8498, symSize: 0xBC }
  - { offset: 0xF18EA, size: 0x8, addend: 0x0, symName: _whisper_lang_auto_detect_with_state, symObjAddr: 0x7A0C, symBinAddr: 0x8554, symSize: 0x584 }
  - { offset: 0xF28B9, size: 0x8, addend: 0x0, symName: _whisper_token_sot, symObjAddr: 0x7F90, symBinAddr: 0x8AD8, symSize: 0x8 }
  - { offset: 0xF28D8, size: 0x8, addend: 0x0, symName: _whisper_token_lang, symObjAddr: 0x7F98, symBinAddr: 0x8AE0, symSize: 0x10 }
  - { offset: 0xF2902, size: 0x8, addend: 0x0, symName: _whisper_token_lang, symObjAddr: 0x7F98, symBinAddr: 0x8AE0, symSize: 0x10 }
  - { offset: 0xF291E, size: 0x8, addend: 0x0, symName: _whisper_lang_auto_detect, symObjAddr: 0x7FA8, symBinAddr: 0x8AF0, symSize: 0x14 }
  - { offset: 0xF29AB, size: 0x8, addend: 0x0, symName: _whisper_model_n_vocab, symObjAddr: 0x7FBC, symBinAddr: 0x8B04, symSize: 0x8 }
  - { offset: 0xF29D8, size: 0x8, addend: 0x0, symName: _whisper_model_n_audio_ctx, symObjAddr: 0x7FC4, symBinAddr: 0x8B0C, symSize: 0x8 }
  - { offset: 0xF2A05, size: 0x8, addend: 0x0, symName: _whisper_model_n_audio_state, symObjAddr: 0x7FCC, symBinAddr: 0x8B14, symSize: 0x8 }
  - { offset: 0xF2A32, size: 0x8, addend: 0x0, symName: _whisper_model_n_audio_head, symObjAddr: 0x7FD4, symBinAddr: 0x8B1C, symSize: 0x8 }
  - { offset: 0xF2A5F, size: 0x8, addend: 0x0, symName: _whisper_model_n_audio_layer, symObjAddr: 0x7FDC, symBinAddr: 0x8B24, symSize: 0x8 }
  - { offset: 0xF2A8C, size: 0x8, addend: 0x0, symName: _whisper_model_n_text_ctx, symObjAddr: 0x7FE4, symBinAddr: 0x8B2C, symSize: 0x8 }
  - { offset: 0xF2AB9, size: 0x8, addend: 0x0, symName: _whisper_model_n_text_state, symObjAddr: 0x7FEC, symBinAddr: 0x8B34, symSize: 0x8 }
  - { offset: 0xF2AE6, size: 0x8, addend: 0x0, symName: _whisper_model_n_text_head, symObjAddr: 0x7FF4, symBinAddr: 0x8B3C, symSize: 0x8 }
  - { offset: 0xF2B13, size: 0x8, addend: 0x0, symName: _whisper_model_n_text_layer, symObjAddr: 0x7FFC, symBinAddr: 0x8B44, symSize: 0x8 }
  - { offset: 0xF2B40, size: 0x8, addend: 0x0, symName: _whisper_model_n_mels, symObjAddr: 0x8004, symBinAddr: 0x8B4C, symSize: 0x8 }
  - { offset: 0xF2B6D, size: 0x8, addend: 0x0, symName: _whisper_model_ftype, symObjAddr: 0x800C, symBinAddr: 0x8B54, symSize: 0x8 }
  - { offset: 0xF2B9A, size: 0x8, addend: 0x0, symName: _whisper_model_type, symObjAddr: 0x8014, symBinAddr: 0x8B5C, symSize: 0x8 }
  - { offset: 0xF2BC7, size: 0x8, addend: 0x0, symName: _whisper_model_type_readable, symObjAddr: 0x801C, symBinAddr: 0x8B64, symSize: 0x2C }
  - { offset: 0xF2BF4, size: 0x8, addend: 0x0, symName: _whisper_n_len_from_state, symObjAddr: 0x8048, symBinAddr: 0x8B90, symSize: 0x8 }
  - { offset: 0xF2C13, size: 0x8, addend: 0x0, symName: _whisper_n_len, symObjAddr: 0x8050, symBinAddr: 0x8B98, symSize: 0xC }
  - { offset: 0xF2C40, size: 0x8, addend: 0x0, symName: _whisper_n_vocab, symObjAddr: 0x805C, symBinAddr: 0x8BA4, symSize: 0x8 }
  - { offset: 0xF2C6D, size: 0x8, addend: 0x0, symName: _whisper_n_text_ctx, symObjAddr: 0x8064, symBinAddr: 0x8BAC, symSize: 0x8 }
  - { offset: 0xF2C8C, size: 0x8, addend: 0x0, symName: _whisper_n_audio_ctx, symObjAddr: 0x806C, symBinAddr: 0x8BB4, symSize: 0x8 }
  - { offset: 0xF2CAB, size: 0x8, addend: 0x0, symName: _whisper_is_multilingual, symObjAddr: 0x8074, symBinAddr: 0x8BBC, symSize: 0x14 }
  - { offset: 0xF2CCD, size: 0x8, addend: 0x0, symName: _whisper_is_multilingual, symObjAddr: 0x8074, symBinAddr: 0x8BBC, symSize: 0x14 }
  - { offset: 0xF2CEC, size: 0x8, addend: 0x0, symName: _whisper_get_logits, symObjAddr: 0x8088, symBinAddr: 0x8BD0, symSize: 0xC }
  - { offset: 0xF2D3C, size: 0x8, addend: 0x0, symName: _whisper_get_logits_from_state, symObjAddr: 0x8094, symBinAddr: 0x8BDC, symSize: 0x8 }
  - { offset: 0xF2D6C, size: 0x8, addend: 0x0, symName: _whisper_get_logits_from_state, symObjAddr: 0x8094, symBinAddr: 0x8BDC, symSize: 0x8 }
  - { offset: 0xF2DEC, size: 0x8, addend: 0x0, symName: _whisper_token_to_str, symObjAddr: 0x809C, symBinAddr: 0x8BE4, symSize: 0x60 }
  - { offset: 0xF2F6C, size: 0x8, addend: 0x0, symName: _whisper_token_eot, symObjAddr: 0x80FC, symBinAddr: 0x8C44, symSize: 0x8 }
  - { offset: 0xF2F8B, size: 0x8, addend: 0x0, symName: _whisper_token_solm, symObjAddr: 0x8104, symBinAddr: 0x8C4C, symSize: 0x8 }
  - { offset: 0xF2FAA, size: 0x8, addend: 0x0, symName: _whisper_token_prev, symObjAddr: 0x810C, symBinAddr: 0x8C54, symSize: 0x8 }
  - { offset: 0xF2FC9, size: 0x8, addend: 0x0, symName: _whisper_token_nosp, symObjAddr: 0x8114, symBinAddr: 0x8C5C, symSize: 0x8 }
  - { offset: 0xF2FE8, size: 0x8, addend: 0x0, symName: _whisper_token_not, symObjAddr: 0x811C, symBinAddr: 0x8C64, symSize: 0x8 }
  - { offset: 0xF3007, size: 0x8, addend: 0x0, symName: _whisper_token_beg, symObjAddr: 0x8124, symBinAddr: 0x8C6C, symSize: 0x8 }
  - { offset: 0xF3026, size: 0x8, addend: 0x0, symName: _whisper_token_translate, symObjAddr: 0x812C, symBinAddr: 0x8C74, symSize: 0x8 }
  - { offset: 0xF3045, size: 0x8, addend: 0x0, symName: _whisper_token_transcribe, symObjAddr: 0x8134, symBinAddr: 0x8C7C, symSize: 0x8 }
  - { offset: 0xF3064, size: 0x8, addend: 0x0, symName: _whisper_get_timings, symObjAddr: 0x813C, symBinAddr: 0x8C84, symSize: 0x9C }
  - { offset: 0xF3167, size: 0x8, addend: 0x0, symName: _whisper_print_timings, symObjAddr: 0x81D8, symBinAddr: 0x8D20, symSize: 0x2A0 }
  - { offset: 0xF340B, size: 0x8, addend: 0x0, symName: _whisper_reset_timings, symObjAddr: 0x8478, symBinAddr: 0x8FC0, symSize: 0x3C }
  - { offset: 0xF34E3, size: 0x8, addend: 0x0, symName: _whisper_print_system_info.cold.1, symObjAddr: 0x3A408, symBinAddr: 0x164C74, symSize: 0x50 }
  - { offset: 0xF356C, size: 0x8, addend: 0x0, symName: _whisper_vad_default_context_params, symObjAddr: 0x884C, symBinAddr: 0x9394, symSize: 0xC }
  - { offset: 0xF3599, size: 0x8, addend: 0x0, symName: _whisper_vad_default_params, symObjAddr: 0x8858, symBinAddr: 0x93A0, symSize: 0x1C }
  - { offset: 0xF35B7, size: 0x8, addend: 0x0, symName: _whisper_vad_init_from_file_with_params, symObjAddr: 0x8874, symBinAddr: 0x93BC, symSize: 0x190 }
  - { offset: 0xF37CC, size: 0x8, addend: 0x0, symName: _whisper_vad_init_with_params, symObjAddr: 0x8A04, symBinAddr: 0x954C, symSize: 0x1868 }
  - { offset: 0xFA419, size: 0x8, addend: 0x0, symName: '__ZZ28whisper_vad_init_with_paramsENK3$_1clE10vad_tensorP11ggml_tensor', symObjAddr: 0xA618, symBinAddr: 0xB160, symSize: 0x6F0 }
  - { offset: 0xFC43D, size: 0x8, addend: 0x0, symName: __ZNKSt3__16vectorINS_4pairIP19ggml_backend_deviceP24ggml_backend_buffer_typeEENS_9allocatorIS6_EEE20__throw_length_errorB8ne190102Ev, symObjAddr: 0x1CB9C, symBinAddr: 0x1D6E4, symSize: 0x14 }
  - { offset: 0xFC467, size: 0x8, addend: 0x0, symName: __ZNKSt3__16vectorIP12ggml_contextNS_9allocatorIS2_EEE20__throw_length_errorB8ne190102Ev, symObjAddr: 0x1CBB0, symBinAddr: 0x1D6F8, symSize: 0x14 }
  - { offset: 0xFD61C, size: 0x8, addend: 0x0, symName: __ZNKSt3__13mapI10vad_tensorPKcNS_4lessIS1_EENS_9allocatorINS_4pairIKS1_S3_EEEEE2atERS8_, symObjAddr: 0x2B18C, symBinAddr: 0x2BCD4, symSize: 0x54 }
  - { offset: 0xFD71F, size: 0x8, addend: 0x0, symName: __ZL6formatPKcz, symObjAddr: 0x1C968, symBinAddr: 0x1D4B0, symSize: 0x158 }
  - { offset: 0xFDDE2, size: 0x8, addend: 0x0, symName: __ZNKSt3__16vectorIP12ggml_contextNS_9allocatorIS2_EEE20__throw_length_errorB8ne190102Ev, symObjAddr: 0x1CBB0, symBinAddr: 0x1D6F8, symSize: 0x14 }
  - { offset: 0xFDE0C, size: 0x8, addend: 0x0, symName: __ZN15whisper_contextD2Ev, symObjAddr: 0x1CBC4, symBinAddr: 0x1D70C, symSize: 0xA4 }
  - { offset: 0xFDE17, size: 0x8, addend: 0x0, symName: __ZNSt3__110unique_ptrI12ggml_context20ggml_context_deleterED1B8ne190102Ev, symObjAddr: 0x1CB68, symBinAddr: 0x1D6B0, symSize: 0x34 }
  - { offset: 0xFDEB5, size: 0x8, addend: 0x0, symName: _whisper_vad_reset_state, symObjAddr: 0xAE1C, symBinAddr: 0xB964, symSize: 0xC }
  - { offset: 0xFE14B, size: 0x8, addend: 0x0, symName: _whisper_vad_detect_speech_no_reset, symObjAddr: 0xAE28, symBinAddr: 0xB970, symSize: 0x420 }
  - { offset: 0xFF18E, size: 0x8, addend: 0x0, symName: __ZL23whisper_vad_build_graphR19whisper_vad_context, symObjAddr: 0xB248, symBinAddr: 0xBD90, symSize: 0x4E0 }
  - { offset: 0xFFEE4, size: 0x8, addend: 0x0, symName: _whisper_vad_detect_speech, symObjAddr: 0xB7FC, symBinAddr: 0xC344, symSize: 0x44 }
  - { offset: 0xFFF75, size: 0x8, addend: 0x0, symName: _whisper_vad_segments_n_segments, symObjAddr: 0xB840, symBinAddr: 0xC388, symSize: 0x10 }
  - { offset: 0xFFFA5, size: 0x8, addend: 0x0, symName: _whisper_vad_segments_n_segments, symObjAddr: 0xB840, symBinAddr: 0xC388, symSize: 0x10 }
  - { offset: 0xFFFEB, size: 0x8, addend: 0x0, symName: _whisper_vad_segments_get_segment_t0, symObjAddr: 0xB850, symBinAddr: 0xC398, symSize: 0x14 }
  - { offset: 0x100028, size: 0x8, addend: 0x0, symName: _whisper_vad_segments_get_segment_t0, symObjAddr: 0xB850, symBinAddr: 0xC398, symSize: 0x14 }
  - { offset: 0x100044, size: 0x8, addend: 0x0, symName: _whisper_vad_segments_get_segment_t1, symObjAddr: 0xB864, symBinAddr: 0xC3AC, symSize: 0x14 }
  - { offset: 0x100081, size: 0x8, addend: 0x0, symName: _whisper_vad_segments_get_segment_t1, symObjAddr: 0xB864, symBinAddr: 0xC3AC, symSize: 0x14 }
  - { offset: 0x10009D, size: 0x8, addend: 0x0, symName: _whisper_vad_n_probs, symObjAddr: 0xB878, symBinAddr: 0xC3C0, symSize: 0x10 }
  - { offset: 0x1000BF, size: 0x8, addend: 0x0, symName: _whisper_vad_n_probs, symObjAddr: 0xB878, symBinAddr: 0xC3C0, symSize: 0x10 }
  - { offset: 0x1000DE, size: 0x8, addend: 0x0, symName: _whisper_vad_probs, symObjAddr: 0xB888, symBinAddr: 0xC3D0, symSize: 0x8 }
  - { offset: 0x10010E, size: 0x8, addend: 0x0, symName: _whisper_vad_probs, symObjAddr: 0xB888, symBinAddr: 0xC3D0, symSize: 0x8 }
  - { offset: 0x1007D1, size: 0x8, addend: 0x0, symName: __ZNSt3__16vectorI19whisper_vad_segmentNS_9allocatorIS1_EEE8__appendEm, symObjAddr: 0x36A4C, symBinAddr: 0x37594, symSize: 0x124 }
  - { offset: 0x100C15, size: 0x8, addend: 0x0, symName: __ZNKSt3__16vectorI19whisper_vad_segmentNS_9allocatorIS1_EEE20__throw_length_errorB8ne190102Ev, symObjAddr: 0x36B70, symBinAddr: 0x376B8, symSize: 0x14 }
  - { offset: 0x100C20, size: 0x8, addend: 0x0, symName: __ZNKSt3__16vectorIZ31whisper_vad_segments_from_probsE16speech_segment_tNS_9allocatorIS1_EEE20__throw_length_errorB8ne190102Ev, symObjAddr: 0x36A38, symBinAddr: 0x37580, symSize: 0x14 }
  - { offset: 0x100C46, size: 0x8, addend: 0x0, symName: __ZNSt3__16vectorI19whisper_vad_segmentNS_9allocatorIS1_EEE8__appendEm, symObjAddr: 0x36A4C, symBinAddr: 0x37594, symSize: 0x124 }
  - { offset: 0x100C84, size: 0x8, addend: 0x0, symName: _whisper_vad_segments_from_samples, symObjAddr: 0xC338, symBinAddr: 0xCE80, symSize: 0xC8 }
  - { offset: 0x100DF8, size: 0x8, addend: 0x0, symName: _whisper_vad_free_segments, symObjAddr: 0xC400, symBinAddr: 0xCF48, symSize: 0x3C }
  - { offset: 0x100FB7, size: 0x8, addend: 0x0, symName: _whisper_context_default_params_by_ref, symObjAddr: 0xC43C, symBinAddr: 0xCF84, symSize: 0x44 }
  - { offset: 0x10101D, size: 0x8, addend: 0x0, symName: _whisper_full_default_params_by_ref, symObjAddr: 0xC480, symBinAddr: 0xCFC8, symSize: 0x1B0 }
  - { offset: 0x1010C3, size: 0x8, addend: 0x0, symName: _whisper_full_default_params, symObjAddr: 0xC630, symBinAddr: 0xD178, symSize: 0x168 }
  - { offset: 0x101105, size: 0x8, addend: 0x0, symName: __ZNSt3__16vectorINS_12basic_stringIcNS_11char_traitsIcEENS_9allocatorIcEEEENS4_IS6_EEED1B8ne190102Ev, symObjAddr: 0xC798, symBinAddr: 0xD2E0, symSize: 0x70 }
  - { offset: 0x106EE3, size: 0x8, addend: 0x0, symName: __ZNSt3__16vectorIiNS_9allocatorIiEEE18__assign_with_sizeB8ne190102IPKiS6_EEvT_T0_l, symObjAddr: 0x37234, symBinAddr: 0x37D7C, symSize: 0x14C }
  - { offset: 0x1079F0, size: 0x8, addend: 0x0, symName: __ZNSt3__18__rotateB8ne190102INS_17_ClassicAlgPolicyENS_11__wrap_iterIPiEES4_EENS_4pairIT0_S6_EES6_S6_T1_, symObjAddr: 0x37380, symBinAddr: 0x37EC8, symSize: 0x1B8 }
  - { offset: 0x107A15, size: 0x8, addend: 0x0, symName: __ZNSt3__16vectorIiNS_9allocatorIiEEE8__appendEm, symObjAddr: 0x37110, symBinAddr: 0x37C58, symSize: 0x124 }
  - { offset: 0x107E59, size: 0x8, addend: 0x0, symName: __ZNSt3__16vectorIiNS_9allocatorIiEEE18__assign_with_sizeB8ne190102IPKiS6_EEvT_T0_l, symObjAddr: 0x37234, symBinAddr: 0x37D7C, symSize: 0x14C }
  - { offset: 0x107E64, size: 0x8, addend: 0x0, symName: __ZNSt3__16vectorIiNS_9allocatorIiEEE6resizeEm, symObjAddr: 0x135D0, symBinAddr: 0x14118, symSize: 0x2C }
  - { offset: 0x107E9C, size: 0x8, addend: 0x0, symName: __ZNSt3__16vectorIiNS_9allocatorIiEEE6resizeEm, symObjAddr: 0x135D0, symBinAddr: 0x14118, symSize: 0x2C }
  - { offset: 0x107F14, size: 0x8, addend: 0x0, symName: __ZL29whisper_grammar_advance_stackRKNSt3__16vectorINS0_I23whisper_grammar_elementNS_9allocatorIS1_EEEENS2_IS4_EEEERKNS0_IPKS1_NS2_ISA_EEEERNS0_ISC_NS2_ISC_EEEE, symObjAddr: 0x2B384, symBinAddr: 0x2BECC, symSize: 0x438 }
  - { offset: 0x1097D2, size: 0x8, addend: 0x0, symName: __ZNSt3__16vectorIiNS_9allocatorIiEEE18__insert_with_sizeB8ne190102INS_11__wrap_iterIPiEES7_EES7_NS5_IPKiEET_T0_l, symObjAddr: 0x376AC, symBinAddr: 0x381F4, symSize: 0x2EC }
  - { offset: 0x10A29F, size: 0x8, addend: 0x0, symName: '__ZNSt3__114__thread_proxyB8ne190102INS_5tupleIJNS_10unique_ptrINS_15__thread_structENS_14default_deleteIS3_EEEEZ23whisper_full_with_stateE3$_0EEEEEPvS9_', symObjAddr: 0x37998, symBinAddr: 0x384E0, symSize: 0x78 }
  - { offset: 0x10A2BC, size: 0x8, addend: 0x0, symName: __ZL22whisper_process_logitsR15whisper_contextR13whisper_stateR15whisper_decoder19whisper_full_paramsf, symObjAddr: 0x13714, symBinAddr: 0x1425C, symSize: 0x1884 }
  - { offset: 0x10F1C4, size: 0x8, addend: 0x0, symName: '__ZZ23whisper_full_with_stateENK3$_0clEv', symObjAddr: 0x14F98, symBinAddr: 0x15AE0, symSize: 0x15EC }
  - { offset: 0x1137B5, size: 0x8, addend: 0x0, symName: __ZNSt3__16vectorINS0_I23whisper_grammar_elementNS_9allocatorIS1_EEEENS2_IS4_EEE18__assign_with_sizeB8ne190102IPS4_S8_EEvT_T0_l, symObjAddr: 0x316A0, symBinAddr: 0x321E8, symSize: 0x260 }
  - { offset: 0x1143A2, size: 0x8, addend: 0x0, symName: __ZNSt3__16vectorINS0_IPK23whisper_grammar_elementNS_9allocatorIS3_EEEENS4_IS6_EEE18__assign_with_sizeB8ne190102IPS6_SA_EEvT_T0_l, symObjAddr: 0x31A4C, symBinAddr: 0x32594, symSize: 0x260 }
  - { offset: 0x114F8F, size: 0x8, addend: 0x0, symName: __ZNSt3__16vectorI18whisper_token_dataNS_9allocatorIS1_EEE8__appendEm, symObjAddr: 0x36B84, symBinAddr: 0x376CC, symSize: 0x1A8 }
  - { offset: 0x1153A4, size: 0x8, addend: 0x0, symName: __ZNSt3__16vectorI15whisper_segmentNS_9allocatorIS1_EEE21__push_back_slow_pathIS1_EEPS1_OT_, symObjAddr: 0x36D2C, symBinAddr: 0x37874, symSize: 0x1C8 }
  - { offset: 0x1153AF, size: 0x8, addend: 0x0, symName: __ZNSt3__16__treeINS_12__value_typeIiiEENS_19__map_value_compareIiS2_NS_4lessIiEELb1EEENS_9allocatorIS2_EEE7destroyEPNS_11__tree_nodeIS2_PvEE, symObjAddr: 0x31DF8, symBinAddr: 0x32940, symSize: 0x44 }
  - { offset: 0x1154F8, size: 0x8, addend: 0x0, symName: __ZL12to_timestampxb, symObjAddr: 0x165DC, symBinAddr: 0x17124, symSize: 0x174 }
  - { offset: 0x115857, size: 0x8, addend: 0x0, symName: __ZNSt3__16vectorI15whisper_segmentNS_9allocatorIS1_EEE21__push_back_slow_pathIS1_EEPS1_OT_, symObjAddr: 0x36D2C, symBinAddr: 0x37874, symSize: 0x1C8 }
  - { offset: 0x11619C, size: 0x8, addend: 0x0, symName: __ZNKSt3__16vectorI15whisper_segmentNS_9allocatorIS1_EEE20__throw_length_errorB8ne190102Ev, symObjAddr: 0x36EF4, symBinAddr: 0x37A3C, symSize: 0x14 }
  - { offset: 0x1161B0, size: 0x8, addend: 0x0, symName: __ZL42whisper_exp_compute_token_level_timestampsR15whisper_contextR13whisper_stateiff, symObjAddr: 0x167A0, symBinAddr: 0x172E8, symSize: 0x81C }
  - { offset: 0x116E8C, size: 0x8, addend: 0x0, symName: __ZL20whisper_wrap_segmentR15whisper_contextR13whisper_stateib, symObjAddr: 0x16FBC, symBinAddr: 0x17B04, symSize: 0x534 }
  - { offset: 0x116EA0, size: 0x8, addend: 0x0, symName: __ZL20whisper_wrap_segmentR15whisper_contextR13whisper_stateib, symObjAddr: 0x16FBC, symBinAddr: 0x17B04, symSize: 0x534 }
  - { offset: 0x118771, size: 0x8, addend: 0x0, symName: __ZNSt3__116allocator_traitsINS_9allocatorIZ23whisper_full_with_stateE14beam_candidateEEE7destroyB8ne190102IS2_Li0EEEvRS3_PT_, symObjAddr: 0x30F3C, symBinAddr: 0x31A84, symSize: 0xD8 }
  - { offset: 0x118F5C, size: 0x8, addend: 0x0, symName: __ZNSt3__16vectorINS0_IZ23whisper_full_with_stateE14beam_candidateNS_9allocatorIS1_EEEENS2_IS4_EEE16__destroy_vectorclB8ne190102Ev, symObjAddr: 0x37538, symBinAddr: 0x38080, symSize: 0x174 }
  - { offset: 0x1199A6, size: 0x8, addend: 0x0, symName: __ZNKSt3__16vectorI23whisper_grammar_elementNS_9allocatorIS1_EEE20__throw_length_errorB8ne190102Ev, symObjAddr: 0x2B93C, symBinAddr: 0x2C484, symSize: 0x14 }
  - { offset: 0x1199D0, size: 0x8, addend: 0x0, symName: __ZNKSt3__16vectorIPK23whisper_grammar_elementNS_9allocatorIS3_EEE20__throw_length_errorB8ne190102Ev, symObjAddr: 0x2B950, symBinAddr: 0x2C498, symSize: 0x14 }
  - { offset: 0x1199DB, size: 0x8, addend: 0x0, symName: __ZNKSt3__16vectorIPK23whisper_grammar_elementNS_9allocatorIS3_EEE20__throw_length_errorB8ne190102Ev, symObjAddr: 0x2B950, symBinAddr: 0x2C498, symSize: 0x14 }
  - { offset: 0x119A05, size: 0x8, addend: 0x0, symName: __ZNSt3__114__split_bufferINS_6vectorIPK23whisper_grammar_elementNS_9allocatorIS4_EEEERNS5_IS7_EEED1Ev, symObjAddr: 0x2B964, symBinAddr: 0x2C4AC, symSize: 0x6C }
  - { offset: 0x119A18, size: 0x8, addend: 0x0, symName: __ZNKSt3__16vectorINS0_I23whisper_grammar_elementNS_9allocatorIS1_EEEENS2_IS4_EEE20__throw_length_errorB8ne190102Ev, symObjAddr: 0x2B928, symBinAddr: 0x2C470, symSize: 0x14 }
  - { offset: 0x119A42, size: 0x8, addend: 0x0, symName: __ZNKSt3__16vectorI23whisper_grammar_elementNS_9allocatorIS1_EEE20__throw_length_errorB8ne190102Ev, symObjAddr: 0x2B93C, symBinAddr: 0x2C484, symSize: 0x14 }
  - { offset: 0x119A4D, size: 0x8, addend: 0x0, symName: __ZNKSt3__16vectorINS0_IPK23whisper_grammar_elementNS_9allocatorIS3_EEEENS4_IS6_EEE20__throw_length_errorB8ne190102Ev, symObjAddr: 0x2B9D0, symBinAddr: 0x2C518, symSize: 0x14 }
  - { offset: 0x119A77, size: 0x8, addend: 0x0, symName: __ZNSt3__16vectorINS0_IPK23whisper_grammar_elementNS_9allocatorIS3_EEEENS4_IS6_EEE21__push_back_slow_pathIRKS6_EEPS6_OT_, symObjAddr: 0x2B9E4, symBinAddr: 0x2C52C, symSize: 0x17C }
  - { offset: 0x119A82, size: 0x8, addend: 0x0, symName: __ZNKSt3__16vectorIZ23whisper_full_with_stateE14beam_candidateNS_9allocatorIS1_EEE20__throw_length_errorB8ne190102Ev, symObjAddr: 0x30F28, symBinAddr: 0x31A70, symSize: 0x14 }
  - { offset: 0x119AA8, size: 0x8, addend: 0x0, symName: __ZNSt3__116allocator_traitsINS_9allocatorIZ23whisper_full_with_stateE14beam_candidateEEE7destroyB8ne190102IS2_Li0EEEvRS3_PT_, symObjAddr: 0x30F3C, symBinAddr: 0x31A84, symSize: 0xD8 }
  - { offset: 0x119AB3, size: 0x8, addend: 0x0, symName: __ZN15whisper_segmentD1Ev, symObjAddr: 0x16750, symBinAddr: 0x17298, symSize: 0x50 }
  - { offset: 0x119D74, size: 0x8, addend: 0x0, symName: __ZNSt3__110unique_ptrI12ggml_backend20ggml_backend_deleterED1B8ne190102Ev, symObjAddr: 0x33018, symBinAddr: 0x33B60, symSize: 0x34 }
  - { offset: 0x119E12, size: 0x8, addend: 0x0, symName: __ZNSt3__128__exception_guard_exceptionsINS_6vectorINS1_I23whisper_grammar_elementNS_9allocatorIS2_EEEENS3_IS5_EEE16__destroy_vectorEED1B8ne190102Ev, symObjAddr: 0x2B8A4, symBinAddr: 0x2C3EC, symSize: 0x84 }
  - { offset: 0x11A0E3, size: 0x8, addend: 0x0, symName: '__ZNSt3__110unique_ptrINS_5tupleIJNS0_INS_15__thread_structENS_14default_deleteIS2_EEEEZ23whisper_full_with_stateE3$_2EEENS3_IS7_EEED1B8ne190102Ev', symObjAddr: 0x3A024, symBinAddr: 0x3AB6C, symSize: 0x48 }
  - { offset: 0x11A2A7, size: 0x8, addend: 0x0, symName: __ZNSt3__110unique_ptrINS_15__thread_structENS_14default_deleteIS1_EEED1B8ne190102Ev, symObjAddr: 0x1E254, symBinAddr: 0x1ED9C, symSize: 0x3C }
  - { offset: 0x11A348, size: 0x8, addend: 0x0, symName: '__ZNSt3__110unique_ptrINS_5tupleIJNS0_INS_15__thread_structENS_14default_deleteIS2_EEEEZ23whisper_full_with_stateE3$_0EEENS3_IS7_EEED1B8ne190102Ev', symObjAddr: 0x37A10, symBinAddr: 0x38558, symSize: 0x48 }
  - { offset: 0x11A50C, size: 0x8, addend: 0x0, symName: _whisper_full_with_state.cold.2, symObjAddr: 0x3A4A0, symBinAddr: 0x164D0C, symSize: 0x48 }
  - { offset: 0x11A669, size: 0x8, addend: 0x0, symName: __ZNSt3__16vectorINS0_IPK23whisper_grammar_elementNS_9allocatorIS3_EEEENS4_IS6_EEED1B8ne190102Ev, symObjAddr: 0x2B7BC, symBinAddr: 0x2C304, symSize: 0x74 }
  - { offset: 0x11A934, size: 0x8, addend: 0x0, symName: __ZNSt3__128__exception_guard_exceptionsINS_6vectorINS1_IPK23whisper_grammar_elementNS_9allocatorIS4_EEEENS5_IS7_EEE16__destroy_vectorEED1B8ne190102Ev, symObjAddr: 0x31324, symBinAddr: 0x31E6C, symSize: 0x84 }
  - { offset: 0x11AC05, size: 0x8, addend: 0x0, symName: __ZNSt3__16vectorINS0_I23whisper_grammar_elementNS_9allocatorIS1_EEEENS2_IS4_EEED1B8ne190102Ev, symObjAddr: 0x2B830, symBinAddr: 0x2C378, symSize: 0x74 }
  - { offset: 0x11AED0, size: 0x8, addend: 0x0, symName: _whisper_full_with_state.cold.1, symObjAddr: 0x3A458, symBinAddr: 0x164CC4, symSize: 0x48 }
  - { offset: 0x11B110, size: 0x8, addend: 0x0, symName: _whisper_full_with_state.cold.3, symObjAddr: 0x3A4E8, symBinAddr: 0x164D54, symSize: 0x48 }
  - { offset: 0x11B256, size: 0x8, addend: 0x0, symName: __ZNSt3__16vectorIZ23whisper_full_with_stateE14beam_candidateNS_9allocatorIS1_EEED1B8ne190102Ev, symObjAddr: 0x174F0, symBinAddr: 0x18038, symSize: 0x60 }
  - { offset: 0x11B3AC, size: 0x8, addend: 0x0, symName: __ZN15whisper_grammaraSEOS_, symObjAddr: 0x135FC, symBinAddr: 0x14144, symSize: 0x118 }
  - { offset: 0x11C6F8, size: 0x8, addend: 0x0, symName: __ZNSt3__111basic_regexIcNS_12regex_traitsIcEEEC2B8ne190102EPKcNS_15regex_constants18syntax_option_typeE, symObjAddr: 0x2BB60, symBinAddr: 0x2C6A8, symSize: 0xC8 }
  - { offset: 0x11C8D1, size: 0x8, addend: 0x0, symName: __ZL33whisper_grammar_reject_candidatesRKNSt3__16vectorINS0_I23whisper_grammar_elementNS_9allocatorIS1_EEEENS2_IS4_EEEERKNS0_INS0_IPKS1_NS2_ISA_EEEENS2_ISC_EEEERKNS0_I25whisper_grammar_candidateNS2_ISH_EEEE, symObjAddr: 0x2FB88, symBinAddr: 0x306D0, symSize: 0x100 }
  - { offset: 0x11CD1B, size: 0x8, addend: 0x0, symName: __ZL22whisper_process_logitsR15whisper_contextR13whisper_stateR15whisper_decoder19whisper_full_paramsf.cold.1, symObjAddr: 0x3A530, symBinAddr: 0x164D9C, symSize: 0x38 }
  - { offset: 0x11CD33, size: 0x8, addend: 0x0, symName: __ZNKSt3__16vectorI25whisper_grammar_candidateNS_9allocatorIS1_EEE20__throw_length_errorB8ne190102Ev, symObjAddr: 0x2FD10, symBinAddr: 0x30858, symSize: 0x14 }
  - { offset: 0x11CD5D, size: 0x8, addend: 0x0, symName: __ZL43whisper_grammar_reject_candidates_for_stackRKNSt3__16vectorINS0_I23whisper_grammar_elementNS_9allocatorIS1_EEEENS2_IS4_EEEERKNS0_IPKS1_NS2_ISA_EEEERKNS0_I25whisper_grammar_candidateNS2_ISF_EEEE, symObjAddr: 0x2FD24, symBinAddr: 0x3086C, symSize: 0xAD4 }
  - { offset: 0x11CD68, size: 0x8, addend: 0x0, symName: __ZNKSt3__16vectorINS_4pairINS0_IjNS_9allocatorIjEEEE20whisper_partial_utf8EENS2_IS6_EEE20__throw_length_errorB8ne190102Ev, symObjAddr: 0x2FCFC, symBinAddr: 0x30844, symSize: 0x14 }
  - { offset: 0x11CD92, size: 0x8, addend: 0x0, symName: __ZNKSt3__16vectorI25whisper_grammar_candidateNS_9allocatorIS1_EEE20__throw_length_errorB8ne190102Ev, symObjAddr: 0x2FD10, symBinAddr: 0x30858, symSize: 0x14 }
  - { offset: 0x11CD9D, size: 0x8, addend: 0x0, symName: __ZNSt3__16vectorINS_4pairINS0_IjNS_9allocatorIjEEEE20whisper_partial_utf8EENS2_IS6_EEED1B8ne190102Ev, symObjAddr: 0x2FC88, symBinAddr: 0x307D0, symSize: 0x74 }
  - { offset: 0x11DB69, size: 0x8, addend: 0x0, symName: __ZNSt3__16vectorI12whisper_pairIdiENS_9allocatorIS2_EEE8__appendEm, symObjAddr: 0x30D2C, symBinAddr: 0x31874, symSize: 0x1E8 }
  - { offset: 0x11E070, size: 0x8, addend: 0x0, symName: __ZNKSt3__16vectorI12whisper_pairIdiENS_9allocatorIS2_EEE20__throw_length_errorB8ne190102Ev, symObjAddr: 0x30F14, symBinAddr: 0x31A5C, symSize: 0x14 }
  - { offset: 0x11E07B, size: 0x8, addend: 0x0, symName: __ZNSt3__121discrete_distributionIiE10param_type6__initEv, symObjAddr: 0x308DC, symBinAddr: 0x31424, symSize: 0x220 }
  - { offset: 0x11E6BB, size: 0x8, addend: 0x0, symName: __ZNSt3__121discrete_distributionIiEclINS_23mersenne_twister_engineIjLm32ELm624ELm397ELm31ELj2567483615ELm11ELj4294967295ELm7ELj2636928640ELm15ELj4022730752ELm18ELj1812433253EEEEEiRT_RKNS1_10param_typeE, symObjAddr: 0x30BC8, symBinAddr: 0x31710, symSize: 0x164 }
  - { offset: 0x11E711, size: 0x8, addend: 0x0, symName: __ZNSt3__121discrete_distributionIiEclINS_23mersenne_twister_engineIjLm32ELm624ELm397ELm31ELj2567483615ELm11ELj4294967295ELm7ELj2636928640ELm15ELj4022730752ELm18ELj1812433253EEEEEiRT_RKNS1_10param_typeE, symObjAddr: 0x30BC8, symBinAddr: 0x31710, symSize: 0x164 }
  - { offset: 0x11E9E5, size: 0x8, addend: 0x0, symName: __ZN15whisper_grammarC2ERKS_, symObjAddr: 0x31014, symBinAddr: 0x31B5C, symSize: 0x1A8 }
  - { offset: 0x11EFFD, size: 0x8, addend: 0x0, symName: __ZNKSt3__16vectorIdNS_9allocatorIdEEE20__throw_length_errorB8ne190102Ev, symObjAddr: 0x30AFC, symBinAddr: 0x31644, symSize: 0x14 }
  - { offset: 0x11F027, size: 0x8, addend: 0x0, symName: __ZNSt3__16vectorIdNS_9allocatorIdEEE13shrink_to_fitEv, symObjAddr: 0x30B10, symBinAddr: 0x31658, symSize: 0xB8 }
  - { offset: 0x11F032, size: 0x8, addend: 0x0, symName: __ZZ23whisper_full_with_stateEN14beam_candidateD1Ev, symObjAddr: 0x307F8, symBinAddr: 0x31340, symSize: 0xD0 }
  - { offset: 0x11FA5A, size: 0x8, addend: 0x0, symName: __ZNSt3__16vectorI18whisper_token_dataNS_9allocatorIS1_EEE18__insert_with_sizeB8ne190102INS_11__wrap_iterIPS1_EES8_EES8_NS6_IPKS1_EET_T0_l, symObjAddr: 0x31E3C, symBinAddr: 0x32984, symSize: 0x26C }
  - { offset: 0x120533, size: 0x8, addend: 0x0, symName: __ZNKSt3__16vectorIN13whisper_state16vad_segment_infoENS_9allocatorIS2_EEE20__throw_length_errorB8ne190102Ev, symObjAddr: 0x320A8, symBinAddr: 0x32BF0, symSize: 0x14 }
  - { offset: 0x120550, size: 0x8, addend: 0x0, symName: __ZNSt3__16vectorI18whisper_token_dataNS_9allocatorIS1_EEE18__assign_with_sizeB8ne190102IPS1_S6_EEvT_T0_l, symObjAddr: 0x31510, symBinAddr: 0x32058, symSize: 0x190 }
  - { offset: 0x121058, size: 0x8, addend: 0x0, symName: __ZNSt3__16vectorINS0_I23whisper_grammar_elementNS_9allocatorIS1_EEEENS2_IS4_EEE18__assign_with_sizeB8ne190102IPS4_S8_EEvT_T0_l, symObjAddr: 0x316A0, symBinAddr: 0x321E8, symSize: 0x260 }
  - { offset: 0x121081, size: 0x8, addend: 0x0, symName: _whisper_full, symObjAddr: 0x17550, symBinAddr: 0x18098, symSize: 0x198 }
  - { offset: 0x121860, size: 0x8, addend: 0x0, symName: __ZL11whisper_vadP15whisper_contextP13whisper_state19whisper_full_paramsPKfiRNSt3__16vectorIfNS6_9allocatorIfEEEE, symObjAddr: 0x176E8, symBinAddr: 0x18230, symSize: 0xBB0 }
  - { offset: 0x124841, size: 0x8, addend: 0x0, symName: __ZNKSt3__16vectorI16vad_time_mappingNS_9allocatorIS1_EEE20__throw_length_errorB8ne190102Ev, symObjAddr: 0x320BC, symBinAddr: 0x32C04, symSize: 0x14 }
  - { offset: 0x12486B, size: 0x8, addend: 0x0, symName: '__ZNSt3__111__introsortINS_17_ClassicAlgPolicyERZL11whisper_vadP15whisper_contextP13whisper_state19whisper_full_paramsPKfiRNS_6vectorIfNS_9allocatorIfEEEEE3$_0P16vad_time_mappingLb0EEEvT1_SI_T0_NS_15iterator_traitsISI_E15difference_typeEb', symObjAddr: 0x320D0, symBinAddr: 0x32C18, symSize: 0xAFC }
  - { offset: 0x124876, size: 0x8, addend: 0x0, symName: __ZNKSt3__16vectorIN13whisper_state16vad_segment_infoENS_9allocatorIS2_EEE20__throw_length_errorB8ne190102Ev, symObjAddr: 0x320A8, symBinAddr: 0x32BF0, symSize: 0x14 }
  - { offset: 0x1248A0, size: 0x8, addend: 0x0, symName: __ZNKSt3__16vectorI16vad_time_mappingNS_9allocatorIS1_EEE20__throw_length_errorB8ne190102Ev, symObjAddr: 0x320BC, symBinAddr: 0x32C04, symSize: 0x14 }
  - { offset: 0x124E03, size: 0x8, addend: 0x0, symName: _whisper_full_parallel, symObjAddr: 0x18298, symBinAddr: 0x18DE0, symSize: 0x7B8 }
  - { offset: 0x126703, size: 0x8, addend: 0x0, symName: __ZNSt3__16threadC2IRFiP15whisper_contextP13whisper_state19whisper_full_paramsPKfiEJRS3_RS5_S6_S8_RKiELi0EEEOT_DpOT0_, symObjAddr: 0x3A080, symBinAddr: 0x3ABC8, symSize: 0x128 }
  - { offset: 0x126D07, size: 0x8, addend: 0x0, symName: __ZNKSt3__16vectorIP13whisper_stateNS_9allocatorIS2_EEE20__throw_length_errorB8ne190102Ev, symObjAddr: 0x3A06C, symBinAddr: 0x3ABB4, symSize: 0x14 }
  - { offset: 0x126D31, size: 0x8, addend: 0x0, symName: __ZNSt3__16threadC2IRFiP15whisper_contextP13whisper_state19whisper_full_paramsPKfiEJRS3_RS5_S6_S8_RKiELi0EEEOT_DpOT0_, symObjAddr: 0x3A080, symBinAddr: 0x3ABC8, symSize: 0x128 }
  - { offset: 0x126D3C, size: 0x8, addend: 0x0, symName: _whisper_full_n_segments_from_state, symObjAddr: 0x18A50, symBinAddr: 0x19598, symSize: 0x20 }
  - { offset: 0x126D6C, size: 0x8, addend: 0x0, symName: _whisper_full_n_segments_from_state, symObjAddr: 0x18A50, symBinAddr: 0x19598, symSize: 0x20 }
  - { offset: 0x126D8C, size: 0x8, addend: 0x0, symName: _whisper_full_n_segments, symObjAddr: 0x18A70, symBinAddr: 0x195B8, symSize: 0x24 }
  - { offset: 0x126DDA, size: 0x8, addend: 0x0, symName: _whisper_full_lang_id_from_state, symObjAddr: 0x18A94, symBinAddr: 0x195DC, symSize: 0xC }
  - { offset: 0x126E07, size: 0x8, addend: 0x0, symName: _whisper_full_lang_id, symObjAddr: 0x18AA0, symBinAddr: 0x195E8, symSize: 0x10 }
  - { offset: 0x126F30, size: 0x8, addend: 0x0, symName: _whisper_full_get_segment_t0_from_state, symObjAddr: 0x18AB0, symBinAddr: 0x195F8, symSize: 0xCC }
  - { offset: 0x1271F3, size: 0x8, addend: 0x0, symName: _whisper_full_get_segment_t1_from_state, symObjAddr: 0x18B7C, symBinAddr: 0x196C4, symSize: 0x1A4 }
  - { offset: 0x127703, size: 0x8, addend: 0x0, symName: _whisper_full_get_segment_t0, symObjAddr: 0x18D20, symBinAddr: 0x19868, symSize: 0xD0 }
  - { offset: 0x1279BC, size: 0x8, addend: 0x0, symName: _whisper_full_get_segment_t1, symObjAddr: 0x18DF0, symBinAddr: 0x19938, symSize: 0x8 }
  - { offset: 0x127A0F, size: 0x8, addend: 0x0, symName: _whisper_full_get_segment_speaker_turn_next_from_state, symObjAddr: 0x18DF8, symBinAddr: 0x19940, symSize: 0x14 }
  - { offset: 0x127A4E, size: 0x8, addend: 0x0, symName: _whisper_full_get_segment_speaker_turn_next_from_state, symObjAddr: 0x18DF8, symBinAddr: 0x19940, symSize: 0x14 }
  - { offset: 0x127A6E, size: 0x8, addend: 0x0, symName: _whisper_full_get_segment_speaker_turn_next, symObjAddr: 0x18E0C, symBinAddr: 0x19954, symSize: 0x18 }
  - { offset: 0x127ACD, size: 0x8, addend: 0x0, symName: _whisper_full_get_segment_text_from_state, symObjAddr: 0x18E24, symBinAddr: 0x1996C, symSize: 0x24 }
  - { offset: 0x127B0C, size: 0x8, addend: 0x0, symName: _whisper_full_get_segment_text_from_state, symObjAddr: 0x18E24, symBinAddr: 0x1996C, symSize: 0x24 }
  - { offset: 0x127BB5, size: 0x8, addend: 0x0, symName: _whisper_full_get_segment_text, symObjAddr: 0x18E48, symBinAddr: 0x19990, symSize: 0x28 }
  - { offset: 0x127C9D, size: 0x8, addend: 0x0, symName: _whisper_full_n_tokens_from_state, symObjAddr: 0x18E70, symBinAddr: 0x199B8, symSize: 0x28 }
  - { offset: 0x127CDC, size: 0x8, addend: 0x0, symName: _whisper_full_n_tokens_from_state, symObjAddr: 0x18E70, symBinAddr: 0x199B8, symSize: 0x28 }
  - { offset: 0x127D1D, size: 0x8, addend: 0x0, symName: _whisper_full_n_tokens, symObjAddr: 0x18E98, symBinAddr: 0x199E0, symSize: 0x2C }
  - { offset: 0x127D9D, size: 0x8, addend: 0x0, symName: _whisper_full_get_token_text_from_state, symObjAddr: 0x18EC4, symBinAddr: 0x19A0C, symSize: 0x104 }
  - { offset: 0x128236, size: 0x8, addend: 0x0, symName: _whisper_full_get_token_text, symObjAddr: 0x18FC8, symBinAddr: 0x19B10, symSize: 0x108 }
  - { offset: 0x1286BE, size: 0x8, addend: 0x0, symName: _whisper_full_get_token_id_from_state, symObjAddr: 0x190D0, symBinAddr: 0x19C18, symSize: 0x20 }
  - { offset: 0x12870C, size: 0x8, addend: 0x0, symName: _whisper_full_get_token_id_from_state, symObjAddr: 0x190D0, symBinAddr: 0x19C18, symSize: 0x20 }
  - { offset: 0x12874D, size: 0x8, addend: 0x0, symName: _whisper_full_get_token_id, symObjAddr: 0x190F0, symBinAddr: 0x19C38, symSize: 0x24 }
  - { offset: 0x1287DC, size: 0x8, addend: 0x0, symName: _whisper_full_get_token_data_from_state, symObjAddr: 0x19114, symBinAddr: 0x19C5C, symSize: 0x34 }
  - { offset: 0x128828, size: 0x8, addend: 0x0, symName: _whisper_full_get_token_data_from_state, symObjAddr: 0x19114, symBinAddr: 0x19C5C, symSize: 0x34 }
  - { offset: 0x128869, size: 0x8, addend: 0x0, symName: _whisper_full_get_token_data, symObjAddr: 0x19148, symBinAddr: 0x19C90, symSize: 0x38 }
  - { offset: 0x1288F6, size: 0x8, addend: 0x0, symName: _whisper_full_get_token_p_from_state, symObjAddr: 0x19180, symBinAddr: 0x19CC8, symSize: 0x20 }
  - { offset: 0x128942, size: 0x8, addend: 0x0, symName: _whisper_full_get_token_p_from_state, symObjAddr: 0x19180, symBinAddr: 0x19CC8, symSize: 0x20 }
  - { offset: 0x128983, size: 0x8, addend: 0x0, symName: _whisper_full_get_token_p, symObjAddr: 0x191A0, symBinAddr: 0x19CE8, symSize: 0x24 }
  - { offset: 0x128A10, size: 0x8, addend: 0x0, symName: _whisper_full_get_segment_no_speech_prob, symObjAddr: 0x191C4, symBinAddr: 0x19D0C, symSize: 0x18 }
  - { offset: 0x128A6D, size: 0x8, addend: 0x0, symName: _whisper_full_get_segment_no_speech_prob_from_state, symObjAddr: 0x191DC, symBinAddr: 0x19D24, symSize: 0x14 }
  - { offset: 0x128AAA, size: 0x8, addend: 0x0, symName: _whisper_full_get_segment_no_speech_prob_from_state, symObjAddr: 0x191DC, symBinAddr: 0x19D24, symSize: 0x14 }
  - { offset: 0x128ACA, size: 0x8, addend: 0x0, symName: _whisper_bench_memcpy, symObjAddr: 0x191F0, symBinAddr: 0x19D38, symSize: 0x28 }
  - { offset: 0x1290A8, size: 0x8, addend: 0x0, symName: _whisper_bench_memcpy_str.cold.1, symObjAddr: 0x3A568, symBinAddr: 0x164DD4, symSize: 0x50 }
  - { offset: 0x129131, size: 0x8, addend: 0x0, symName: '__ZNSt3__110unique_ptrINS_5tupleIJNS0_INS_15__thread_structENS_14default_deleteIS2_EEEEZ24whisper_bench_memcpy_strE3$_0iEEENS3_IS7_EEED1B8ne190102Ev', symObjAddr: 0x3A3C0, symBinAddr: 0x3AF08, symSize: 0x48 }
  - { offset: 0x1292F5, size: 0x8, addend: 0x0, symName: _whisper_bench_ggml_mul_mat, symObjAddr: 0x1A428, symBinAddr: 0x1AF70, symSize: 0x28 }
  - { offset: 0x129742, size: 0x8, addend: 0x0, symName: _whisper_bench_ggml_mul_mat_str.cold.1, symObjAddr: 0x3A5B8, symBinAddr: 0x164E24, symSize: 0x50 }
  - { offset: 0x1297CB, size: 0x8, addend: 0x0, symName: _whisper_log_set, symObjAddr: 0x1AB1C, symBinAddr: 0x1B664, symSize: 0x24 }
  - { offset: 0x12981A, size: 0x8, addend: 0x0, symName: __ZL28whisper_log_callback_default14ggml_log_levelPKcPv, symObjAddr: 0x1AB40, symBinAddr: 0x1B688, symSize: 0x40 }
  - { offset: 0x129880, size: 0x8, addend: 0x0, symName: _whisper_version, symObjAddr: 0x1AB80, symBinAddr: 0x1B6C8, symSize: 0xC }
  - { offset: 0x129BC0, size: 0x8, addend: 0x0, symName: __ZNSt3__13mapI10asr_tensorPKcNS_4lessIS1_EENS_9allocatorINS_4pairIKS1_S3_EEEEE6insertB8ne190102INS_20__map_const_iteratorINS_21__tree_const_iteratorINS_12__value_typeIS1_S3_EEPNS_11__tree_nodeISG_PvEElEEEEEEvT_SN_, symObjAddr: 0x1AB8C, symBinAddr: 0x1B6D4, symSize: 0x100 }
  - { offset: 0x129C08, size: 0x8, addend: 0x0, symName: __ZNSt3__13mapI10asr_tensorPKcNS_4lessIS1_EENS_9allocatorINS_4pairIKS1_S3_EEEEE6insertB8ne190102INS_20__map_const_iteratorINS_21__tree_const_iteratorINS_12__value_typeIS1_S3_EEPNS_11__tree_nodeISG_PvEElEEEEEEvT_SN_, symObjAddr: 0x1AB8C, symBinAddr: 0x1B6D4, symSize: 0x100 }
  - { offset: 0x129F47, size: 0x8, addend: 0x0, symName: __ZNSt3__16__treeINS_12__value_typeI10asr_tensorPKcEENS_19__map_value_compareIS2_S5_NS_4lessIS2_EELb1EEENS_9allocatorIS5_EEE12__find_equalIS2_EERPNS_16__tree_node_baseIPvEENS_21__tree_const_iteratorIS5_PNS_11__tree_nodeIS5_SF_EElEERPNS_15__tree_end_nodeISH_EESI_RKT_, symObjAddr: 0x1AC8C, symBinAddr: 0x1B7D4, symSize: 0x1B0 }
  - { offset: 0x129FAF, size: 0x8, addend: 0x0, symName: __ZNSt3__16__treeINS_12__value_typeI10asr_tensorPKcEENS_19__map_value_compareIS2_S5_NS_4lessIS2_EELb1EEENS_9allocatorIS5_EEE12__find_equalIS2_EERPNS_16__tree_node_baseIPvEENS_21__tree_const_iteratorIS5_PNS_11__tree_nodeIS5_SF_EElEERPNS_15__tree_end_nodeISH_EESI_RKT_, symObjAddr: 0x1AC8C, symBinAddr: 0x1B7D4, symSize: 0x1B0 }
  - { offset: 0x129FCD, size: 0x8, addend: 0x0, symName: __ZNSt3__16__treeINS_12__value_typeI10asr_tensorPKcEENS_19__map_value_compareIS2_S5_NS_4lessIS2_EELb1EEENS_9allocatorIS5_EEE12__find_equalIS2_EERPNS_16__tree_node_baseIPvEENS_21__tree_const_iteratorIS5_PNS_11__tree_nodeIS5_SF_EElEERPNS_15__tree_end_nodeISH_EESI_RKT_, symObjAddr: 0x1AC8C, symBinAddr: 0x1B7D4, symSize: 0x1B0 }
  - { offset: 0x12A4F5, size: 0x8, addend: 0x0, symName: __ZNSt3__16__treeINS_12__value_typeI10asr_tensorPKcEENS_19__map_value_compareIS2_S5_NS_4lessIS2_EELb1EEENS_9allocatorIS5_EEE7destroyEPNS_11__tree_nodeIS5_PvEE, symObjAddr: 0x1B018, symBinAddr: 0x1BB60, symSize: 0x44 }
  - { offset: 0x12A89E, size: 0x8, addend: 0x0, symName: __ZN15whisper_decoderD2Ev, symObjAddr: 0x1B49C, symBinAddr: 0x1BFE4, symSize: 0x110 }
  - { offset: 0x12B5C0, size: 0x8, addend: 0x0, symName: __ZNSt12length_errorC1B8ne190102EPKc, symObjAddr: 0x1B654, symBinAddr: 0x1C19C, symSize: 0x24 }
  - { offset: 0x12BC6E, size: 0x8, addend: 0x0, symName: __ZNKSt3__16vectorI15whisper_kv_cellNS_9allocatorIS1_EEE20__throw_length_errorB8ne190102Ev, symObjAddr: 0x1B850, symBinAddr: 0x1C398, symSize: 0x14 }
  - { offset: 0x12BC98, size: 0x8, addend: 0x0, symName: __ZL28get_alignment_heads_by_layerRK22whisper_context_paramsiii, symObjAddr: 0x1B864, symBinAddr: 0x1C3AC, symSize: 0x2B0 }
  - { offset: 0x12BF94, size: 0x8, addend: 0x0, symName: __ZNKSt3__16vectorIjNS_9allocatorIjEEE20__throw_length_errorB8ne190102Ev, symObjAddr: 0x1BB88, symBinAddr: 0x1C6D0, symSize: 0x14 }
  - { offset: 0x12BFBE, size: 0x8, addend: 0x0, symName: __ZNKSt3__16vectorIP11ggml_tensorNS_9allocatorIS2_EEE20__throw_length_errorB8ne190102Ev, symObjAddr: 0x1BB9C, symBinAddr: 0x1C6E4, symSize: 0x14 }
  - { offset: 0x12BFC9, size: 0x8, addend: 0x0, symName: __ZNSt12out_of_rangeC1B8ne190102EPKc, symObjAddr: 0x1BB64, symBinAddr: 0x1C6AC, symSize: 0x24 }
  - { offset: 0x12C102, size: 0x8, addend: 0x0, symName: '__ZZ43whisper_init_from_file_with_params_no_stateEN3$_08__invokeEPvS0_m', symObjAddr: 0x1BBE4, symBinAddr: 0x1C72C, symSize: 0x24 }
  - { offset: 0x12C1FD, size: 0x8, addend: 0x0, symName: '__ZZ43whisper_init_from_file_with_params_no_stateEN3$_18__invokeEPv', symObjAddr: 0x1BC08, symBinAddr: 0x1C750, symSize: 0x18 }
  - { offset: 0x12C22A, size: 0x8, addend: 0x0, symName: '__ZZ43whisper_init_from_file_with_params_no_stateEN3$_18__invokeEPv', symObjAddr: 0x1BC08, symBinAddr: 0x1C750, symSize: 0x18 }
  - { offset: 0x12C2EC, size: 0x8, addend: 0x0, symName: '__ZZ43whisper_init_from_file_with_params_no_stateEN3$_28__invokeEPv', symObjAddr: 0x1BC20, symBinAddr: 0x1C768, symSize: 0x48 }
  - { offset: 0x12C407, size: 0x8, addend: 0x0, symName: '__ZZ45whisper_init_from_buffer_with_params_no_stateEN3$_08__invokeEPvS0_m', symObjAddr: 0x1BC68, symBinAddr: 0x1C7B0, symSize: 0x58 }
  - { offset: 0x12C4D6, size: 0x8, addend: 0x0, symName: '__ZZ45whisper_init_from_buffer_with_params_no_stateEN3$_18__invokeEPv', symObjAddr: 0x1BCC0, symBinAddr: 0x1C808, symSize: 0x10 }
  - { offset: 0x12C516, size: 0x8, addend: 0x0, symName: '__ZZ45whisper_init_from_buffer_with_params_no_stateEN3$_28__invokeEPv', symObjAddr: 0x1BCD0, symBinAddr: 0x1C818, symSize: 0x4 }
  - { offset: 0x12C9B1, size: 0x8, addend: 0x0, symName: __ZNKSt3__13mapI10asr_systemNS0_I10asr_tensorPKcNS_4lessIS2_EENS_9allocatorINS_4pairIKS2_S4_EEEEEENS5_IS1_EENS7_INS8_IKS1_SC_EEEEE2atERSE_, symObjAddr: 0x1CAC0, symBinAddr: 0x1D608, symSize: 0x54 }
  - { offset: 0x12CAB4, size: 0x8, addend: 0x0, symName: __ZNKSt3__13mapI10asr_tensorPKcNS_4lessIS1_EENS_9allocatorINS_4pairIKS1_S3_EEEEE2atERS8_, symObjAddr: 0x1CB14, symBinAddr: 0x1D65C, symSize: 0x54 }
  - { offset: 0x12D023, size: 0x8, addend: 0x0, symName: __ZNSt3__110unique_ptrINS_11__tree_nodeINS_12__value_typeINS_12basic_stringIcNS_11char_traitsIcEENS_9allocatorIcEEEEiEEPvEENS_22__tree_node_destructorINS6_ISB_EEEEED1B8ne190102Ev, symObjAddr: 0x1C5D4, symBinAddr: 0x1D11C, symSize: 0x60 }
  - { offset: 0x12D7A1, size: 0x8, addend: 0x0, symName: __ZNKSt3__16vectorI21whisper_layer_encoderNS_9allocatorIS1_EEE20__throw_length_errorB8ne190102Ev, symObjAddr: 0x1C7BC, symBinAddr: 0x1D304, symSize: 0x14 }
  - { offset: 0x12D7CB, size: 0x8, addend: 0x0, symName: __ZNSt3__16vectorI21whisper_layer_decoderNS_9allocatorIS1_EEE8__appendEm, symObjAddr: 0x1C7D0, symBinAddr: 0x1D318, symSize: 0x184 }
  - { offset: 0x12DAEA, size: 0x8, addend: 0x0, symName: __ZNKSt3__16vectorI21whisper_layer_decoderNS_9allocatorIS1_EEE20__throw_length_errorB8ne190102Ev, symObjAddr: 0x1C954, symBinAddr: 0x1D49C, symSize: 0x14 }
  - { offset: 0x12DB14, size: 0x8, addend: 0x0, symName: __ZL6formatPKcz, symObjAddr: 0x1C968, symBinAddr: 0x1D4B0, symSize: 0x158 }
  - { offset: 0x12DF07, size: 0x8, addend: 0x0, symName: __ZNSt3__16__treeINS_12__value_typeIiNS_12basic_stringIcNS_11char_traitsIcEENS_9allocatorIcEEEEEENS_19__map_value_compareIiS8_NS_4lessIiEELb1EEENS5_IS8_EEE7destroyEPNS_11__tree_nodeIS8_PvEE, symObjAddr: 0x1CC68, symBinAddr: 0x1D7B0, symSize: 0x60 }
  - { offset: 0x12E1B1, size: 0x8, addend: 0x0, symName: __ZNSt3__16__treeINS_12__value_typeINS_12basic_stringIcNS_11char_traitsIcEENS_9allocatorIcEEEEiEENS_19__map_value_compareIS7_S8_NS_4lessIS7_EELb1EEENS5_IS8_EEE7destroyEPNS_11__tree_nodeIS8_PvEE, symObjAddr: 0x1CCC8, symBinAddr: 0x1D810, symSize: 0x60 }
  - { offset: 0x12E45B, size: 0x8, addend: 0x0, symName: __ZNSt3__16__treeINS_12__value_typeINS_12basic_stringIcNS_11char_traitsIcEENS_9allocatorIcEEEEP11ggml_tensorEENS_19__map_value_compareIS7_SA_NS_4lessIS7_EELb1EEENS5_ISA_EEE7destroyEPNS_11__tree_nodeISA_PvEE, symObjAddr: 0x1CD28, symBinAddr: 0x1D870, symSize: 0x60 }
  - { offset: 0x12EBC3, size: 0x8, addend: 0x0, symName: __ZL3fftPfiS_, symObjAddr: 0x1D9E0, symBinAddr: 0x1E528, symSize: 0x65C }
  - { offset: 0x12F63D, size: 0x8, addend: 0x0, symName: __ZNSt3__110unique_ptrINS_5tupleIJNS0_INS_15__thread_structENS_14default_deleteIS2_EEEEPFviPKfRKNS_6vectorIfNS_9allocatorIfEEEEiiiiRK15whisper_filtersR11whisper_melEiS7_NS_17reference_wrapperISC_EExiiiNSL_ISF_EENSL_ISH_EEEEENS3_ISP_EEED1B8ne190102Ev, symObjAddr: 0x1E20C, symBinAddr: 0x1ED54, symSize: 0x48 }
  - { offset: 0x12FCE2, size: 0x8, addend: 0x0, symName: __ZL27whisper_build_graph_encoderR15whisper_contextR13whisper_state.cold.1, symObjAddr: 0x3A608, symBinAddr: 0x164E74, symSize: 0x38 }
  - { offset: 0x12FD40, size: 0x8, addend: 0x0, symName: __ZL27whisper_build_graph_decoderR15whisper_contextR13whisper_stateRK13whisper_batchbb.cold.1, symObjAddr: 0x3A640, symBinAddr: 0x164EAC, symSize: 0x38 }
  - { offset: 0x12FDF2, size: 0x8, addend: 0x0, symName: __ZNSt3__111basic_regexIcNS_12regex_traitsIcEEE7__parseINS_11__wrap_iterIPKcEEEET_S9_S9_, symObjAddr: 0x1FDE0, symBinAddr: 0x20928, symSize: 0x200 }
  - { offset: 0x13032C, size: 0x8, addend: 0x0, symName: __ZNSt3__110shared_ptrINS_13__empty_stateIcEEED1B8ne190102Ev, symObjAddr: 0x1FD84, symBinAddr: 0x208CC, symSize: 0x5C }
  - { offset: 0x130A1C, size: 0x8, addend: 0x0, symName: __ZNSt3__111basic_regexIcNS_12regex_traitsIcEEE13__parse_egrepINS_11__wrap_iterIPKcEEEET_S9_S9_, symObjAddr: 0x20740, symBinAddr: 0x21288, symSize: 0x1B8 }
  - { offset: 0x131019, size: 0x8, addend: 0x0, symName: __ZNSt3__111basic_regexIcNS_12regex_traitsIcEEE24__parse_extended_reg_expINS_11__wrap_iterIPKcEEEET_S9_S9_, symObjAddr: 0x2041C, symBinAddr: 0x20F64, symSize: 0x16C }
  - { offset: 0x131393, size: 0x8, addend: 0x0, symName: __ZNSt3__111basic_regexIcNS_12regex_traitsIcEEE12__parse_grepINS_11__wrap_iterIPKcEEEET_S9_S9_, symObjAddr: 0x20588, symBinAddr: 0x210D0, symSize: 0x1B8 }
  - { offset: 0x1313A7, size: 0x8, addend: 0x0, symName: __ZNSt3__111basic_regexIcNS_12regex_traitsIcEEE21__parse_basic_reg_expINS_11__wrap_iterIPKcEEEET_S9_S9_, symObjAddr: 0x2028C, symBinAddr: 0x20DD4, symSize: 0x190 }
  - { offset: 0x131704, size: 0x8, addend: 0x0, symName: __ZNSt3__111basic_regexIcNS_12regex_traitsIcEEE24__parse_extended_reg_expINS_11__wrap_iterIPKcEEEET_S9_S9_, symObjAddr: 0x2041C, symBinAddr: 0x20F64, symSize: 0x16C }
  - { offset: 0x131718, size: 0x8, addend: 0x0, symName: __ZNSt3__111basic_regexIcNS_12regex_traitsIcEEE12__parse_grepINS_11__wrap_iterIPKcEEEET_S9_S9_, symObjAddr: 0x20588, symBinAddr: 0x210D0, symSize: 0x1B8 }
  - { offset: 0x131D15, size: 0x8, addend: 0x0, symName: __ZNSt3__111basic_regexIcNS_12regex_traitsIcEEE16__parse_ecma_expINS_11__wrap_iterIPKcEEEET_S9_S9_, symObjAddr: 0x2002C, symBinAddr: 0x20B74, symSize: 0x260 }
  - { offset: 0x13253B, size: 0x8, addend: 0x0, symName: __ZNSt3__111basic_regexIcNS_12regex_traitsIcEEE17__parse_assertionINS_11__wrap_iterIPKcEEEET_S9_S9_, symObjAddr: 0x20B3C, symBinAddr: 0x21684, symSize: 0x334 }
  - { offset: 0x132AB0, size: 0x8, addend: 0x0, symName: __ZNSt3__111basic_regexIcNS_12regex_traitsIcEEE12__parse_atomINS_11__wrap_iterIPKcEEEET_S9_S9_, symObjAddr: 0x20E70, symBinAddr: 0x219B8, symSize: 0x280 }
  - { offset: 0x132E59, size: 0x8, addend: 0x0, symName: __ZNSt3__111basic_regexIcNS_12regex_traitsIcEEE23__parse_ERE_dupl_symbolINS_11__wrap_iterIPKcEEEET_S9_S9_PNS_16__owns_one_stateIcEEjj, symObjAddr: 0x210F0, symBinAddr: 0x21C38, symSize: 0x378 }
  - { offset: 0x132E6D, size: 0x8, addend: 0x0, symName: __ZNSt3__111basic_regexIcNS_12regex_traitsIcEEE23__parse_ERE_dupl_symbolINS_11__wrap_iterIPKcEEEET_S9_S9_PNS_16__owns_one_stateIcEEjj, symObjAddr: 0x210F0, symBinAddr: 0x21C38, symSize: 0x378 }
  - { offset: 0x1334EC, size: 0x8, addend: 0x0, symName: __ZNSt3__111basic_regexIcNS_12regex_traitsIcEEE20__push_word_boundaryEb, symObjAddr: 0x21468, symBinAddr: 0x21FB0, symSize: 0x74 }
  - { offset: 0x1336F2, size: 0x8, addend: 0x0, symName: __ZNSt3__111basic_regexIcNS_12regex_traitsIcEEE18__parse_nondupl_REINS_11__wrap_iterIPKcEEEET_S9_S9_, symObjAddr: 0x27C60, symBinAddr: 0x287A8, symSize: 0x21C }
  - { offset: 0x133C0B, size: 0x8, addend: 0x0, symName: __ZNSt3__111basic_regexIcNS_12regex_traitsIcEEE22__parse_RE_dupl_symbolINS_11__wrap_iterIPKcEEEET_S9_S9_PNS_16__owns_one_stateIcEEjj, symObjAddr: 0x27E7C, symBinAddr: 0x289C4, symSize: 0x274 }
  - { offset: 0x133C1F, size: 0x8, addend: 0x0, symName: __ZNSt3__111basic_regexIcNS_12regex_traitsIcEEE22__parse_RE_dupl_symbolINS_11__wrap_iterIPKcEEEET_S9_S9_PNS_16__owns_one_stateIcEEjj, symObjAddr: 0x27E7C, symBinAddr: 0x289C4, symSize: 0x274 }
  - { offset: 0x13416C, size: 0x8, addend: 0x0, symName: __ZNSt3__111basic_regexIcNS_12regex_traitsIcEEE32__parse_one_char_or_coll_elem_REINS_11__wrap_iterIPKcEEEET_S9_S9_, symObjAddr: 0x280F0, symBinAddr: 0x28C38, symSize: 0x194 }
  - { offset: 0x1341C4, size: 0x8, addend: 0x0, symName: __ZNSt3__111basic_regexIcNS_12regex_traitsIcEEE22__parse_ERE_expressionINS_11__wrap_iterIPKcEEEET_S9_S9_, symObjAddr: 0x283B4, symBinAddr: 0x28EFC, symSize: 0x208 }
  - { offset: 0x1345B6, size: 0x8, addend: 0x0, symName: __ZNSt3__111basic_regexIcNS_12regex_traitsIcEEE33__parse_one_char_or_coll_elem_EREINS_11__wrap_iterIPKcEEEET_S9_S9_, symObjAddr: 0x285BC, symBinAddr: 0x29104, symSize: 0x160 }
  - { offset: 0x1345E6, size: 0x8, addend: 0x0, symName: __ZNSt3__111__end_stateIcED1Ev, symObjAddr: 0x20944, symBinAddr: 0x2148C, symSize: 0x4 }
  - { offset: 0x134612, size: 0x8, addend: 0x0, symName: __ZNSt3__111__end_stateIcED0Ev, symObjAddr: 0x20948, symBinAddr: 0x21490, symSize: 0x4 }
  - { offset: 0x134633, size: 0x8, addend: 0x0, symName: __ZNKSt3__111__end_stateIcE6__execERNS_7__stateIcEE, symObjAddr: 0x2094C, symBinAddr: 0x21494, symSize: 0xC }
  - { offset: 0x134667, size: 0x8, addend: 0x0, symName: __ZNKSt3__16__nodeIcE12__exec_splitEbRNS_7__stateIcEE, symObjAddr: 0x20958, symBinAddr: 0x214A0, symSize: 0x4 }
  - { offset: 0x1346A7, size: 0x8, addend: 0x0, symName: __ZNKSt3__16__nodeIcE6__execERNS_7__stateIcEE, symObjAddr: 0x2095C, symBinAddr: 0x214A4, symSize: 0x4 }
  - { offset: 0x1346F3, size: 0x8, addend: 0x0, symName: __ZNSt3__120__shared_ptr_pointerIPNS_13__empty_stateIcEENS_10shared_ptrIS2_E27__shared_ptr_default_deleteIS2_S2_EENS_9allocatorIS2_EEED1Ev, symObjAddr: 0x20960, symBinAddr: 0x214A8, symSize: 0x4 }
  - { offset: 0x134717, size: 0x8, addend: 0x0, symName: __ZNSt3__120__shared_ptr_pointerIPNS_13__empty_stateIcEENS_10shared_ptrIS2_E27__shared_ptr_default_deleteIS2_S2_EENS_9allocatorIS2_EEED1Ev, symObjAddr: 0x20960, symBinAddr: 0x214A8, symSize: 0x4 }
  - { offset: 0x13474E, size: 0x8, addend: 0x0, symName: __ZNSt3__120__shared_ptr_pointerIPNS_13__empty_stateIcEENS_10shared_ptrIS2_E27__shared_ptr_default_deleteIS2_S2_EENS_9allocatorIS2_EEED0Ev, symObjAddr: 0x20964, symBinAddr: 0x214AC, symSize: 0x14 }
  - { offset: 0x1347B5, size: 0x8, addend: 0x0, symName: __ZNSt3__120__shared_ptr_pointerIPNS_13__empty_stateIcEENS_10shared_ptrIS2_E27__shared_ptr_default_deleteIS2_S2_EENS_9allocatorIS2_EEE16__on_zero_sharedEv, symObjAddr: 0x20978, symBinAddr: 0x214C0, symSize: 0x18 }
  - { offset: 0x13485F, size: 0x8, addend: 0x0, symName: __ZNKSt3__120__shared_ptr_pointerIPNS_13__empty_stateIcEENS_10shared_ptrIS2_E27__shared_ptr_default_deleteIS2_S2_EENS_9allocatorIS2_EEE13__get_deleterERKSt9type_info, symObjAddr: 0x20990, symBinAddr: 0x214D8, symSize: 0x74 }
  - { offset: 0x134970, size: 0x8, addend: 0x0, symName: __ZNSt3__120__shared_ptr_pointerIPNS_13__empty_stateIcEENS_10shared_ptrIS2_E27__shared_ptr_default_deleteIS2_S2_EENS_9allocatorIS2_EEE21__on_zero_shared_weakEv, symObjAddr: 0x20A04, symBinAddr: 0x2154C, symSize: 0x4 }
  - { offset: 0x1349A5, size: 0x8, addend: 0x0, symName: __ZNSt3__120__shared_ptr_pointerIPNS_13__empty_stateIcEENS_10shared_ptrIS2_E27__shared_ptr_default_deleteIS2_S2_EENS_9allocatorIS2_EEE21__on_zero_shared_weakEv, symObjAddr: 0x20A04, symBinAddr: 0x2154C, symSize: 0x4 }
  - { offset: 0x1349C9, size: 0x8, addend: 0x0, symName: __ZNSt3__120__shared_ptr_pointerIPNS_13__empty_stateIcEENS_10shared_ptrIS2_E27__shared_ptr_default_deleteIS2_S2_EENS_9allocatorIS2_EEE21__on_zero_shared_weakEv, symObjAddr: 0x20A04, symBinAddr: 0x2154C, symSize: 0x4 }
  - { offset: 0x1349F8, size: 0x8, addend: 0x0, symName: __ZNSt3__120__shared_ptr_pointerIPNS_13__empty_stateIcEENS_10shared_ptrIS2_E27__shared_ptr_default_deleteIS2_S2_EENS_9allocatorIS2_EEE21__on_zero_shared_weakEv, symObjAddr: 0x20A04, symBinAddr: 0x2154C, symSize: 0x4 }
  - { offset: 0x134A21, size: 0x8, addend: 0x0, symName: __ZNSt3__120__shared_ptr_pointerIPNS_13__empty_stateIcEENS_10shared_ptrIS2_E27__shared_ptr_default_deleteIS2_S2_EENS_9allocatorIS2_EEE21__on_zero_shared_weakEv, symObjAddr: 0x20A04, symBinAddr: 0x2154C, symSize: 0x4 }
  - { offset: 0x134A4B, size: 0x8, addend: 0x0, symName: __ZNSt3__113__empty_stateIcED1Ev, symObjAddr: 0x20A08, symBinAddr: 0x21550, symSize: 0x48 }
  - { offset: 0x134A71, size: 0x8, addend: 0x0, symName: __ZNSt3__113__empty_stateIcED1Ev, symObjAddr: 0x20A08, symBinAddr: 0x21550, symSize: 0x48 }
  - { offset: 0x134A91, size: 0x8, addend: 0x0, symName: __ZNSt3__113__empty_stateIcED1Ev, symObjAddr: 0x20A08, symBinAddr: 0x21550, symSize: 0x48 }
  - { offset: 0x134ABC, size: 0x8, addend: 0x0, symName: __ZNSt3__113__empty_stateIcED0Ev, symObjAddr: 0x20A50, symBinAddr: 0x21598, symSize: 0x48 }
  - { offset: 0x134AE2, size: 0x8, addend: 0x0, symName: __ZNSt3__113__empty_stateIcED0Ev, symObjAddr: 0x20A50, symBinAddr: 0x21598, symSize: 0x48 }
  - { offset: 0x134B02, size: 0x8, addend: 0x0, symName: __ZNSt3__113__empty_stateIcED0Ev, symObjAddr: 0x20A50, symBinAddr: 0x21598, symSize: 0x48 }
  - { offset: 0x134B22, size: 0x8, addend: 0x0, symName: __ZNSt3__113__empty_stateIcED0Ev, symObjAddr: 0x20A50, symBinAddr: 0x21598, symSize: 0x48 }
  - { offset: 0x134B6A, size: 0x8, addend: 0x0, symName: __ZNKSt3__113__empty_stateIcE6__execERNS_7__stateIcEE, symObjAddr: 0x20A98, symBinAddr: 0x215E0, symSize: 0x14 }
  - { offset: 0x134BBD, size: 0x8, addend: 0x0, symName: __ZNSt3__116__owns_one_stateIcED1Ev, symObjAddr: 0x20AAC, symBinAddr: 0x215F4, symSize: 0x48 }
  - { offset: 0x134BE3, size: 0x8, addend: 0x0, symName: __ZNSt3__116__owns_one_stateIcED1Ev, symObjAddr: 0x20AAC, symBinAddr: 0x215F4, symSize: 0x48 }
  - { offset: 0x134C27, size: 0x8, addend: 0x0, symName: __ZNSt3__116__owns_one_stateIcED0Ev, symObjAddr: 0x20AF4, symBinAddr: 0x2163C, symSize: 0x48 }
  - { offset: 0x134C55, size: 0x8, addend: 0x0, symName: __ZNSt3__116__owns_one_stateIcED0Ev, symObjAddr: 0x20AF4, symBinAddr: 0x2163C, symSize: 0x48 }
  - { offset: 0x134C75, size: 0x8, addend: 0x0, symName: __ZNSt3__116__owns_one_stateIcED0Ev, symObjAddr: 0x20AF4, symBinAddr: 0x2163C, symSize: 0x48 }
  - { offset: 0x134D9F, size: 0x8, addend: 0x0, symName: __ZNSt3__111basic_regexIcNS_12regex_traitsIcEEEC1B8ne190102Ev, symObjAddr: 0x214DC, symBinAddr: 0x22024, symSize: 0x6C }
  - { offset: 0x134E72, size: 0x8, addend: 0x0, symName: __ZNSt3__111basic_regexIcNS_12regex_traitsIcEEE16__push_lookaheadERKS3_bj, symObjAddr: 0x21548, symBinAddr: 0x22090, symSize: 0xB0 }
  - { offset: 0x1350AD, size: 0x8, addend: 0x0, symName: __ZNSt3__111basic_regexIcNS_12regex_traitsIcEEE20__push_word_boundaryEb, symObjAddr: 0x21468, symBinAddr: 0x21FB0, symSize: 0x74 }
  - { offset: 0x13538E, size: 0x8, addend: 0x0, symName: __ZNSt3__111basic_regexIcNS_12regex_traitsIcEEE26__parse_bracket_expressionINS_11__wrap_iterIPKcEEEET_S9_S9_, symObjAddr: 0x22D34, symBinAddr: 0x2387C, symSize: 0x158 }
  - { offset: 0x1355DF, size: 0x8, addend: 0x0, symName: __ZNSt3__111basic_regexIcNS_12regex_traitsIcEEE19__parse_atom_escapeINS_11__wrap_iterIPKcEEEET_S9_S9_, symObjAddr: 0x22BE8, symBinAddr: 0x23730, symSize: 0x14C }
  - { offset: 0x135761, size: 0x8, addend: 0x0, symName: __ZNSt3__111basic_regexIcNS_12regex_traitsIcEEE26__parse_bracket_expressionINS_11__wrap_iterIPKcEEEET_S9_S9_, symObjAddr: 0x22D34, symBinAddr: 0x2387C, symSize: 0x158 }
  - { offset: 0x135775, size: 0x8, addend: 0x0, symName: __ZNSt3__111basic_regexIcNS_12regex_traitsIcEEE25__parse_pattern_characterINS_11__wrap_iterIPKcEEEET_S9_S9_, symObjAddr: 0x22ED8, symBinAddr: 0x23A20, symSize: 0x7C }
  - { offset: 0x13594C, size: 0x8, addend: 0x0, symName: __ZNSt3__111basic_regexIcNS_12regex_traitsIcEEE11__push_loopEmmPNS_16__owns_one_stateIcEEmmb, symObjAddr: 0x2749C, symBinAddr: 0x27FE4, symSize: 0x138 }
  - { offset: 0x135F64, size: 0x8, addend: 0x0, symName: __ZNSt3__120__l_anchor_multilineIcED1Ev, symObjAddr: 0x21644, symBinAddr: 0x2218C, symSize: 0x48 }
  - { offset: 0x135F8A, size: 0x8, addend: 0x0, symName: __ZNSt3__120__l_anchor_multilineIcED1Ev, symObjAddr: 0x21644, symBinAddr: 0x2218C, symSize: 0x48 }
  - { offset: 0x135FAA, size: 0x8, addend: 0x0, symName: __ZNSt3__120__l_anchor_multilineIcED1Ev, symObjAddr: 0x21644, symBinAddr: 0x2218C, symSize: 0x48 }
  - { offset: 0x135FF2, size: 0x8, addend: 0x0, symName: __ZNSt3__120__l_anchor_multilineIcED0Ev, symObjAddr: 0x2168C, symBinAddr: 0x221D4, symSize: 0x48 }
  - { offset: 0x136023, size: 0x8, addend: 0x0, symName: __ZNSt3__120__l_anchor_multilineIcED0Ev, symObjAddr: 0x2168C, symBinAddr: 0x221D4, symSize: 0x48 }
  - { offset: 0x136043, size: 0x8, addend: 0x0, symName: __ZNSt3__120__l_anchor_multilineIcED0Ev, symObjAddr: 0x2168C, symBinAddr: 0x221D4, symSize: 0x48 }
  - { offset: 0x136063, size: 0x8, addend: 0x0, symName: __ZNSt3__120__l_anchor_multilineIcED0Ev, symObjAddr: 0x2168C, symBinAddr: 0x221D4, symSize: 0x48 }
  - { offset: 0x13608F, size: 0x8, addend: 0x0, symName: __ZNKSt3__120__l_anchor_multilineIcE6__execERNS_7__stateIcEE, symObjAddr: 0x216D4, symBinAddr: 0x2221C, symSize: 0x68 }
  - { offset: 0x1360F4, size: 0x8, addend: 0x0, symName: __ZNSt3__120__r_anchor_multilineIcED1Ev, symObjAddr: 0x2173C, symBinAddr: 0x22284, symSize: 0x48 }
  - { offset: 0x13611A, size: 0x8, addend: 0x0, symName: __ZNSt3__120__r_anchor_multilineIcED1Ev, symObjAddr: 0x2173C, symBinAddr: 0x22284, symSize: 0x48 }
  - { offset: 0x13613A, size: 0x8, addend: 0x0, symName: __ZNSt3__120__r_anchor_multilineIcED1Ev, symObjAddr: 0x2173C, symBinAddr: 0x22284, symSize: 0x48 }
  - { offset: 0x136182, size: 0x8, addend: 0x0, symName: __ZNSt3__120__r_anchor_multilineIcED0Ev, symObjAddr: 0x21784, symBinAddr: 0x222CC, symSize: 0x48 }
  - { offset: 0x1361B3, size: 0x8, addend: 0x0, symName: __ZNSt3__120__r_anchor_multilineIcED0Ev, symObjAddr: 0x21784, symBinAddr: 0x222CC, symSize: 0x48 }
  - { offset: 0x1361D3, size: 0x8, addend: 0x0, symName: __ZNSt3__120__r_anchor_multilineIcED0Ev, symObjAddr: 0x21784, symBinAddr: 0x222CC, symSize: 0x48 }
  - { offset: 0x1361F3, size: 0x8, addend: 0x0, symName: __ZNSt3__120__r_anchor_multilineIcED0Ev, symObjAddr: 0x21784, symBinAddr: 0x222CC, symSize: 0x48 }
  - { offset: 0x13621F, size: 0x8, addend: 0x0, symName: __ZNKSt3__120__r_anchor_multilineIcE6__execERNS_7__stateIcEE, symObjAddr: 0x217CC, symBinAddr: 0x22314, symSize: 0x54 }
  - { offset: 0x136284, size: 0x8, addend: 0x0, symName: __ZNSt3__115__word_boundaryIcNS_12regex_traitsIcEEED1Ev, symObjAddr: 0x21820, symBinAddr: 0x22368, symSize: 0x58 }
  - { offset: 0x13633B, size: 0x8, addend: 0x0, symName: __ZNSt3__115__word_boundaryIcNS_12regex_traitsIcEEED0Ev, symObjAddr: 0x21878, symBinAddr: 0x223C0, symSize: 0x58 }
  - { offset: 0x13645B, size: 0x8, addend: 0x0, symName: __ZNKSt3__115__word_boundaryIcNS_12regex_traitsIcEEE6__execERNS_7__stateIcEE, symObjAddr: 0x218D0, symBinAddr: 0x22418, symSize: 0x154 }
  - { offset: 0x13662F, size: 0x8, addend: 0x0, symName: __ZNSt3__111__lookaheadIcNS_12regex_traitsIcEEED1Ev, symObjAddr: 0x21A24, symBinAddr: 0x2256C, symSize: 0x8C }
  - { offset: 0x1367A1, size: 0x8, addend: 0x0, symName: __ZNSt3__111__lookaheadIcNS_12regex_traitsIcEEED0Ev, symObjAddr: 0x21AB0, symBinAddr: 0x225F8, symSize: 0x8C }
  - { offset: 0x1369EA, size: 0x8, addend: 0x0, symName: __ZNKSt3__111__lookaheadIcNS_12regex_traitsIcEEE6__execERNS_7__stateIcEE, symObjAddr: 0x21B3C, symBinAddr: 0x22684, symSize: 0x174 }
  - { offset: 0x136FAC, size: 0x8, addend: 0x0, symName: __ZNSt3__16vectorINS_9sub_matchIPKcEENS_9allocatorIS4_EEE6assignEmRKS4_, symObjAddr: 0x22134, symBinAddr: 0x22C7C, symSize: 0x1E4 }
  - { offset: 0x1375A7, size: 0x8, addend: 0x0, symName: __ZNKSt3__16vectorINS_9sub_matchIPKcEENS_9allocatorIS4_EEE20__throw_length_errorB8ne190102Ev, symObjAddr: 0x22318, symBinAddr: 0x22E60, symSize: 0x14 }
  - { offset: 0x1375BA, size: 0x8, addend: 0x0, symName: __ZNKSt3__111basic_regexIcNS_12regex_traitsIcEEE21__match_at_start_ecmaINS_9allocatorINS_9sub_matchIPKcEEEEEEbS8_S8_RNS_13match_resultsIS8_T_EENS_15regex_constants15match_flag_typeEb, symObjAddr: 0x21CB0, symBinAddr: 0x227F8, symSize: 0x484 }
  - { offset: 0x138FD5, size: 0x8, addend: 0x0, symName: __ZNSt3__16vectorINS_7__stateIcEENS_9allocatorIS2_EEE21__push_back_slow_pathIS2_EEPS2_OT_, symObjAddr: 0x22484, symBinAddr: 0x22FCC, symSize: 0x180 }
  - { offset: 0x1397AE, size: 0x8, addend: 0x0, symName: __ZNSt3__16vectorINS_9sub_matchIPKcEENS_9allocatorIS4_EEE8__appendEmRKS4_, symObjAddr: 0x227B0, symBinAddr: 0x232F8, symSize: 0x18C }
  - { offset: 0x139C67, size: 0x8, addend: 0x0, symName: __ZNSt3__16vectorINS_4pairImPKcEENS_9allocatorIS4_EEE8__appendEm, symObjAddr: 0x2293C, symBinAddr: 0x23484, symSize: 0x124 }
  - { offset: 0x139C72, size: 0x8, addend: 0x0, symName: __ZNSt3__16vectorINS_4pairImPKcEENS_9allocatorIS4_EEE8__appendEm, symObjAddr: 0x2293C, symBinAddr: 0x23484, symSize: 0x124 }
  - { offset: 0x13A10C, size: 0x8, addend: 0x0, symName: __ZNKSt3__16vectorINS_4pairImPKcEENS_9allocatorIS4_EEE20__throw_length_errorB8ne190102Ev, symObjAddr: 0x22A60, symBinAddr: 0x235A8, symSize: 0x14 }
  - { offset: 0x13A117, size: 0x8, addend: 0x0, symName: __ZNSt3__17__stateIcEC2ERKS1_, symObjAddr: 0x22A74, symBinAddr: 0x235BC, symSize: 0x174 }
  - { offset: 0x13A7E5, size: 0x8, addend: 0x0, symName: __ZNSt3__16vectorINS_7__stateIcEENS_9allocatorIS2_EEED1B8ne190102Ev, symObjAddr: 0x22404, symBinAddr: 0x22F4C, symSize: 0x80 }
  - { offset: 0x13AC56, size: 0x8, addend: 0x0, symName: __ZNSt3__17__stateIcED1Ev, symObjAddr: 0x2232C, symBinAddr: 0x22E74, symSize: 0x40 }
  - { offset: 0x13B1C8, size: 0x8, addend: 0x0, symName: __ZNKSt3__16vectorINS_9sub_matchIPKcEENS_9allocatorIS4_EEE20__throw_length_errorB8ne190102Ev, symObjAddr: 0x22318, symBinAddr: 0x22E60, symSize: 0x14 }
  - { offset: 0x13B1F2, size: 0x8, addend: 0x0, symName: __ZNSt3__17__stateIcED1Ev, symObjAddr: 0x2232C, symBinAddr: 0x22E74, symSize: 0x40 }
  - { offset: 0x13B469, size: 0x8, addend: 0x0, symName: __ZNSt3__16vectorINS_7__stateIcEENS_9allocatorIS2_EEE26__swap_out_circular_bufferERNS_14__split_bufferIS2_RS4_EE, symObjAddr: 0x22604, symBinAddr: 0x2314C, symSize: 0x124 }
  - { offset: 0x13BA80, size: 0x8, addend: 0x0, symName: __ZNKSt3__16vectorINS_7__stateIcEENS_9allocatorIS2_EEE20__throw_length_errorB8ne190102Ev, symObjAddr: 0x2279C, symBinAddr: 0x232E4, symSize: 0x14 }
  - { offset: 0x13BAAA, size: 0x8, addend: 0x0, symName: __ZNSt3__16vectorINS_9sub_matchIPKcEENS_9allocatorIS4_EEE8__appendEmRKS4_, symObjAddr: 0x227B0, symBinAddr: 0x232F8, symSize: 0x18C }
  - { offset: 0x13BAB5, size: 0x8, addend: 0x0, symName: __ZNSt3__114__split_bufferINS_7__stateIcEERNS_9allocatorIS2_EEED1Ev, symObjAddr: 0x22728, symBinAddr: 0x23270, symSize: 0x74 }
  - { offset: 0x13C39C, size: 0x8, addend: 0x0, symName: __ZNKSt3__16vectorINS_4pairImPKcEENS_9allocatorIS4_EEE20__throw_length_errorB8ne190102Ev, symObjAddr: 0x22A60, symBinAddr: 0x235A8, symSize: 0x14 }
  - { offset: 0x13C3C6, size: 0x8, addend: 0x0, symName: __ZNSt3__17__stateIcEC2ERKS1_, symObjAddr: 0x22A74, symBinAddr: 0x235BC, symSize: 0x174 }
  - { offset: 0x13C7FF, size: 0x8, addend: 0x0, symName: __ZNSt3__111basic_regexIcNS_12regex_traitsIcEEE11__push_charEc, symObjAddr: 0x23618, symBinAddr: 0x24160, symSize: 0x13C }
  - { offset: 0x13CBAC, size: 0x8, addend: 0x0, symName: __ZNSt3__111basic_regexIcNS_12regex_traitsIcEEE15__push_back_refEi, symObjAddr: 0x237A0, symBinAddr: 0x242E8, symSize: 0xCC }
  - { offset: 0x13CD83, size: 0x8, addend: 0x0, symName: __ZNSt3__111basic_regexIcNS_12regex_traitsIcEEE30__parse_character_class_escapeINS_11__wrap_iterIPKcEEEET_S9_S9_, symObjAddr: 0x23030, symBinAddr: 0x23B78, symSize: 0x25C }
  - { offset: 0x13D24D, size: 0x8, addend: 0x0, symName: __ZNSt3__111basic_regexIcNS_12regex_traitsIcEEE24__parse_character_escapeINS_11__wrap_iterIPKcEEEET_S9_S9_PNS_12basic_stringIcNS_11char_traitsIcEENS_9allocatorIcEEEE, symObjAddr: 0x2328C, symBinAddr: 0x23DD4, symSize: 0x38C }
  - { offset: 0x13D64E, size: 0x8, addend: 0x0, symName: __ZNSt3__111basic_regexIcNS_12regex_traitsIcEEE11__push_charEc, symObjAddr: 0x23618, symBinAddr: 0x24160, symSize: 0x13C }
  - { offset: 0x13D73A, size: 0x8, addend: 0x0, symName: __ZNSt3__120__bracket_expressionIcNS_12regex_traitsIcEEEC2B8ne190102ERKS2_PNS_6__nodeIcEEbbb, symObjAddr: 0x24148, symBinAddr: 0x24C90, symSize: 0x19C }
  - { offset: 0x13DE85, size: 0x8, addend: 0x0, symName: __ZNSt3__120__bracket_expressionIcNS_12regex_traitsIcEEE10__add_charB8ne190102Ec, symObjAddr: 0x23FB8, symBinAddr: 0x24B00, symSize: 0x190 }
  - { offset: 0x13E139, size: 0x8, addend: 0x0, symName: __ZNSt3__120__bracket_expressionIcNS_12regex_traitsIcEEEC2B8ne190102ERKS2_PNS_6__nodeIcEEbbb, symObjAddr: 0x24148, symBinAddr: 0x24C90, symSize: 0x19C }
  - { offset: 0x13E14C, size: 0x8, addend: 0x0, symName: __ZNSt3__111basic_regexIcNS_12regex_traitsIcEEE23__parse_expression_termINS_11__wrap_iterIPKcEEEET_S9_S9_PNS_20__bracket_expressionIcS2_EE, symObjAddr: 0x2531C, symBinAddr: 0x25E64, symSize: 0x454 }
  - { offset: 0x13F085, size: 0x8, addend: 0x0, symName: __ZNSt3__123__match_any_but_newlineIcED1Ev, symObjAddr: 0x22F54, symBinAddr: 0x23A9C, symSize: 0x48 }
  - { offset: 0x13F0AB, size: 0x8, addend: 0x0, symName: __ZNSt3__123__match_any_but_newlineIcED1Ev, symObjAddr: 0x22F54, symBinAddr: 0x23A9C, symSize: 0x48 }
  - { offset: 0x13F0CB, size: 0x8, addend: 0x0, symName: __ZNSt3__123__match_any_but_newlineIcED1Ev, symObjAddr: 0x22F54, symBinAddr: 0x23A9C, symSize: 0x48 }
  - { offset: 0x13F113, size: 0x8, addend: 0x0, symName: __ZNSt3__123__match_any_but_newlineIcED0Ev, symObjAddr: 0x22F9C, symBinAddr: 0x23AE4, symSize: 0x48 }
  - { offset: 0x13F144, size: 0x8, addend: 0x0, symName: __ZNSt3__123__match_any_but_newlineIcED0Ev, symObjAddr: 0x22F9C, symBinAddr: 0x23AE4, symSize: 0x48 }
  - { offset: 0x13F164, size: 0x8, addend: 0x0, symName: __ZNSt3__123__match_any_but_newlineIcED0Ev, symObjAddr: 0x22F9C, symBinAddr: 0x23AE4, symSize: 0x48 }
  - { offset: 0x13F184, size: 0x8, addend: 0x0, symName: __ZNSt3__123__match_any_but_newlineIcED0Ev, symObjAddr: 0x22F9C, symBinAddr: 0x23AE4, symSize: 0x48 }
  - { offset: 0x13F5D3, size: 0x8, addend: 0x0, symName: __ZNSt3__118__match_char_icaseIcNS_12regex_traitsIcEEED1Ev, symObjAddr: 0x2386C, symBinAddr: 0x243B4, symSize: 0x58 }
  - { offset: 0x13F68A, size: 0x8, addend: 0x0, symName: __ZNSt3__118__match_char_icaseIcNS_12regex_traitsIcEEED0Ev, symObjAddr: 0x238C4, symBinAddr: 0x2440C, symSize: 0x58 }
  - { offset: 0x13F74E, size: 0x8, addend: 0x0, symName: __ZNKSt3__118__match_char_icaseIcNS_12regex_traitsIcEEE6__execERNS_7__stateIcEE, symObjAddr: 0x2391C, symBinAddr: 0x24464, symSize: 0x84 }
  - { offset: 0x13F80E, size: 0x8, addend: 0x0, symName: __ZNSt3__120__match_char_collateIcNS_12regex_traitsIcEEED1Ev, symObjAddr: 0x239A0, symBinAddr: 0x244E8, symSize: 0x58 }
  - { offset: 0x13F8C5, size: 0x8, addend: 0x0, symName: __ZNSt3__120__match_char_collateIcNS_12regex_traitsIcEEED0Ev, symObjAddr: 0x239F8, symBinAddr: 0x24540, symSize: 0x58 }
  - { offset: 0x13F989, size: 0x8, addend: 0x0, symName: __ZNKSt3__120__match_char_collateIcNS_12regex_traitsIcEEE6__execERNS_7__stateIcEE, symObjAddr: 0x23A50, symBinAddr: 0x24598, symSize: 0x48 }
  - { offset: 0x13F9F9, size: 0x8, addend: 0x0, symName: __ZNSt3__112__match_charIcED1Ev, symObjAddr: 0x23A98, symBinAddr: 0x245E0, symSize: 0x48 }
  - { offset: 0x13FA1F, size: 0x8, addend: 0x0, symName: __ZNSt3__112__match_charIcED1Ev, symObjAddr: 0x23A98, symBinAddr: 0x245E0, symSize: 0x48 }
  - { offset: 0x13FA3F, size: 0x8, addend: 0x0, symName: __ZNSt3__112__match_charIcED1Ev, symObjAddr: 0x23A98, symBinAddr: 0x245E0, symSize: 0x48 }
  - { offset: 0x13FA87, size: 0x8, addend: 0x0, symName: __ZNSt3__112__match_charIcED0Ev, symObjAddr: 0x23AE0, symBinAddr: 0x24628, symSize: 0x48 }
  - { offset: 0x13FAB8, size: 0x8, addend: 0x0, symName: __ZNSt3__112__match_charIcED0Ev, symObjAddr: 0x23AE0, symBinAddr: 0x24628, symSize: 0x48 }
  - { offset: 0x13FAD8, size: 0x8, addend: 0x0, symName: __ZNSt3__112__match_charIcED0Ev, symObjAddr: 0x23AE0, symBinAddr: 0x24628, symSize: 0x48 }
  - { offset: 0x13FAF8, size: 0x8, addend: 0x0, symName: __ZNSt3__112__match_charIcED0Ev, symObjAddr: 0x23AE0, symBinAddr: 0x24628, symSize: 0x48 }
  - { offset: 0x13FB24, size: 0x8, addend: 0x0, symName: __ZNKSt3__112__match_charIcE6__execERNS_7__stateIcEE, symObjAddr: 0x23B28, symBinAddr: 0x24670, symSize: 0x48 }
  - { offset: 0x13FB94, size: 0x8, addend: 0x0, symName: __ZNSt3__116__back_ref_icaseIcNS_12regex_traitsIcEEED1Ev, symObjAddr: 0x23B70, symBinAddr: 0x246B8, symSize: 0x58 }
  - { offset: 0x13FC4B, size: 0x8, addend: 0x0, symName: __ZNSt3__116__back_ref_icaseIcNS_12regex_traitsIcEEED0Ev, symObjAddr: 0x23BC8, symBinAddr: 0x24710, symSize: 0x58 }
  - { offset: 0x13FD0F, size: 0x8, addend: 0x0, symName: __ZNKSt3__116__back_ref_icaseIcNS_12regex_traitsIcEEE6__execERNS_7__stateIcEE, symObjAddr: 0x23C20, symBinAddr: 0x24768, symSize: 0xFC }
  - { offset: 0x13FE87, size: 0x8, addend: 0x0, symName: __ZNSt3__118__back_ref_collateIcNS_12regex_traitsIcEEED1Ev, symObjAddr: 0x23D1C, symBinAddr: 0x24864, symSize: 0x58 }
  - { offset: 0x13FF3E, size: 0x8, addend: 0x0, symName: __ZNSt3__118__back_ref_collateIcNS_12regex_traitsIcEEED0Ev, symObjAddr: 0x23D74, symBinAddr: 0x248BC, symSize: 0x58 }
  - { offset: 0x140002, size: 0x8, addend: 0x0, symName: __ZNKSt3__118__back_ref_collateIcNS_12regex_traitsIcEEE6__execERNS_7__stateIcEE, symObjAddr: 0x23DCC, symBinAddr: 0x24914, symSize: 0x8C }
  - { offset: 0x1400DC, size: 0x8, addend: 0x0, symName: __ZNSt3__110__back_refIcED1Ev, symObjAddr: 0x23E58, symBinAddr: 0x249A0, symSize: 0x48 }
  - { offset: 0x140102, size: 0x8, addend: 0x0, symName: __ZNSt3__110__back_refIcED1Ev, symObjAddr: 0x23E58, symBinAddr: 0x249A0, symSize: 0x48 }
  - { offset: 0x140122, size: 0x8, addend: 0x0, symName: __ZNSt3__110__back_refIcED1Ev, symObjAddr: 0x23E58, symBinAddr: 0x249A0, symSize: 0x48 }
  - { offset: 0x14016A, size: 0x8, addend: 0x0, symName: __ZNSt3__110__back_refIcED0Ev, symObjAddr: 0x23EA0, symBinAddr: 0x249E8, symSize: 0x48 }
  - { offset: 0x14019B, size: 0x8, addend: 0x0, symName: __ZNSt3__110__back_refIcED0Ev, symObjAddr: 0x23EA0, symBinAddr: 0x249E8, symSize: 0x48 }
  - { offset: 0x1401BB, size: 0x8, addend: 0x0, symName: __ZNSt3__110__back_refIcED0Ev, symObjAddr: 0x23EA0, symBinAddr: 0x249E8, symSize: 0x48 }
  - { offset: 0x1401DB, size: 0x8, addend: 0x0, symName: __ZNSt3__110__back_refIcED0Ev, symObjAddr: 0x23EA0, symBinAddr: 0x249E8, symSize: 0x48 }
  - { offset: 0x14020D, size: 0x8, addend: 0x0, symName: __ZNKSt3__110__back_refIcE6__execERNS_7__stateIcEE, symObjAddr: 0x23EE8, symBinAddr: 0x24A30, symSize: 0xD0 }
  - { offset: 0x1403A0, size: 0x8, addend: 0x0, symName: __ZNSt3__120__bracket_expressionIcNS_12regex_traitsIcEEE10__add_charB8ne190102Ec, symObjAddr: 0x23FB8, symBinAddr: 0x24B00, symSize: 0x190 }
  - { offset: 0x1405F6, size: 0x8, addend: 0x0, symName: __ZNSt3__16vectorINS_4pairINS_12basic_stringIcNS_11char_traitsIcEENS_9allocatorIcEEEES7_EENS5_IS8_EEED1B8ne190102Ev, symObjAddr: 0x242E4, symBinAddr: 0x24E2C, symSize: 0x94 }
  - { offset: 0x140B54, size: 0x8, addend: 0x0, symName: __ZNSt3__120__bracket_expressionIcNS_12regex_traitsIcEEED1Ev, symObjAddr: 0x24378, symBinAddr: 0x24EC0, symSize: 0x4 }
  - { offset: 0x140B78, size: 0x8, addend: 0x0, symName: __ZNSt3__120__bracket_expressionIcNS_12regex_traitsIcEEED1Ev, symObjAddr: 0x24378, symBinAddr: 0x24EC0, symSize: 0x4 }
  - { offset: 0x140B8C, size: 0x8, addend: 0x0, symName: __ZNSt3__120__bracket_expressionIcNS_12regex_traitsIcEEED2Ev, symObjAddr: 0x24C6C, symBinAddr: 0x257B4, symSize: 0x148 }
  - { offset: 0x1416F7, size: 0x8, addend: 0x0, symName: __ZNSt3__120__bracket_expressionIcNS_12regex_traitsIcEEED0Ev, symObjAddr: 0x2437C, symBinAddr: 0x24EC4, symSize: 0x14 }
  - { offset: 0x141B7A, size: 0x8, addend: 0x0, symName: __ZNKSt3__120__bracket_expressionIcNS_12regex_traitsIcEEE6__execERNS_7__stateIcEE, symObjAddr: 0x24390, symBinAddr: 0x24ED8, symSize: 0x884 }
  - { offset: 0x143632, size: 0x8, addend: 0x0, symName: __ZNKSt3__112regex_traitsIcE20__lookup_collatenameIPcEENS_12basic_stringIcNS_11char_traitsIcEENS_9allocatorIcEEEET_SA_c, symObjAddr: 0x24EEC, symBinAddr: 0x25A34, symSize: 0x240 }
  - { offset: 0x1442D9, size: 0x8, addend: 0x0, symName: __ZNKSt3__112regex_traitsIcE9transformIPcEENS_12basic_stringIcNS_11char_traitsIcEENS_9allocatorIcEEEET_SA_, symObjAddr: 0x24DB4, symBinAddr: 0x258FC, symSize: 0x138 }
  - { offset: 0x144949, size: 0x8, addend: 0x0, symName: __ZNKSt3__112regex_traitsIcE19__transform_primaryIPcEENS_12basic_stringIcNS_11char_traitsIcEENS_9allocatorIcEEEET_SA_c, symObjAddr: 0x2512C, symBinAddr: 0x25C74, symSize: 0x1A4 }
  - { offset: 0x145151, size: 0x8, addend: 0x0, symName: __ZNSt3__14pairINS_12basic_stringIcNS_11char_traitsIcEENS_9allocatorIcEEEES6_ED1Ev, symObjAddr: 0x24C14, symBinAddr: 0x2575C, symSize: 0x58 }
  - { offset: 0x145445, size: 0x8, addend: 0x0, symName: __ZNSt3__111basic_regexIcNS_12regex_traitsIcEEE25__parse_equivalence_classINS_11__wrap_iterIPKcEEEET_S9_S9_PNS_20__bracket_expressionIcS2_EE, symObjAddr: 0x25770, symBinAddr: 0x262B8, symSize: 0x28C }
  - { offset: 0x145F97, size: 0x8, addend: 0x0, symName: __ZNSt3__111basic_regexIcNS_12regex_traitsIcEEE18__parse_awk_escapeINS_11__wrap_iterIPKcEEEET_S9_S9_PNS_12basic_stringIcNS_11char_traitsIcEENS_9allocatorIcEEEE, symObjAddr: 0x25D10, symBinAddr: 0x26858, symSize: 0x2F8 }
  - { offset: 0x14618A, size: 0x8, addend: 0x0, symName: __ZNSt3__120__bracket_expressionIcNS_12regex_traitsIcEEE11__add_rangeB8ne190102ENS_12basic_stringIcNS_11char_traitsIcEENS_9allocatorIcEEEES9_, symObjAddr: 0x26008, symBinAddr: 0x26B50, symSize: 0x608 }
  - { offset: 0x14619E, size: 0x8, addend: 0x0, symName: __ZNSt3__111basic_regexIcNS_12regex_traitsIcEEE24__parse_collating_symbolINS_11__wrap_iterIPKcEEEET_S9_S9_RNS_12basic_stringIcNS_11char_traitsIcEENS_9allocatorIcEEEE, symObjAddr: 0x25AA8, symBinAddr: 0x265F0, symSize: 0xE0 }
  - { offset: 0x14653E, size: 0x8, addend: 0x0, symName: __ZNSt3__111basic_regexIcNS_12regex_traitsIcEEE20__parse_class_escapeINS_11__wrap_iterIPKcEEEET_S9_S9_RNS_12basic_stringIcNS_11char_traitsIcEENS_9allocatorIcEEEEPNS_20__bracket_expressionIcS2_EE, symObjAddr: 0x25B88, symBinAddr: 0x266D0, symSize: 0x188 }
  - { offset: 0x146552, size: 0x8, addend: 0x0, symName: __ZNSt3__111basic_regexIcNS_12regex_traitsIcEEE23__parse_character_classINS_11__wrap_iterIPKcEEEET_S9_S9_PNS_20__bracket_expressionIcS2_EE, symObjAddr: 0x259FC, symBinAddr: 0x26544, symSize: 0xAC }
  - { offset: 0x1467CA, size: 0x8, addend: 0x0, symName: __ZNSt3__111basic_regexIcNS_12regex_traitsIcEEE24__parse_collating_symbolINS_11__wrap_iterIPKcEEEET_S9_S9_RNS_12basic_stringIcNS_11char_traitsIcEENS_9allocatorIcEEEE, symObjAddr: 0x25AA8, symBinAddr: 0x265F0, symSize: 0xE0 }
  - { offset: 0x1467EA, size: 0x8, addend: 0x0, symName: __ZNSt3__120__bracket_expressionIcNS_12regex_traitsIcEEE13__add_digraphB8ne190102Ecc, symObjAddr: 0x26610, symBinAddr: 0x27158, symSize: 0x224 }
  - { offset: 0x1471B0, size: 0x8, addend: 0x0, symName: __ZNSt3__119__throw_regex_errorB8ne190102ILNS_15regex_constants10error_typeE1EEEvv, symObjAddr: 0x26834, symBinAddr: 0x2737C, symSize: 0x4C }
  - { offset: 0x1471BB, size: 0x8, addend: 0x0, symName: __ZNSt3__111basic_regexIcNS_12regex_traitsIcEEE20__parse_class_escapeINS_11__wrap_iterIPKcEEEET_S9_S9_RNS_12basic_stringIcNS_11char_traitsIcEENS_9allocatorIcEEEEPNS_20__bracket_expressionIcS2_EE, symObjAddr: 0x25B88, symBinAddr: 0x266D0, symSize: 0x188 }
  - { offset: 0x1473A7, size: 0x8, addend: 0x0, symName: __ZNSt3__111basic_regexIcNS_12regex_traitsIcEEE18__parse_awk_escapeINS_11__wrap_iterIPKcEEEET_S9_S9_PNS_12basic_stringIcNS_11char_traitsIcEENS_9allocatorIcEEEE, symObjAddr: 0x25D10, symBinAddr: 0x26858, symSize: 0x2F8 }
  - { offset: 0x1473BB, size: 0x8, addend: 0x0, symName: __ZNSt3__120__bracket_expressionIcNS_12regex_traitsIcEEE11__add_rangeB8ne190102ENS_12basic_stringIcNS_11char_traitsIcEENS_9allocatorIcEEEES9_, symObjAddr: 0x26008, symBinAddr: 0x26B50, symSize: 0x608 }
  - { offset: 0x14913F, size: 0x8, addend: 0x0, symName: __ZNKSt3__112regex_traitsIcE20__lookup_collatenameINS_11__wrap_iterIPKcEEEENS_12basic_stringIcNS_11char_traitsIcEENS_9allocatorIcEEEET_SD_c, symObjAddr: 0x26880, symBinAddr: 0x273C8, symSize: 0x240 }
  - { offset: 0x149DFB, size: 0x8, addend: 0x0, symName: __ZNKSt3__112regex_traitsIcE19__transform_primaryINS_11__wrap_iterIPcEEEENS_12basic_stringIcNS_11char_traitsIcEENS_9allocatorIcEEEET_SC_c, symObjAddr: 0x26AC0, symBinAddr: 0x27608, symSize: 0x1A4 }
  - { offset: 0x14A618, size: 0x8, addend: 0x0, symName: __ZNSt3__16vectorINS_12basic_stringIcNS_11char_traitsIcEENS_9allocatorIcEEEENS4_IS6_EEE21__push_back_slow_pathIRKS6_EEPS6_OT_, symObjAddr: 0x26C64, symBinAddr: 0x277AC, symSize: 0x158 }
  - { offset: 0x14AB4B, size: 0x8, addend: 0x0, symName: __ZNKSt3__112regex_traitsIcE18__lookup_classnameINS_11__wrap_iterIPKcEEEEjT_S7_bc, symObjAddr: 0x26E80, symBinAddr: 0x279C8, symSize: 0x158 }
  - { offset: 0x14B2D5, size: 0x8, addend: 0x0, symName: __ZNSt3__120__bracket_expressionIcNS_12regex_traitsIcEEE14__add_neg_charB8ne190102Ec, symObjAddr: 0x26FD8, symBinAddr: 0x27B20, symSize: 0x190 }
  - { offset: 0x14B589, size: 0x8, addend: 0x0, symName: __ZNKSt3__112regex_traitsIcE9transformINS_11__wrap_iterIPcEEEENS_12basic_stringIcNS_11char_traitsIcEENS_9allocatorIcEEEET_SC_, symObjAddr: 0x27168, symBinAddr: 0x27CB0, symSize: 0x138 }
  - { offset: 0x14B968, size: 0x8, addend: 0x0, symName: __ZNKSt3__112regex_traitsIcE9transformINS_11__wrap_iterIPcEEEENS_12basic_stringIcNS_11char_traitsIcEENS_9allocatorIcEEEET_SC_, symObjAddr: 0x27168, symBinAddr: 0x27CB0, symSize: 0x138 }
  - { offset: 0x14C00F, size: 0x8, addend: 0x0, symName: __ZNKSt3__16vectorINS_4pairINS_12basic_stringIcNS_11char_traitsIcEENS_9allocatorIcEEEES7_EENS5_IS8_EEE20__throw_length_errorB8ne190102Ev, symObjAddr: 0x272EC, symBinAddr: 0x27E34, symSize: 0x14 }
  - { offset: 0x14C039, size: 0x8, addend: 0x0, symName: __ZNKSt3__16vectorINS_4pairIccEENS_9allocatorIS2_EEE20__throw_length_errorB8ne190102Ev, symObjAddr: 0x27300, symBinAddr: 0x27E48, symSize: 0x14 }
  - { offset: 0x14C317, size: 0x8, addend: 0x0, symName: __ZNKSt3__16vectorINS_4pairIccEENS_9allocatorIS2_EEE20__throw_length_errorB8ne190102Ev, symObjAddr: 0x27300, symBinAddr: 0x27E48, symSize: 0x14 }
  - { offset: 0x14C341, size: 0x8, addend: 0x0, symName: __ZNSt3__128__begin_marked_subexpressionIcED1Ev, symObjAddr: 0x27314, symBinAddr: 0x27E5C, symSize: 0x48 }
  - { offset: 0x14C58D, size: 0x8, addend: 0x0, symName: __ZNSt3__114__split_bufferINS_12basic_stringIcNS_11char_traitsIcEENS_9allocatorIcEEEERNS4_IS6_EEED1Ev, symObjAddr: 0x26DBC, symBinAddr: 0x27904, symSize: 0x64 }
  - { offset: 0x14C8A5, size: 0x8, addend: 0x0, symName: __ZNSt3__128__begin_marked_subexpressionIcED1Ev, symObjAddr: 0x27314, symBinAddr: 0x27E5C, symSize: 0x48 }
  - { offset: 0x14C8CB, size: 0x8, addend: 0x0, symName: __ZNSt3__128__begin_marked_subexpressionIcED1Ev, symObjAddr: 0x27314, symBinAddr: 0x27E5C, symSize: 0x48 }
  - { offset: 0x14C8EB, size: 0x8, addend: 0x0, symName: __ZNSt3__128__begin_marked_subexpressionIcED1Ev, symObjAddr: 0x27314, symBinAddr: 0x27E5C, symSize: 0x48 }
  - { offset: 0x14C933, size: 0x8, addend: 0x0, symName: __ZNSt3__128__begin_marked_subexpressionIcED0Ev, symObjAddr: 0x2735C, symBinAddr: 0x27EA4, symSize: 0x48 }
  - { offset: 0x14C964, size: 0x8, addend: 0x0, symName: __ZNSt3__128__begin_marked_subexpressionIcED0Ev, symObjAddr: 0x2735C, symBinAddr: 0x27EA4, symSize: 0x48 }
  - { offset: 0x14C984, size: 0x8, addend: 0x0, symName: __ZNSt3__128__begin_marked_subexpressionIcED0Ev, symObjAddr: 0x2735C, symBinAddr: 0x27EA4, symSize: 0x48 }
  - { offset: 0x14C9A4, size: 0x8, addend: 0x0, symName: __ZNSt3__128__begin_marked_subexpressionIcED0Ev, symObjAddr: 0x2735C, symBinAddr: 0x27EA4, symSize: 0x48 }
  - { offset: 0x14C9D0, size: 0x8, addend: 0x0, symName: __ZNKSt3__128__begin_marked_subexpressionIcE6__execERNS_7__stateIcEE, symObjAddr: 0x273A4, symBinAddr: 0x27EEC, symSize: 0x30 }
  - { offset: 0x14CA61, size: 0x8, addend: 0x0, symName: __ZNSt3__126__end_marked_subexpressionIcED1Ev, symObjAddr: 0x273D4, symBinAddr: 0x27F1C, symSize: 0x48 }
  - { offset: 0x14CA87, size: 0x8, addend: 0x0, symName: __ZNSt3__126__end_marked_subexpressionIcED1Ev, symObjAddr: 0x273D4, symBinAddr: 0x27F1C, symSize: 0x48 }
  - { offset: 0x14CAA7, size: 0x8, addend: 0x0, symName: __ZNSt3__126__end_marked_subexpressionIcED1Ev, symObjAddr: 0x273D4, symBinAddr: 0x27F1C, symSize: 0x48 }
  - { offset: 0x14CAEF, size: 0x8, addend: 0x0, symName: __ZNSt3__126__end_marked_subexpressionIcED0Ev, symObjAddr: 0x2741C, symBinAddr: 0x27F64, symSize: 0x48 }
  - { offset: 0x14CB20, size: 0x8, addend: 0x0, symName: __ZNSt3__126__end_marked_subexpressionIcED0Ev, symObjAddr: 0x2741C, symBinAddr: 0x27F64, symSize: 0x48 }
  - { offset: 0x14CB40, size: 0x8, addend: 0x0, symName: __ZNSt3__126__end_marked_subexpressionIcED0Ev, symObjAddr: 0x2741C, symBinAddr: 0x27F64, symSize: 0x48 }
  - { offset: 0x14CB60, size: 0x8, addend: 0x0, symName: __ZNSt3__126__end_marked_subexpressionIcED0Ev, symObjAddr: 0x2741C, symBinAddr: 0x27F64, symSize: 0x48 }
  - { offset: 0x14CB8C, size: 0x8, addend: 0x0, symName: __ZNKSt3__126__end_marked_subexpressionIcE6__execERNS_7__stateIcEE, symObjAddr: 0x27464, symBinAddr: 0x27FAC, symSize: 0x38 }
  - { offset: 0x14CEB7, size: 0x8, addend: 0x0, symName: __ZNSt3__16__loopIcED0Ev, symObjAddr: 0x276D4, symBinAddr: 0x2821C, symSize: 0x68 }
  - { offset: 0x14CFB0, size: 0x8, addend: 0x0, symName: __ZNSt3__16__loopIcED1Ev, symObjAddr: 0x2766C, symBinAddr: 0x281B4, symSize: 0x68 }
  - { offset: 0x14D0DB, size: 0x8, addend: 0x0, symName: __ZNKSt3__16__loopIcE6__execERNS_7__stateIcEE, symObjAddr: 0x2773C, symBinAddr: 0x28284, symSize: 0x1F8 }
  - { offset: 0x14D223, size: 0x8, addend: 0x0, symName: __ZNKSt3__16__loopIcE12__exec_splitEbRNS_7__stateIcEE, symObjAddr: 0x27934, symBinAddr: 0x2847C, symSize: 0xD8 }
  - { offset: 0x14D2FF, size: 0x8, addend: 0x0, symName: __ZNSt3__117__owns_two_statesIcED1Ev, symObjAddr: 0x27A0C, symBinAddr: 0x28554, symSize: 0x68 }
  - { offset: 0x14D392, size: 0x8, addend: 0x0, symName: __ZNSt3__117__owns_two_statesIcED0Ev, symObjAddr: 0x27A74, symBinAddr: 0x285BC, symSize: 0x68 }
  - { offset: 0x14D432, size: 0x8, addend: 0x0, symName: __ZNSt3__117__repeat_one_loopIcED1Ev, symObjAddr: 0x27ADC, symBinAddr: 0x28624, symSize: 0x4 }
  - { offset: 0x14D45E, size: 0x8, addend: 0x0, symName: __ZNSt3__117__repeat_one_loopIcED0Ev, symObjAddr: 0x27AE0, symBinAddr: 0x28628, symSize: 0x4 }
  - { offset: 0x14D48A, size: 0x8, addend: 0x0, symName: __ZNKSt3__117__repeat_one_loopIcE6__execERNS_7__stateIcEE, symObjAddr: 0x27AE4, symBinAddr: 0x2862C, symSize: 0x14 }
  - { offset: 0x14D4FA, size: 0x8, addend: 0x0, symName: __ZNSt3__111__alternateIcED1Ev, symObjAddr: 0x27AF8, symBinAddr: 0x28640, symSize: 0x68 }
  - { offset: 0x14D5AF, size: 0x8, addend: 0x0, symName: __ZNSt3__111__alternateIcED0Ev, symObjAddr: 0x27B60, symBinAddr: 0x286A8, symSize: 0x68 }
  - { offset: 0x14D671, size: 0x8, addend: 0x0, symName: __ZNKSt3__111__alternateIcE6__execERNS_7__stateIcEE, symObjAddr: 0x27BC8, symBinAddr: 0x28710, symSize: 0xC }
  - { offset: 0x14D6A5, size: 0x8, addend: 0x0, symName: __ZNKSt3__111__alternateIcE12__exec_splitEbRNS_7__stateIcEE, symObjAddr: 0x27BD4, symBinAddr: 0x2871C, symSize: 0x24 }
  - { offset: 0x14D6ED, size: 0x8, addend: 0x0, symName: __ZNSt3__121__empty_non_own_stateIcED1Ev, symObjAddr: 0x27BF8, symBinAddr: 0x28740, symSize: 0x4 }
  - { offset: 0x14D719, size: 0x8, addend: 0x0, symName: __ZNSt3__121__empty_non_own_stateIcED0Ev, symObjAddr: 0x27BFC, symBinAddr: 0x28744, symSize: 0x4 }
  - { offset: 0x14D745, size: 0x8, addend: 0x0, symName: __ZNKSt3__121__empty_non_own_stateIcE6__execERNS_7__stateIcEE, symObjAddr: 0x27C00, symBinAddr: 0x28748, symSize: 0x14 }
  - { offset: 0x14D89C, size: 0x8, addend: 0x0, symName: __ZNSt3__111basic_regexIcNS_12regex_traitsIcEEE32__parse_one_char_or_coll_elem_REINS_11__wrap_iterIPKcEEEET_S9_S9_, symObjAddr: 0x280F0, symBinAddr: 0x28C38, symSize: 0x194 }
  - { offset: 0x14DC50, size: 0x8, addend: 0x0, symName: __ZNSt3__111__match_anyIcED1Ev, symObjAddr: 0x28284, symBinAddr: 0x28DCC, symSize: 0x48 }
  - { offset: 0x14DC76, size: 0x8, addend: 0x0, symName: __ZNSt3__111__match_anyIcED1Ev, symObjAddr: 0x28284, symBinAddr: 0x28DCC, symSize: 0x48 }
  - { offset: 0x14DC96, size: 0x8, addend: 0x0, symName: __ZNSt3__111__match_anyIcED1Ev, symObjAddr: 0x28284, symBinAddr: 0x28DCC, symSize: 0x48 }
  - { offset: 0x14DCDE, size: 0x8, addend: 0x0, symName: __ZNSt3__111__match_anyIcED0Ev, symObjAddr: 0x282CC, symBinAddr: 0x28E14, symSize: 0x48 }
  - { offset: 0x14DD0F, size: 0x8, addend: 0x0, symName: __ZNSt3__111__match_anyIcED0Ev, symObjAddr: 0x282CC, symBinAddr: 0x28E14, symSize: 0x48 }
  - { offset: 0x14DD2F, size: 0x8, addend: 0x0, symName: __ZNSt3__111__match_anyIcED0Ev, symObjAddr: 0x282CC, symBinAddr: 0x28E14, symSize: 0x48 }
  - { offset: 0x14DD4F, size: 0x8, addend: 0x0, symName: __ZNSt3__111__match_anyIcED0Ev, symObjAddr: 0x282CC, symBinAddr: 0x28E14, symSize: 0x48 }
  - { offset: 0x14DD7B, size: 0x8, addend: 0x0, symName: __ZNKSt3__111__match_anyIcE6__execERNS_7__stateIcEE, symObjAddr: 0x28314, symBinAddr: 0x28E5C, symSize: 0x40 }
  - { offset: 0x14DDCE, size: 0x8, addend: 0x0, symName: __ZNSt3__111basic_regexIcNS_12regex_traitsIcEEE15__test_back_refEc, symObjAddr: 0x28354, symBinAddr: 0x28E9C, symSize: 0x60 }
  - { offset: 0x14DED6, size: 0x8, addend: 0x0, symName: __ZNSt3__111basic_regexIcNS_12regex_traitsIcEEE22__parse_ERE_expressionINS_11__wrap_iterIPKcEEEET_S9_S9_, symObjAddr: 0x283B4, symBinAddr: 0x28EFC, symSize: 0x208 }
  - { offset: 0x14DEE1, size: 0x8, addend: 0x0, symName: __ZNSt3__111basic_regexIcNS_12regex_traitsIcEEE33__parse_one_char_or_coll_elem_EREINS_11__wrap_iterIPKcEEEET_S9_S9_, symObjAddr: 0x285BC, symBinAddr: 0x29104, symSize: 0x160 }
  - { offset: 0x14E124, size: 0x8, addend: 0x0, symName: __ZNSt3__111basic_regexIcNS_12regex_traitsIcEEE23__parse_QUOTED_CHAR_EREINS_11__wrap_iterIPKcEEEET_S9_S9_, symObjAddr: 0x2871C, symBinAddr: 0x29264, symSize: 0xC8 }
  - { offset: 0x14E2DA, size: 0x8, addend: 0x0, symName: __ZNKSt3__111basic_regexIcNS_12regex_traitsIcEEE27__match_at_start_posix_subsINS_9allocatorINS_9sub_matchIPKcEEEEEEbS8_S8_RNS_13match_resultsIS8_T_EENS_15regex_constants15match_flag_typeEb, symObjAddr: 0x29574, symBinAddr: 0x2A0BC, symSize: 0x5AC }
  - { offset: 0x15033A, size: 0x8, addend: 0x0, symName: __ZNKSt3__111basic_regexIcNS_12regex_traitsIcEEE29__match_at_start_posix_nosubsINS_9allocatorINS_9sub_matchIPKcEEEEEEbS8_S8_RNS_13match_resultsIS8_T_EENS_15regex_constants15match_flag_typeEb, symObjAddr: 0x28C98, symBinAddr: 0x297E0, symSize: 0x8DC }
  - { offset: 0x152593, size: 0x8, addend: 0x0, symName: __ZNSt3__16vectorINS_9sub_matchINS_11__wrap_iterIPKcEEEENS_9allocatorIS6_EEE8__appendEm, symObjAddr: 0x2AF64, symBinAddr: 0x2BAAC, symSize: 0x17C }
  - { offset: 0x152A85, size: 0x8, addend: 0x0, symName: __ZNKSt3__16vectorINS_9sub_matchINS_11__wrap_iterIPKcEEEENS_9allocatorIS6_EEE20__throw_length_errorB8ne190102Ev, symObjAddr: 0x2B0E0, symBinAddr: 0x2BC28, symSize: 0x14 }
  - { offset: 0x152EF7, size: 0x8, addend: 0x0, symName: __ZNSt3__15dequeINS_7__stateIcEENS_9allocatorIS2_EEE19__add_back_capacityEv, symObjAddr: 0x29CF0, symBinAddr: 0x2A838, symSize: 0x558 }
  - { offset: 0x15428D, size: 0x8, addend: 0x0, symName: __ZNSt3__15dequeINS_7__stateIcEENS_9allocatorIS2_EEE20__add_front_capacityEv, symObjAddr: 0x2A55C, symBinAddr: 0x2B0A4, symSize: 0x374 }
  - { offset: 0x15514E, size: 0x8, addend: 0x0, symName: __ZNSt3__15dequeINS_7__stateIcEENS_9allocatorIS2_EEED1B8ne190102Ev, symObjAddr: 0x29C7C, symBinAddr: 0x2A7C4, symSize: 0x74 }
  - { offset: 0x155529, size: 0x8, addend: 0x0, symName: __ZNSt3__16vectorINS_9sub_matchIPKcEENS_9allocatorIS4_EEE18__assign_with_sizeB8ne190102IPS4_S9_EEvT_T0_l, symObjAddr: 0x2AA60, symBinAddr: 0x2B5A8, symSize: 0x204 }
  - { offset: 0x155D87, size: 0x8, addend: 0x0, symName: __ZNSt3__16vectorINS_4pairImPKcEENS_9allocatorIS4_EEE18__assign_with_sizeB8ne190102IPS4_S9_EEvT_T0_l, symObjAddr: 0x2AC64, symBinAddr: 0x2B7AC, symSize: 0x300 }
  - { offset: 0x155DAC, size: 0x8, addend: 0x0, symName: __ZNSt3__16vectorINS_4pairImPKcEENS_9allocatorIS4_EEE18__assign_with_sizeB8ne190102IPS4_S9_EEvT_T0_l, symObjAddr: 0x2AC64, symBinAddr: 0x2B7AC, symSize: 0x300 }
  - { offset: 0x1565D3, size: 0x8, addend: 0x0, symName: __ZNSt3__16vectorINS_9sub_matchINS_11__wrap_iterIPKcEEEENS_9allocatorIS6_EEE8__appendEm, symObjAddr: 0x2AF64, symBinAddr: 0x2BAAC, symSize: 0x17C }
  - { offset: 0x15660E, size: 0x8, addend: 0x0, symName: __ZNSt3__15dequeINS_7__stateIcEENS_9allocatorIS2_EEE5clearEv, symObjAddr: 0x29B20, symBinAddr: 0x2A668, symSize: 0x15C }
  - { offset: 0x15714C, size: 0x8, addend: 0x0, symName: __ZNSt3__114__split_bufferIPNS_7__stateIcEENS_9allocatorIS3_EEE9push_backEOS3_, symObjAddr: 0x2A248, symBinAddr: 0x2AD90, symSize: 0x184 }
  - { offset: 0x15761B, size: 0x8, addend: 0x0, symName: __ZNSt3__114__split_bufferIPNS_7__stateIcEENS_9allocatorIS3_EEE10push_frontEOS3_, symObjAddr: 0x2A3CC, symBinAddr: 0x2AF14, symSize: 0x190 }
  - { offset: 0x157626, size: 0x8, addend: 0x0, symName: __ZNSt3__114__split_bufferIPNS_7__stateIcEENS_9allocatorIS3_EEE10push_frontEOS3_, symObjAddr: 0x2A3CC, symBinAddr: 0x2AF14, symSize: 0x190 }
  - { offset: 0x157B2D, size: 0x8, addend: 0x0, symName: __ZNSt3__15dequeINS_7__stateIcEENS_9allocatorIS2_EEE20__add_front_capacityEv, symObjAddr: 0x2A55C, symBinAddr: 0x2B0A4, symSize: 0x374 }
  - { offset: 0x157B9C, size: 0x8, addend: 0x0, symName: __ZNSt3__114__split_bufferIPNS_7__stateIcEENS_9allocatorIS3_EEE10push_frontERKS3_, symObjAddr: 0x2A8D0, symBinAddr: 0x2B418, symSize: 0x190 }
  - { offset: 0x1580A3, size: 0x8, addend: 0x0, symName: __ZNSt3__16vectorINS_9sub_matchIPKcEENS_9allocatorIS4_EEE18__assign_with_sizeB8ne190102IPS4_S9_EEvT_T0_l, symObjAddr: 0x2AA60, symBinAddr: 0x2B5A8, symSize: 0x204 }
  - { offset: 0x1584BF, size: 0x8, addend: 0x0, symName: __ZNKSt3__16vectorINS_9sub_matchINS_11__wrap_iterIPKcEEEENS_9allocatorIS6_EEE20__throw_length_errorB8ne190102Ev, symObjAddr: 0x2B0E0, symBinAddr: 0x2BC28, symSize: 0x14 }
  - { offset: 0x1584E9, size: 0x8, addend: 0x0, symName: __ZNKSt3__112basic_stringIcNS_11char_traitsIcEENS_9allocatorIcEEE20__throw_out_of_rangeB8ne190102Ev, symObjAddr: 0x2B0F4, symBinAddr: 0x2BC3C, symSize: 0x14 }
  - { offset: 0x158550, size: 0x8, addend: 0x0, symName: '__ZZ38whisper_vad_init_from_file_with_paramsEN3$_08__invokeEPvS0_m', symObjAddr: 0x2B108, symBinAddr: 0x2BC50, symSize: 0x24 }
  - { offset: 0x158611, size: 0x8, addend: 0x0, symName: '__ZZ38whisper_vad_init_from_file_with_paramsEN3$_18__invokeEPv', symObjAddr: 0x2B12C, symBinAddr: 0x2BC74, symSize: 0x18 }
  - { offset: 0x15863E, size: 0x8, addend: 0x0, symName: '__ZZ38whisper_vad_init_from_file_with_paramsEN3$_18__invokeEPv', symObjAddr: 0x2B12C, symBinAddr: 0x2BC74, symSize: 0x18 }
  - { offset: 0x1586E8, size: 0x8, addend: 0x0, symName: '__ZZ38whisper_vad_init_from_file_with_paramsEN3$_28__invokeEPv', symObjAddr: 0x2B144, symBinAddr: 0x2BC8C, symSize: 0x48 }
  - { offset: 0x15879A, size: 0x8, addend: 0x0, symName: '__ZNSt3__110__function6__funcIZL24whisper_vad_init_contextP19whisper_vad_contextE3$_0NS_9allocatorIS4_EEFP11ggml_cgraphvEED1Ev', symObjAddr: 0x2B1E0, symBinAddr: 0x2BD28, symSize: 0x4 }
  - { offset: 0x1587C5, size: 0x8, addend: 0x0, symName: '__ZNSt3__110__function6__funcIZL24whisper_vad_init_contextP19whisper_vad_contextE3$_0NS_9allocatorIS4_EEFP11ggml_cgraphvEED0Ev', symObjAddr: 0x2B1E4, symBinAddr: 0x2BD2C, symSize: 0x4 }
  - { offset: 0x15887B, size: 0x8, addend: 0x0, symName: '__ZNKSt3__110__function6__funcIZL24whisper_vad_init_contextP19whisper_vad_contextE3$_0NS_9allocatorIS4_EEFP11ggml_cgraphvEE7__cloneEv', symObjAddr: 0x2B1E8, symBinAddr: 0x2BD30, symSize: 0x34 }
  - { offset: 0x1589CF, size: 0x8, addend: 0x0, symName: '__ZNKSt3__110__function6__funcIZL24whisper_vad_init_contextP19whisper_vad_contextE3$_0NS_9allocatorIS4_EEFP11ggml_cgraphvEE7__cloneEPNS0_6__baseIS9_EE', symObjAddr: 0x2B21C, symBinAddr: 0x2BD64, symSize: 0x14 }
  - { offset: 0x158A41, size: 0x8, addend: 0x0, symName: '__ZNSt3__110__function6__funcIZL24whisper_vad_init_contextP19whisper_vad_contextE3$_0NS_9allocatorIS4_EEFP11ggml_cgraphvEE7destroyEv', symObjAddr: 0x2B230, symBinAddr: 0x2BD78, symSize: 0x4 }
  - { offset: 0x158A90, size: 0x8, addend: 0x0, symName: '__ZNSt3__110__function6__funcIZL24whisper_vad_init_contextP19whisper_vad_contextE3$_0NS_9allocatorIS4_EEFP11ggml_cgraphvEE18destroy_deallocateEv', symObjAddr: 0x2B234, symBinAddr: 0x2BD7C, symSize: 0x4 }
  - { offset: 0x158AC6, size: 0x8, addend: 0x0, symName: '__ZNSt3__110__function6__funcIZL24whisper_vad_init_contextP19whisper_vad_contextE3$_0NS_9allocatorIS4_EEFP11ggml_cgraphvEE18destroy_deallocateEv', symObjAddr: 0x2B234, symBinAddr: 0x2BD7C, symSize: 0x4 }
  - { offset: 0x158AEB, size: 0x8, addend: 0x0, symName: '__ZNSt3__110__function6__funcIZL24whisper_vad_init_contextP19whisper_vad_contextE3$_0NS_9allocatorIS4_EEFP11ggml_cgraphvEE18destroy_deallocateEv', symObjAddr: 0x2B234, symBinAddr: 0x2BD7C, symSize: 0x4 }
  - { offset: 0x158B1A, size: 0x8, addend: 0x0, symName: '__ZNSt3__110__function6__funcIZL24whisper_vad_init_contextP19whisper_vad_contextE3$_0NS_9allocatorIS4_EEFP11ggml_cgraphvEE18destroy_deallocateEv', symObjAddr: 0x2B234, symBinAddr: 0x2BD7C, symSize: 0x4 }
  - { offset: 0x158B43, size: 0x8, addend: 0x0, symName: '__ZNSt3__110__function6__funcIZL24whisper_vad_init_contextP19whisper_vad_contextE3$_0NS_9allocatorIS4_EEFP11ggml_cgraphvEE18destroy_deallocateEv', symObjAddr: 0x2B234, symBinAddr: 0x2BD7C, symSize: 0x4 }
  - { offset: 0x158BC2, size: 0x8, addend: 0x0, symName: '__ZNSt3__110__function6__funcIZL24whisper_vad_init_contextP19whisper_vad_contextE3$_0NS_9allocatorIS4_EEFP11ggml_cgraphvEEclEv', symObjAddr: 0x2B238, symBinAddr: 0x2BD80, symSize: 0xC }
  - { offset: 0x158C4F, size: 0x8, addend: 0x0, symName: '__ZNKSt3__110__function6__funcIZL24whisper_vad_init_contextP19whisper_vad_contextE3$_0NS_9allocatorIS4_EEFP11ggml_cgraphvEE6targetERKSt9type_info', symObjAddr: 0x2B244, symBinAddr: 0x2BD8C, symSize: 0x64 }
  - { offset: 0x158D0D, size: 0x8, addend: 0x0, symName: '__ZNKSt3__110__function6__funcIZL24whisper_vad_init_contextP19whisper_vad_contextE3$_0NS_9allocatorIS4_EEFP11ggml_cgraphvEE11target_typeEv', symObjAddr: 0x2B2A8, symBinAddr: 0x2BDF0, symSize: 0xC }
  - { offset: 0x159239, size: 0x8, addend: 0x0, symName: __ZNSt3__16vectorINS0_IPK23whisper_grammar_elementNS_9allocatorIS3_EEEENS4_IS6_EEE21__push_back_slow_pathIRKS6_EEPS6_OT_, symObjAddr: 0x2B9E4, symBinAddr: 0x2C52C, symSize: 0x17C }
  - { offset: 0x159B30, size: 0x8, addend: 0x0, symName: __ZL29whisper_grammar_advance_stackRKNSt3__16vectorINS0_I23whisper_grammar_elementNS_9allocatorIS1_EEEENS2_IS4_EEEERKNS0_IPKS1_NS2_ISA_EEEERNS0_ISC_NS2_ISC_EEEE.cold.1, symObjAddr: 0x3A678, symBinAddr: 0x164EE4, symSize: 0x38 }
  - { offset: 0x159BAA, size: 0x8, addend: 0x0, symName: __ZNSt3__114__split_bufferINS_6vectorIPK23whisper_grammar_elementNS_9allocatorIS4_EEEERNS5_IS7_EEED1Ev, symObjAddr: 0x2B964, symBinAddr: 0x2C4AC, symSize: 0x6C }
  - { offset: 0x159F51, size: 0x8, addend: 0x0, symName: __ZNSt3__111basic_regexIcNS_12regex_traitsIcEEE7__parseIPKcEET_S7_S7_, symObjAddr: 0x2BC28, symBinAddr: 0x2C770, symSize: 0x358 }
  - { offset: 0x15A8BD, size: 0x8, addend: 0x0, symName: __ZNSt3__111basic_regexIcNS_12regex_traitsIcEEE13__parse_egrepIPKcEET_S7_S7_, symObjAddr: 0x2C5E8, symBinAddr: 0x2D130, symSize: 0x1B8 }
  - { offset: 0x15AE72, size: 0x8, addend: 0x0, symName: __ZNSt3__111basic_regexIcNS_12regex_traitsIcEEE24__parse_extended_reg_expIPKcEET_S7_S7_, symObjAddr: 0x2C2CC, symBinAddr: 0x2CE14, symSize: 0x164 }
  - { offset: 0x15B1D6, size: 0x8, addend: 0x0, symName: __ZNSt3__111basic_regexIcNS_12regex_traitsIcEEE12__parse_grepIPKcEET_S7_S7_, symObjAddr: 0x2C430, symBinAddr: 0x2CF78, symSize: 0x1B8 }
  - { offset: 0x15B1EA, size: 0x8, addend: 0x0, symName: __ZNSt3__111basic_regexIcNS_12regex_traitsIcEEE21__parse_basic_reg_expIPKcEET_S7_S7_, symObjAddr: 0x2C144, symBinAddr: 0x2CC8C, symSize: 0x188 }
  - { offset: 0x15B584, size: 0x8, addend: 0x0, symName: __ZNSt3__111basic_regexIcNS_12regex_traitsIcEEE24__parse_extended_reg_expIPKcEET_S7_S7_, symObjAddr: 0x2C2CC, symBinAddr: 0x2CE14, symSize: 0x164 }
  - { offset: 0x15B598, size: 0x8, addend: 0x0, symName: __ZNSt3__111basic_regexIcNS_12regex_traitsIcEEE12__parse_grepIPKcEET_S7_S7_, symObjAddr: 0x2C430, symBinAddr: 0x2CF78, symSize: 0x1B8 }
  - { offset: 0x15BB4D, size: 0x8, addend: 0x0, symName: __ZNSt3__111basic_regexIcNS_12regex_traitsIcEEE19__parse_alternativeIPKcEET_S7_S7_, symObjAddr: 0x2C7A0, symBinAddr: 0x2D2E8, symSize: 0xA0 }
  - { offset: 0x15BCAD, size: 0x8, addend: 0x0, symName: __ZNSt3__111basic_regexIcNS_12regex_traitsIcEEE16__parse_ecma_expIPKcEET_S7_S7_, symObjAddr: 0x2BF80, symBinAddr: 0x2CAC8, symSize: 0x1C4 }
  - { offset: 0x15C100, size: 0x8, addend: 0x0, symName: __ZNSt3__111basic_regexIcNS_12regex_traitsIcEEE12__parse_termIPKcEET_S7_S7_, symObjAddr: 0x2C840, symBinAddr: 0x2D388, symSize: 0x94 }
  - { offset: 0x15C265, size: 0x8, addend: 0x0, symName: __ZNSt3__111basic_regexIcNS_12regex_traitsIcEEE18__parse_nondupl_REIPKcEET_S7_S7_, symObjAddr: 0x2ECE4, symBinAddr: 0x2F82C, symSize: 0x1FC }
  - { offset: 0x15C7E8, size: 0x8, addend: 0x0, symName: __ZNSt3__111basic_regexIcNS_12regex_traitsIcEEE22__parse_RE_dupl_symbolIPKcEET_S7_S7_PNS_16__owns_one_stateIcEEjj, symObjAddr: 0x2EEE0, symBinAddr: 0x2FA28, symSize: 0x274 }
  - { offset: 0x15C7FC, size: 0x8, addend: 0x0, symName: __ZNSt3__111basic_regexIcNS_12regex_traitsIcEEE22__parse_RE_dupl_symbolIPKcEET_S7_S7_PNS_16__owns_one_stateIcEEjj, symObjAddr: 0x2EEE0, symBinAddr: 0x2FA28, symSize: 0x274 }
  - { offset: 0x15CDB7, size: 0x8, addend: 0x0, symName: __ZNSt3__111basic_regexIcNS_12regex_traitsIcEEE32__parse_one_char_or_coll_elem_REIPKcEET_S7_S7_, symObjAddr: 0x2F154, symBinAddr: 0x2FC9C, symSize: 0x11C }
  - { offset: 0x15CE0F, size: 0x8, addend: 0x0, symName: __ZNSt3__111basic_regexIcNS_12regex_traitsIcEEE22__parse_ERE_expressionIPKcEET_S7_S7_, symObjAddr: 0x2F270, symBinAddr: 0x2FDB8, symSize: 0x208 }
  - { offset: 0x15D1DF, size: 0x8, addend: 0x0, symName: __ZNSt3__111basic_regexIcNS_12regex_traitsIcEEE33__parse_one_char_or_coll_elem_EREIPKcEET_S7_S7_, symObjAddr: 0x2F478, symBinAddr: 0x2FFC0, symSize: 0x160 }
  - { offset: 0x15D254, size: 0x8, addend: 0x0, symName: __ZNSt3__111basic_regexIcNS_12regex_traitsIcEEE23__parse_ERE_dupl_symbolIPKcEET_S7_S7_PNS_16__owns_one_stateIcEEjj, symObjAddr: 0x2CEB0, symBinAddr: 0x2D9F8, symSize: 0x3E4 }
  - { offset: 0x15D849, size: 0x8, addend: 0x0, symName: __ZNSt3__111basic_regexIcNS_12regex_traitsIcEEE19__parse_atom_escapeIPKcEET_S7_S7_, symObjAddr: 0x2D294, symBinAddr: 0x2DDDC, symSize: 0x180 }
  - { offset: 0x15D85D, size: 0x8, addend: 0x0, symName: __ZNSt3__111basic_regexIcNS_12regex_traitsIcEEE17__parse_assertionIPKcEET_S7_S7_, symObjAddr: 0x2C8D4, symBinAddr: 0x2D41C, symSize: 0x38C }
  - { offset: 0x15DEE7, size: 0x8, addend: 0x0, symName: __ZNSt3__111basic_regexIcNS_12regex_traitsIcEEE12__parse_atomIPKcEET_S7_S7_, symObjAddr: 0x2CC60, symBinAddr: 0x2D7A8, symSize: 0x250 }
  - { offset: 0x15E283, size: 0x8, addend: 0x0, symName: __ZNSt3__111basic_regexIcNS_12regex_traitsIcEEE23__parse_ERE_dupl_symbolIPKcEET_S7_S7_PNS_16__owns_one_stateIcEEjj, symObjAddr: 0x2CEB0, symBinAddr: 0x2D9F8, symSize: 0x3E4 }
  - { offset: 0x15E297, size: 0x8, addend: 0x0, symName: __ZNSt3__111basic_regexIcNS_12regex_traitsIcEEE26__parse_bracket_expressionIPKcEET_S7_S7_, symObjAddr: 0x2D414, symBinAddr: 0x2DF5C, symSize: 0x160 }
  - { offset: 0x15E490, size: 0x8, addend: 0x0, symName: __ZNSt3__111basic_regexIcNS_12regex_traitsIcEEE19__parse_atom_escapeIPKcEET_S7_S7_, symObjAddr: 0x2D294, symBinAddr: 0x2DDDC, symSize: 0x180 }
  - { offset: 0x15E635, size: 0x8, addend: 0x0, symName: __ZNSt3__111basic_regexIcNS_12regex_traitsIcEEE26__parse_bracket_expressionIPKcEET_S7_S7_, symObjAddr: 0x2D414, symBinAddr: 0x2DF5C, symSize: 0x160 }
  - { offset: 0x15E649, size: 0x8, addend: 0x0, symName: __ZNSt3__111basic_regexIcNS_12regex_traitsIcEEE25__parse_pattern_characterIPKcEET_S7_S7_, symObjAddr: 0x2D574, symBinAddr: 0x2E0BC, symSize: 0x7C }
  - { offset: 0x15E743, size: 0x8, addend: 0x0, symName: __ZNSt3__111basic_regexIcNS_12regex_traitsIcEEE30__parse_character_class_escapeIPKcEET_S7_S7_, symObjAddr: 0x2D5F0, symBinAddr: 0x2E138, symSize: 0x25C }
  - { offset: 0x15EBF9, size: 0x8, addend: 0x0, symName: __ZNSt3__111basic_regexIcNS_12regex_traitsIcEEE24__parse_character_escapeIPKcEET_S7_S7_PNS_12basic_stringIcNS_11char_traitsIcEENS_9allocatorIcEEEE, symObjAddr: 0x2D84C, symBinAddr: 0x2E394, symSize: 0x40C }
  - { offset: 0x15F03E, size: 0x8, addend: 0x0, symName: __ZNSt3__111basic_regexIcNS_12regex_traitsIcEEE23__parse_expression_termIPKcEET_S7_S7_PNS_20__bracket_expressionIcS2_EE, symObjAddr: 0x2DC58, symBinAddr: 0x2E7A0, symSize: 0x54C }
  - { offset: 0x15F0A5, size: 0x8, addend: 0x0, symName: __ZNSt3__111basic_regexIcNS_12regex_traitsIcEEE23__parse_expression_termIPKcEET_S7_S7_PNS_20__bracket_expressionIcS2_EE, symObjAddr: 0x2DC58, symBinAddr: 0x2E7A0, symSize: 0x54C }
  - { offset: 0x16076A, size: 0x8, addend: 0x0, symName: __ZNSt3__111basic_regexIcNS_12regex_traitsIcEEE25__parse_equivalence_classIPKcEET_S7_S7_PNS_20__bracket_expressionIcS2_EE, symObjAddr: 0x2E1A4, symBinAddr: 0x2ECEC, symSize: 0x270 }
  - { offset: 0x1612FF, size: 0x8, addend: 0x0, symName: __ZNSt3__111basic_regexIcNS_12regex_traitsIcEEE18__parse_awk_escapeIPKcEET_S7_S7_PNS_12basic_stringIcNS_11char_traitsIcEENS_9allocatorIcEEEE, symObjAddr: 0x2E668, symBinAddr: 0x2F1B0, symSize: 0x2E4 }
  - { offset: 0x161423, size: 0x8, addend: 0x0, symName: __ZNKSt3__112regex_traitsIcE20__lookup_collatenameIPKcEENS_12basic_stringIcNS_11char_traitsIcEENS_9allocatorIcEEEET_SB_c, symObjAddr: 0x2E94C, symBinAddr: 0x2F494, symSize: 0x240 }
  - { offset: 0x161437, size: 0x8, addend: 0x0, symName: __ZNSt3__111basic_regexIcNS_12regex_traitsIcEEE24__parse_collating_symbolIPKcEET_S7_S7_RNS_12basic_stringIcNS_11char_traitsIcEENS_9allocatorIcEEEE, symObjAddr: 0x2E414, symBinAddr: 0x2EF5C, symSize: 0xD0 }
  - { offset: 0x16180C, size: 0x8, addend: 0x0, symName: __ZNSt3__111basic_regexIcNS_12regex_traitsIcEEE20__parse_class_escapeIPKcEET_S7_S7_RNS_12basic_stringIcNS_11char_traitsIcEENS_9allocatorIcEEEEPNS_20__bracket_expressionIcS2_EE, symObjAddr: 0x2E4E4, symBinAddr: 0x2F02C, symSize: 0x184 }
  - { offset: 0x161817, size: 0x8, addend: 0x0, symName: __ZNKSt3__112regex_traitsIcE20__lookup_collatenameIPKcEENS_12basic_stringIcNS_11char_traitsIcEENS_9allocatorIcEEEET_SB_c, symObjAddr: 0x2E94C, symBinAddr: 0x2F494, symSize: 0x240 }
  - { offset: 0x1624BE, size: 0x8, addend: 0x0, symName: __ZNKSt3__112regex_traitsIcE18__lookup_classnameIPKcEEjT_S5_bc, symObjAddr: 0x2EB8C, symBinAddr: 0x2F6D4, symSize: 0x158 }
  - { offset: 0x162C11, size: 0x8, addend: 0x0, symName: __ZNSt3__111basic_regexIcNS_12regex_traitsIcEEE20__parse_class_escapeIPKcEET_S7_S7_RNS_12basic_stringIcNS_11char_traitsIcEENS_9allocatorIcEEEEPNS_20__bracket_expressionIcS2_EE, symObjAddr: 0x2E4E4, symBinAddr: 0x2F02C, symSize: 0x184 }
  - { offset: 0x162DBD, size: 0x8, addend: 0x0, symName: __ZNSt3__111basic_regexIcNS_12regex_traitsIcEEE18__parse_awk_escapeIPKcEET_S7_S7_PNS_12basic_stringIcNS_11char_traitsIcEENS_9allocatorIcEEEE, symObjAddr: 0x2E668, symBinAddr: 0x2F1B0, symSize: 0x2E4 }
  - { offset: 0x163029, size: 0x8, addend: 0x0, symName: __ZNSt3__111basic_regexIcNS_12regex_traitsIcEEE32__parse_one_char_or_coll_elem_REIPKcEET_S7_S7_, symObjAddr: 0x2F154, symBinAddr: 0x2FC9C, symSize: 0x11C }
  - { offset: 0x1632FB, size: 0x8, addend: 0x0, symName: __ZNSt3__111basic_regexIcNS_12regex_traitsIcEEE33__parse_one_char_or_coll_elem_EREIPKcEET_S7_S7_, symObjAddr: 0x2F478, symBinAddr: 0x2FFC0, symSize: 0x160 }
  - { offset: 0x163506, size: 0x8, addend: 0x0, symName: __ZNSt3__111basic_regexIcNS_12regex_traitsIcEEE23__parse_QUOTED_CHAR_EREIPKcEET_S7_S7_, symObjAddr: 0x2F5D8, symBinAddr: 0x30120, symSize: 0xD8 }
  - { offset: 0x1638D6, size: 0x8, addend: 0x0, symName: __ZL43whisper_grammar_reject_candidates_for_stackRKNSt3__16vectorINS0_I23whisper_grammar_elementNS_9allocatorIS1_EEEENS2_IS4_EEEERKNS0_IPKS1_NS2_ISA_EEEERKNS0_I25whisper_grammar_candidateNS2_ISF_EEEE, symObjAddr: 0x2FD24, symBinAddr: 0x3086C, symSize: 0xAD4 }
  - { offset: 0x16650E, size: 0x8, addend: 0x0, symName: __ZNSt3__16vectorIdNS_9allocatorIdEEE13shrink_to_fitEv, symObjAddr: 0x30B10, symBinAddr: 0x31658, symSize: 0xB8 }
  - { offset: 0x166C63, size: 0x8, addend: 0x0, symName: __ZNSt3__128__exception_guard_exceptionsINS_29_AllocatorDestroyRangeReverseINS_9allocatorINS_6vectorI23whisper_grammar_elementNS2_IS4_EEEEEEPS6_EEED1B8ne190102Ev, symObjAddr: 0x312B8, symBinAddr: 0x31E00, symSize: 0x6C }
  - { offset: 0x166E64, size: 0x8, addend: 0x0, symName: __ZNSt3__128__exception_guard_exceptionsINS_29_AllocatorDestroyRangeReverseINS_9allocatorINS_6vectorIPK23whisper_grammar_elementNS2_IS6_EEEEEEPS8_EEED1B8ne190102Ev, symObjAddr: 0x314A4, symBinAddr: 0x31FEC, symSize: 0x6C }
  - { offset: 0x1671A0, size: 0x8, addend: 0x0, symName: __ZNSt3__16vectorI23whisper_grammar_elementNS_9allocatorIS1_EEE18__assign_with_sizeB8ne190102IPS1_S6_EEvT_T0_l, symObjAddr: 0x31900, symBinAddr: 0x32448, symSize: 0x14C }
  - { offset: 0x167CAD, size: 0x8, addend: 0x0, symName: __ZNSt3__16vectorINS0_IPK23whisper_grammar_elementNS_9allocatorIS3_EEEENS4_IS6_EEE18__assign_with_sizeB8ne190102IPS6_SA_EEvT_T0_l, symObjAddr: 0x31A4C, symBinAddr: 0x32594, symSize: 0x260 }
  - { offset: 0x167DEF, size: 0x8, addend: 0x0, symName: __ZNSt3__16vectorIPK23whisper_grammar_elementNS_9allocatorIS3_EEE18__assign_with_sizeB8ne190102IPS3_S8_EEvT_T0_l, symObjAddr: 0x31CAC, symBinAddr: 0x327F4, symSize: 0x14C }
  - { offset: 0x1688FC, size: 0x8, addend: 0x0, symName: __ZNSt3__16__treeINS_12__value_typeIiiEENS_19__map_value_compareIiS2_NS_4lessIiEELb1EEENS_9allocatorIS2_EEE7destroyEPNS_11__tree_nodeIS2_PvEE, symObjAddr: 0x31DF8, symBinAddr: 0x32940, symSize: 0x44 }
  - { offset: 0x168E60, size: 0x8, addend: 0x0, symName: __ZL13median_filterP11ggml_tensorPKS_iiPv, symObjAddr: 0x3304C, symBinAddr: 0x33B94, symSize: 0x3AC }
  - { offset: 0x169B12, size: 0x8, addend: 0x0, symName: __ZL13median_filterP11ggml_tensorPKS_iiPv.cold.1, symObjAddr: 0x3A6B0, symBinAddr: 0x164F1C, symSize: 0x38 }
  - { offset: 0x169B2A, size: 0x8, addend: 0x0, symName: __ZL13median_filterP11ggml_tensorPKS_iiPv.cold.4, symObjAddr: 0x3A758, symBinAddr: 0x164FC4, symSize: 0x38 }
  - { offset: 0x169B42, size: 0x8, addend: 0x0, symName: __ZL13median_filterP11ggml_tensorPKS_iiPv.cold.2, symObjAddr: 0x3A6E8, symBinAddr: 0x164F54, symSize: 0x38 }
  - { offset: 0x169B5A, size: 0x8, addend: 0x0, symName: __ZL13median_filterP11ggml_tensorPKS_iiPv.cold.3, symObjAddr: 0x3A720, symBinAddr: 0x164F8C, symSize: 0x38 }
  - { offset: 0x169CC5, size: 0x8, addend: 0x0, symName: __ZNSt3__13mapI10asr_tensorPKcNS_4lessIS1_EENS_9allocatorINS_4pairIKS1_S3_EEEEEC2B8ne190102ESt16initializer_listIS9_ERKS5_, symObjAddr: 0x3340C, symBinAddr: 0x33F54, symSize: 0xF4 }
  - { offset: 0x16A5A5, size: 0x8, addend: 0x0, symName: __ZNSt3__16__treeINS_12__value_typeI10asr_systemNS_3mapI10asr_tensorPKcNS_4lessIS4_EENS_9allocatorINS_4pairIKS4_S6_EEEEEEEENS_19__map_value_compareIS2_SF_NS7_IS2_EELb1EEENS9_ISF_EEE30__emplace_hint_unique_key_argsIS2_JRKNSA_IKS2_SE_EEEEENSA_INS_15__tree_iteratorISF_PNS_11__tree_nodeISF_PvEElEEbEENS_21__tree_const_iteratorISF_SU_lEERKT_DpOT0_, symObjAddr: 0x33500, symBinAddr: 0x34048, symSize: 0x10C }
  - { offset: 0x16AB7F, size: 0x8, addend: 0x0, symName: __ZNSt3__16__treeINS_12__value_typeI10asr_systemNS_3mapI10asr_tensorPKcNS_4lessIS4_EENS_9allocatorINS_4pairIKS4_S6_EEEEEEEENS_19__map_value_compareIS2_SF_NS7_IS2_EELb1EEENS9_ISF_EEE12__find_equalIS2_EERPNS_16__tree_node_baseIPvEENS_21__tree_const_iteratorISF_PNS_11__tree_nodeISF_SN_EElEERPNS_15__tree_end_nodeISP_EESQ_RKT_, symObjAddr: 0x3360C, symBinAddr: 0x34154, symSize: 0x1B0 }
  - { offset: 0x16ABE7, size: 0x8, addend: 0x0, symName: __ZNSt3__16__treeINS_12__value_typeI10asr_systemNS_3mapI10asr_tensorPKcNS_4lessIS4_EENS_9allocatorINS_4pairIKS4_S6_EEEEEEEENS_19__map_value_compareIS2_SF_NS7_IS2_EELb1EEENS9_ISF_EEE12__find_equalIS2_EERPNS_16__tree_node_baseIPvEENS_21__tree_const_iteratorISF_PNS_11__tree_nodeISF_SN_EElEERPNS_15__tree_end_nodeISP_EESQ_RKT_, symObjAddr: 0x3360C, symBinAddr: 0x34154, symSize: 0x1B0 }
  - { offset: 0x16AC05, size: 0x8, addend: 0x0, symName: __ZNSt3__16__treeINS_12__value_typeI10asr_systemNS_3mapI10asr_tensorPKcNS_4lessIS4_EENS_9allocatorINS_4pairIKS4_S6_EEEEEEEENS_19__map_value_compareIS2_SF_NS7_IS2_EELb1EEENS9_ISF_EEE12__find_equalIS2_EERPNS_16__tree_node_baseIPvEENS_21__tree_const_iteratorISF_PNS_11__tree_nodeISF_SN_EElEERPNS_15__tree_end_nodeISP_EESQ_RKT_, symObjAddr: 0x3360C, symBinAddr: 0x34154, symSize: 0x1B0 }
  - { offset: 0x16AF80, size: 0x8, addend: 0x0, symName: __ZNSt3__110unique_ptrINS_11__tree_nodeINS_12__value_typeI10asr_systemNS_3mapI10asr_tensorPKcNS_4lessIS5_EENS_9allocatorINS_4pairIKS5_S7_EEEEEEEEPvEENS_22__tree_node_destructorINSA_ISI_EEEEED1B8ne190102Ev, symObjAddr: 0x337BC, symBinAddr: 0x34304, symSize: 0x4C }
  - { offset: 0x16B73F, size: 0x8, addend: 0x0, symName: __ZNSt3__13mapI10asr_tensor7ggml_opNS_4lessIS1_EENS_9allocatorINS_4pairIKS1_S2_EEEEEC2B8ne190102ESt16initializer_listIS8_ERKS4_, symObjAddr: 0x33858, symBinAddr: 0x343A0, symSize: 0xF4 }
  - { offset: 0x16BB5F, size: 0x8, addend: 0x0, symName: __ZNSt3__16__treeINS_12__value_typeI10asr_tensor7ggml_opEENS_19__map_value_compareIS2_S4_NS_4lessIS2_EELb1EEENS_9allocatorIS4_EEE12__find_equalIS2_EERPNS_16__tree_node_baseIPvEENS_21__tree_const_iteratorIS4_PNS_11__tree_nodeIS4_SE_EElEERPNS_15__tree_end_nodeISG_EESH_RKT_, symObjAddr: 0x3394C, symBinAddr: 0x34494, symSize: 0x1B0 }
  - { offset: 0x16BBC7, size: 0x8, addend: 0x0, symName: __ZNSt3__16__treeINS_12__value_typeI10asr_tensor7ggml_opEENS_19__map_value_compareIS2_S4_NS_4lessIS2_EELb1EEENS_9allocatorIS4_EEE12__find_equalIS2_EERPNS_16__tree_node_baseIPvEENS_21__tree_const_iteratorIS4_PNS_11__tree_nodeIS4_SE_EElEERPNS_15__tree_end_nodeISG_EESH_RKT_, symObjAddr: 0x3394C, symBinAddr: 0x34494, symSize: 0x1B0 }
  - { offset: 0x16BBE5, size: 0x8, addend: 0x0, symName: __ZNSt3__16__treeINS_12__value_typeI10asr_tensor7ggml_opEENS_19__map_value_compareIS2_S4_NS_4lessIS2_EELb1EEENS_9allocatorIS4_EEE12__find_equalIS2_EERPNS_16__tree_node_baseIPvEENS_21__tree_const_iteratorIS4_PNS_11__tree_nodeIS4_SE_EElEERPNS_15__tree_end_nodeISG_EESH_RKT_, symObjAddr: 0x3394C, symBinAddr: 0x34494, symSize: 0x1B0 }
  - { offset: 0x16C3C0, size: 0x8, addend: 0x0, symName: __ZNSt3__13mapI10vad_tensor7ggml_opNS_4lessIS1_EENS_9allocatorINS_4pairIKS1_S2_EEEEEC2B8ne190102ESt16initializer_listIS8_ERKS4_, symObjAddr: 0x33B40, symBinAddr: 0x34688, symSize: 0xF4 }
  - { offset: 0x16C7E0, size: 0x8, addend: 0x0, symName: __ZNSt3__16__treeINS_12__value_typeI10vad_tensor7ggml_opEENS_19__map_value_compareIS2_S4_NS_4lessIS2_EELb1EEENS_9allocatorIS4_EEE12__find_equalIS2_EERPNS_16__tree_node_baseIPvEENS_21__tree_const_iteratorIS4_PNS_11__tree_nodeIS4_SE_EElEERPNS_15__tree_end_nodeISG_EESH_RKT_, symObjAddr: 0x33C34, symBinAddr: 0x3477C, symSize: 0x1B0 }
  - { offset: 0x16C848, size: 0x8, addend: 0x0, symName: __ZNSt3__16__treeINS_12__value_typeI10vad_tensor7ggml_opEENS_19__map_value_compareIS2_S4_NS_4lessIS2_EELb1EEENS_9allocatorIS4_EEE12__find_equalIS2_EERPNS_16__tree_node_baseIPvEENS_21__tree_const_iteratorIS4_PNS_11__tree_nodeIS4_SE_EElEERPNS_15__tree_end_nodeISG_EESH_RKT_, symObjAddr: 0x33C34, symBinAddr: 0x3477C, symSize: 0x1B0 }
  - { offset: 0x16C866, size: 0x8, addend: 0x0, symName: __ZNSt3__16__treeINS_12__value_typeI10vad_tensor7ggml_opEENS_19__map_value_compareIS2_S4_NS_4lessIS2_EELb1EEENS_9allocatorIS4_EEE12__find_equalIS2_EERPNS_16__tree_node_baseIPvEENS_21__tree_const_iteratorIS4_PNS_11__tree_nodeIS4_SE_EElEERPNS_15__tree_end_nodeISG_EESH_RKT_, symObjAddr: 0x33C34, symBinAddr: 0x3477C, symSize: 0x1B0 }
  - { offset: 0x16D041, size: 0x8, addend: 0x0, symName: __ZNSt3__13mapI10vad_tensorPKcNS_4lessIS1_EENS_9allocatorINS_4pairIKS1_S3_EEEEEC2B8ne190102ESt16initializer_listIS9_ERKS5_, symObjAddr: 0x33E28, symBinAddr: 0x34970, symSize: 0xF4 }
  - { offset: 0x16D461, size: 0x8, addend: 0x0, symName: __ZNSt3__16__treeINS_12__value_typeI10vad_tensorPKcEENS_19__map_value_compareIS2_S5_NS_4lessIS2_EELb1EEENS_9allocatorIS5_EEE12__find_equalIS2_EERPNS_16__tree_node_baseIPvEENS_21__tree_const_iteratorIS5_PNS_11__tree_nodeIS5_SF_EElEERPNS_15__tree_end_nodeISH_EESI_RKT_, symObjAddr: 0x33F1C, symBinAddr: 0x34A64, symSize: 0x1B0 }
  - { offset: 0x16D4C9, size: 0x8, addend: 0x0, symName: __ZNSt3__16__treeINS_12__value_typeI10vad_tensorPKcEENS_19__map_value_compareIS2_S5_NS_4lessIS2_EELb1EEENS_9allocatorIS5_EEE12__find_equalIS2_EERPNS_16__tree_node_baseIPvEENS_21__tree_const_iteratorIS5_PNS_11__tree_nodeIS5_SF_EElEERPNS_15__tree_end_nodeISH_EESI_RKT_, symObjAddr: 0x33F1C, symBinAddr: 0x34A64, symSize: 0x1B0 }
  - { offset: 0x16D4E7, size: 0x8, addend: 0x0, symName: __ZNSt3__16__treeINS_12__value_typeI10vad_tensorPKcEENS_19__map_value_compareIS2_S5_NS_4lessIS2_EELb1EEENS_9allocatorIS5_EEE12__find_equalIS2_EERPNS_16__tree_node_baseIPvEENS_21__tree_const_iteratorIS5_PNS_11__tree_nodeIS5_SF_EElEERPNS_15__tree_end_nodeISH_EESI_RKT_, symObjAddr: 0x33F1C, symBinAddr: 0x34A64, symSize: 0x1B0 }
  - { offset: 0x16DC74, size: 0x8, addend: 0x0, symName: __ZNSt3__16__treeINS_12__value_typeI7e_modelNS_12basic_stringIcNS_11char_traitsIcEENS_9allocatorIcEEEEEENS_19__map_value_compareIS2_S9_NS_4lessIS2_EELb1EEENS6_IS9_EEE30__emplace_hint_unique_key_argsIS2_JRKNS_4pairIKS2_S8_EEEEENSH_INS_15__tree_iteratorIS9_PNS_11__tree_nodeIS9_PvEElEEbEENS_21__tree_const_iteratorIS9_SQ_lEERKT_DpOT0_, symObjAddr: 0x34110, symBinAddr: 0x34C58, symSize: 0x118 }
  - { offset: 0x16E08D, size: 0x8, addend: 0x0, symName: __ZNSt3__16__treeINS_12__value_typeI7e_modelNS_12basic_stringIcNS_11char_traitsIcEENS_9allocatorIcEEEEEENS_19__map_value_compareIS2_S9_NS_4lessIS2_EELb1EEENS6_IS9_EEE12__find_equalIS2_EERPNS_16__tree_node_baseIPvEENS_21__tree_const_iteratorIS9_PNS_11__tree_nodeIS9_SI_EElEERPNS_15__tree_end_nodeISK_EESL_RKT_, symObjAddr: 0x34228, symBinAddr: 0x34D70, symSize: 0x1B0 }
  - { offset: 0x16E0F5, size: 0x8, addend: 0x0, symName: __ZNSt3__16__treeINS_12__value_typeI7e_modelNS_12basic_stringIcNS_11char_traitsIcEENS_9allocatorIcEEEEEENS_19__map_value_compareIS2_S9_NS_4lessIS2_EELb1EEENS6_IS9_EEE12__find_equalIS2_EERPNS_16__tree_node_baseIPvEENS_21__tree_const_iteratorIS9_PNS_11__tree_nodeIS9_SI_EElEERPNS_15__tree_end_nodeISK_EESL_RKT_, symObjAddr: 0x34228, symBinAddr: 0x34D70, symSize: 0x1B0 }
  - { offset: 0x16E113, size: 0x8, addend: 0x0, symName: __ZNSt3__16__treeINS_12__value_typeI7e_modelNS_12basic_stringIcNS_11char_traitsIcEENS_9allocatorIcEEEEEENS_19__map_value_compareIS2_S9_NS_4lessIS2_EELb1EEENS6_IS9_EEE12__find_equalIS2_EERPNS_16__tree_node_baseIPvEENS_21__tree_const_iteratorIS9_PNS_11__tree_nodeIS9_SI_EElEERPNS_15__tree_end_nodeISK_EESL_RKT_, symObjAddr: 0x34228, symBinAddr: 0x34D70, symSize: 0x1B0 }
  - { offset: 0x16E48E, size: 0x8, addend: 0x0, symName: __ZNSt3__110unique_ptrINS_11__tree_nodeINS_12__value_typeI7e_modelNS_12basic_stringIcNS_11char_traitsIcEENS_9allocatorIcEEEEEEPvEENS_22__tree_node_destructorINS7_ISC_EEEEED1B8ne190102Ev, symObjAddr: 0x343D8, symBinAddr: 0x34F20, symSize: 0x60 }
  - { offset: 0x16EC08, size: 0x8, addend: 0x0, symName: __ZNSt3__13mapINS_12basic_stringIcNS_11char_traitsIcEENS_9allocatorIcEEEENS_4pairIiS6_EENS_4lessIS6_EENS4_INS7_IKS6_S8_EEEEEC2B8ne190102ESt16initializer_listISC_ERKSA_, symObjAddr: 0x34524, symBinAddr: 0x3506C, symSize: 0x104 }
  - { offset: 0x16EF43, size: 0x8, addend: 0x0, symName: __ZNSt3__16__treeINS_12__value_typeINS_12basic_stringIcNS_11char_traitsIcEENS_9allocatorIcEEEENS_4pairIiS7_EEEENS_19__map_value_compareIS7_SA_NS_4lessIS7_EELb1EEENS5_ISA_EEE12__find_equalIS7_EERPNS_16__tree_node_baseIPvEENS_21__tree_const_iteratorISA_PNS_11__tree_nodeISA_SJ_EElEERPNS_15__tree_end_nodeISL_EESM_RKT_, symObjAddr: 0x34628, symBinAddr: 0x35170, symSize: 0x3F8 }
  - { offset: 0x16FD09, size: 0x8, addend: 0x0, symName: __ZNSt3__16__treeINS_12__value_typeINS_12basic_stringIcNS_11char_traitsIcEENS_9allocatorIcEEEENS_4pairIiS7_EEEENS_19__map_value_compareIS7_SA_NS_4lessIS7_EELb1EEENS5_ISA_EEE16__construct_nodeIJRKNS8_IKS7_S9_EEEEENS_10unique_ptrINS_11__tree_nodeISA_PvEENS_22__tree_node_destructorINS5_ISP_EEEEEEDpOT_, symObjAddr: 0x34A20, symBinAddr: 0x35568, symSize: 0xF0 }
  - { offset: 0x1704C0, size: 0x8, addend: 0x0, symName: __ZNSt3__110unique_ptrINS_11__tree_nodeINS_12__value_typeINS_12basic_stringIcNS_11char_traitsIcEENS_9allocatorIcEEEENS_4pairIiS8_EEEEPvEENS_22__tree_node_destructorINS6_ISD_EEEEED1B8ne190102Ev, symObjAddr: 0x34B10, symBinAddr: 0x35658, symSize: 0x6C }
  - { offset: 0x170D7B, size: 0x8, addend: 0x0, symName: __ZNSt3__13mapI30whisper_alignment_heads_preset14whisper_aheadsNS_4lessIS1_EENS_9allocatorINS_4pairIKS1_S2_EEEEEC2B8ne190102ESt16initializer_listIS8_ERKS4_, symObjAddr: 0x34BF4, symBinAddr: 0x3573C, symSize: 0x100 }
  - { offset: 0x17119B, size: 0x8, addend: 0x0, symName: __ZNSt3__16__treeINS_12__value_typeI30whisper_alignment_heads_preset14whisper_aheadsEENS_19__map_value_compareIS2_S4_NS_4lessIS2_EELb1EEENS_9allocatorIS4_EEE12__find_equalIS2_EERPNS_16__tree_node_baseIPvEENS_21__tree_const_iteratorIS4_PNS_11__tree_nodeIS4_SE_EElEERPNS_15__tree_end_nodeISG_EESH_RKT_, symObjAddr: 0x34CF4, symBinAddr: 0x3583C, symSize: 0x1B0 }
  - { offset: 0x171203, size: 0x8, addend: 0x0, symName: __ZNSt3__16__treeINS_12__value_typeI30whisper_alignment_heads_preset14whisper_aheadsEENS_19__map_value_compareIS2_S4_NS_4lessIS2_EELb1EEENS_9allocatorIS4_EEE12__find_equalIS2_EERPNS_16__tree_node_baseIPvEENS_21__tree_const_iteratorIS4_PNS_11__tree_nodeIS4_SE_EElEERPNS_15__tree_end_nodeISG_EESH_RKT_, symObjAddr: 0x34CF4, symBinAddr: 0x3583C, symSize: 0x1B0 }
  - { offset: 0x171221, size: 0x8, addend: 0x0, symName: __ZNSt3__16__treeINS_12__value_typeI30whisper_alignment_heads_preset14whisper_aheadsEENS_19__map_value_compareIS2_S4_NS_4lessIS2_EELb1EEENS_9allocatorIS4_EEE12__find_equalIS2_EERPNS_16__tree_node_baseIPvEENS_21__tree_const_iteratorIS4_PNS_11__tree_nodeIS4_SE_EElEERPNS_15__tree_end_nodeISG_EESH_RKT_, symObjAddr: 0x34CF4, symBinAddr: 0x3583C, symSize: 0x1B0 }
  - { offset: 0x171AA4, size: 0x8, addend: 0x0, symName: '__ZNSt3__110__function6__funcIZ18whisper_init_stateE3$_0NS_9allocatorIS2_EEFP11ggml_cgraphvEED1Ev', symObjAddr: 0x35274, symBinAddr: 0x35DBC, symSize: 0x4 }
  - { offset: 0x171ACF, size: 0x8, addend: 0x0, symName: '__ZNSt3__110__function6__funcIZ18whisper_init_stateE3$_0NS_9allocatorIS2_EEFP11ggml_cgraphvEED0Ev', symObjAddr: 0x35278, symBinAddr: 0x35DC0, symSize: 0x4 }
  - { offset: 0x171CD3, size: 0x8, addend: 0x0, symName: '__ZNKSt3__110__function6__funcIZ18whisper_init_stateE3$_0NS_9allocatorIS2_EEFP11ggml_cgraphvEE7__cloneEv', symObjAddr: 0x3527C, symBinAddr: 0x35DC4, symSize: 0x38 }
  - { offset: 0x172010, size: 0x8, addend: 0x0, symName: '__ZNKSt3__110__function6__funcIZ18whisper_init_stateE3$_0NS_9allocatorIS2_EEFP11ggml_cgraphvEE7__cloneEPNS0_6__baseIS7_EE', symObjAddr: 0x352B4, symBinAddr: 0x35DFC, symSize: 0x18 }
  - { offset: 0x172047, size: 0x8, addend: 0x0, symName: '__ZNKSt3__110__function6__funcIZ18whisper_init_stateE3$_0NS_9allocatorIS2_EEFP11ggml_cgraphvEE7__cloneEPNS0_6__baseIS7_EE', symObjAddr: 0x352B4, symBinAddr: 0x35DFC, symSize: 0x18 }
  - { offset: 0x17206F, size: 0x8, addend: 0x0, symName: '__ZNKSt3__110__function6__funcIZ18whisper_init_stateE3$_0NS_9allocatorIS2_EEFP11ggml_cgraphvEE7__cloneEPNS0_6__baseIS7_EE', symObjAddr: 0x352B4, symBinAddr: 0x35DFC, symSize: 0x18 }
  - { offset: 0x172169, size: 0x8, addend: 0x0, symName: '__ZNSt3__110__function6__funcIZ18whisper_init_stateE3$_0NS_9allocatorIS2_EEFP11ggml_cgraphvEE7destroyEv', symObjAddr: 0x352CC, symBinAddr: 0x35E14, symSize: 0x4 }
  - { offset: 0x1721B8, size: 0x8, addend: 0x0, symName: '__ZNSt3__110__function6__funcIZ18whisper_init_stateE3$_0NS_9allocatorIS2_EEFP11ggml_cgraphvEE18destroy_deallocateEv', symObjAddr: 0x352D0, symBinAddr: 0x35E18, symSize: 0x4 }
  - { offset: 0x1721EE, size: 0x8, addend: 0x0, symName: '__ZNSt3__110__function6__funcIZ18whisper_init_stateE3$_0NS_9allocatorIS2_EEFP11ggml_cgraphvEE18destroy_deallocateEv', symObjAddr: 0x352D0, symBinAddr: 0x35E18, symSize: 0x4 }
  - { offset: 0x172213, size: 0x8, addend: 0x0, symName: '__ZNSt3__110__function6__funcIZ18whisper_init_stateE3$_0NS_9allocatorIS2_EEFP11ggml_cgraphvEE18destroy_deallocateEv', symObjAddr: 0x352D0, symBinAddr: 0x35E18, symSize: 0x4 }
  - { offset: 0x172242, size: 0x8, addend: 0x0, symName: '__ZNSt3__110__function6__funcIZ18whisper_init_stateE3$_0NS_9allocatorIS2_EEFP11ggml_cgraphvEE18destroy_deallocateEv', symObjAddr: 0x352D0, symBinAddr: 0x35E18, symSize: 0x4 }
  - { offset: 0x17226B, size: 0x8, addend: 0x0, symName: '__ZNSt3__110__function6__funcIZ18whisper_init_stateE3$_0NS_9allocatorIS2_EEFP11ggml_cgraphvEE18destroy_deallocateEv', symObjAddr: 0x352D0, symBinAddr: 0x35E18, symSize: 0x4 }
  - { offset: 0x1722EA, size: 0x8, addend: 0x0, symName: '__ZNSt3__110__function6__funcIZ18whisper_init_stateE3$_0NS_9allocatorIS2_EEFP11ggml_cgraphvEEclEv', symObjAddr: 0x352D4, symBinAddr: 0x35E1C, symSize: 0x10 }
  - { offset: 0x172377, size: 0x8, addend: 0x0, symName: '__ZNKSt3__110__function6__funcIZ18whisper_init_stateE3$_0NS_9allocatorIS2_EEFP11ggml_cgraphvEE6targetERKSt9type_info', symObjAddr: 0x352E4, symBinAddr: 0x35E2C, symSize: 0x64 }
  - { offset: 0x172435, size: 0x8, addend: 0x0, symName: '__ZNKSt3__110__function6__funcIZ18whisper_init_stateE3$_0NS_9allocatorIS2_EEFP11ggml_cgraphvEE11target_typeEv', symObjAddr: 0x35348, symBinAddr: 0x35E90, symSize: 0xC }
  - { offset: 0x172458, size: 0x8, addend: 0x0, symName: '__ZNSt3__110__function6__funcIZ18whisper_init_stateE3$_1NS_9allocatorIS2_EEFP11ggml_cgraphvEED1Ev', symObjAddr: 0x35354, symBinAddr: 0x35E9C, symSize: 0x4 }
  - { offset: 0x172483, size: 0x8, addend: 0x0, symName: '__ZNSt3__110__function6__funcIZ18whisper_init_stateE3$_1NS_9allocatorIS2_EEFP11ggml_cgraphvEED0Ev', symObjAddr: 0x35358, symBinAddr: 0x35EA0, symSize: 0x4 }
  - { offset: 0x172687, size: 0x8, addend: 0x0, symName: '__ZNKSt3__110__function6__funcIZ18whisper_init_stateE3$_1NS_9allocatorIS2_EEFP11ggml_cgraphvEE7__cloneEv', symObjAddr: 0x3535C, symBinAddr: 0x35EA4, symSize: 0x38 }
  - { offset: 0x1729C4, size: 0x8, addend: 0x0, symName: '__ZNKSt3__110__function6__funcIZ18whisper_init_stateE3$_1NS_9allocatorIS2_EEFP11ggml_cgraphvEE7__cloneEPNS0_6__baseIS7_EE', symObjAddr: 0x35394, symBinAddr: 0x35EDC, symSize: 0x18 }
  - { offset: 0x1729FB, size: 0x8, addend: 0x0, symName: '__ZNKSt3__110__function6__funcIZ18whisper_init_stateE3$_1NS_9allocatorIS2_EEFP11ggml_cgraphvEE7__cloneEPNS0_6__baseIS7_EE', symObjAddr: 0x35394, symBinAddr: 0x35EDC, symSize: 0x18 }
  - { offset: 0x172A23, size: 0x8, addend: 0x0, symName: '__ZNKSt3__110__function6__funcIZ18whisper_init_stateE3$_1NS_9allocatorIS2_EEFP11ggml_cgraphvEE7__cloneEPNS0_6__baseIS7_EE', symObjAddr: 0x35394, symBinAddr: 0x35EDC, symSize: 0x18 }
  - { offset: 0x172B1D, size: 0x8, addend: 0x0, symName: '__ZNSt3__110__function6__funcIZ18whisper_init_stateE3$_1NS_9allocatorIS2_EEFP11ggml_cgraphvEE7destroyEv', symObjAddr: 0x353AC, symBinAddr: 0x35EF4, symSize: 0x4 }
  - { offset: 0x172B6C, size: 0x8, addend: 0x0, symName: '__ZNSt3__110__function6__funcIZ18whisper_init_stateE3$_1NS_9allocatorIS2_EEFP11ggml_cgraphvEE18destroy_deallocateEv', symObjAddr: 0x353B0, symBinAddr: 0x35EF8, symSize: 0x4 }
  - { offset: 0x172BA2, size: 0x8, addend: 0x0, symName: '__ZNSt3__110__function6__funcIZ18whisper_init_stateE3$_1NS_9allocatorIS2_EEFP11ggml_cgraphvEE18destroy_deallocateEv', symObjAddr: 0x353B0, symBinAddr: 0x35EF8, symSize: 0x4 }
  - { offset: 0x172BC7, size: 0x8, addend: 0x0, symName: '__ZNSt3__110__function6__funcIZ18whisper_init_stateE3$_1NS_9allocatorIS2_EEFP11ggml_cgraphvEE18destroy_deallocateEv', symObjAddr: 0x353B0, symBinAddr: 0x35EF8, symSize: 0x4 }
  - { offset: 0x172BF6, size: 0x8, addend: 0x0, symName: '__ZNSt3__110__function6__funcIZ18whisper_init_stateE3$_1NS_9allocatorIS2_EEFP11ggml_cgraphvEE18destroy_deallocateEv', symObjAddr: 0x353B0, symBinAddr: 0x35EF8, symSize: 0x4 }
  - { offset: 0x172C1F, size: 0x8, addend: 0x0, symName: '__ZNSt3__110__function6__funcIZ18whisper_init_stateE3$_1NS_9allocatorIS2_EEFP11ggml_cgraphvEE18destroy_deallocateEv', symObjAddr: 0x353B0, symBinAddr: 0x35EF8, symSize: 0x4 }
  - { offset: 0x172C9E, size: 0x8, addend: 0x0, symName: '__ZNSt3__110__function6__funcIZ18whisper_init_stateE3$_1NS_9allocatorIS2_EEFP11ggml_cgraphvEEclEv', symObjAddr: 0x353B4, symBinAddr: 0x35EFC, symSize: 0x10 }
  - { offset: 0x172D2B, size: 0x8, addend: 0x0, symName: '__ZNKSt3__110__function6__funcIZ18whisper_init_stateE3$_1NS_9allocatorIS2_EEFP11ggml_cgraphvEE6targetERKSt9type_info', symObjAddr: 0x353C4, symBinAddr: 0x35F0C, symSize: 0x64 }
  - { offset: 0x172DE9, size: 0x8, addend: 0x0, symName: '__ZNKSt3__110__function6__funcIZ18whisper_init_stateE3$_1NS_9allocatorIS2_EEFP11ggml_cgraphvEE11target_typeEv', symObjAddr: 0x35428, symBinAddr: 0x35F70, symSize: 0xC }
  - { offset: 0x172E0C, size: 0x8, addend: 0x0, symName: '__ZNSt3__110__function6__funcIZ18whisper_init_stateE3$_2NS_9allocatorIS2_EEFP11ggml_cgraphvEED1Ev', symObjAddr: 0x35434, symBinAddr: 0x35F7C, symSize: 0x4 }
  - { offset: 0x172E37, size: 0x8, addend: 0x0, symName: '__ZNSt3__110__function6__funcIZ18whisper_init_stateE3$_2NS_9allocatorIS2_EEFP11ggml_cgraphvEED0Ev', symObjAddr: 0x35438, symBinAddr: 0x35F80, symSize: 0x4 }
  - { offset: 0x17303B, size: 0x8, addend: 0x0, symName: '__ZNKSt3__110__function6__funcIZ18whisper_init_stateE3$_2NS_9allocatorIS2_EEFP11ggml_cgraphvEE7__cloneEv', symObjAddr: 0x3543C, symBinAddr: 0x35F84, symSize: 0x38 }
  - { offset: 0x173378, size: 0x8, addend: 0x0, symName: '__ZNKSt3__110__function6__funcIZ18whisper_init_stateE3$_2NS_9allocatorIS2_EEFP11ggml_cgraphvEE7__cloneEPNS0_6__baseIS7_EE', symObjAddr: 0x35474, symBinAddr: 0x35FBC, symSize: 0x18 }
  - { offset: 0x1733AF, size: 0x8, addend: 0x0, symName: '__ZNKSt3__110__function6__funcIZ18whisper_init_stateE3$_2NS_9allocatorIS2_EEFP11ggml_cgraphvEE7__cloneEPNS0_6__baseIS7_EE', symObjAddr: 0x35474, symBinAddr: 0x35FBC, symSize: 0x18 }
  - { offset: 0x1733D7, size: 0x8, addend: 0x0, symName: '__ZNKSt3__110__function6__funcIZ18whisper_init_stateE3$_2NS_9allocatorIS2_EEFP11ggml_cgraphvEE7__cloneEPNS0_6__baseIS7_EE', symObjAddr: 0x35474, symBinAddr: 0x35FBC, symSize: 0x18 }
  - { offset: 0x1734D1, size: 0x8, addend: 0x0, symName: '__ZNSt3__110__function6__funcIZ18whisper_init_stateE3$_2NS_9allocatorIS2_EEFP11ggml_cgraphvEE7destroyEv', symObjAddr: 0x3548C, symBinAddr: 0x35FD4, symSize: 0x4 }
  - { offset: 0x173520, size: 0x8, addend: 0x0, symName: '__ZNSt3__110__function6__funcIZ18whisper_init_stateE3$_2NS_9allocatorIS2_EEFP11ggml_cgraphvEE18destroy_deallocateEv', symObjAddr: 0x35490, symBinAddr: 0x35FD8, symSize: 0x4 }
  - { offset: 0x173556, size: 0x8, addend: 0x0, symName: '__ZNSt3__110__function6__funcIZ18whisper_init_stateE3$_2NS_9allocatorIS2_EEFP11ggml_cgraphvEE18destroy_deallocateEv', symObjAddr: 0x35490, symBinAddr: 0x35FD8, symSize: 0x4 }
  - { offset: 0x17357B, size: 0x8, addend: 0x0, symName: '__ZNSt3__110__function6__funcIZ18whisper_init_stateE3$_2NS_9allocatorIS2_EEFP11ggml_cgraphvEE18destroy_deallocateEv', symObjAddr: 0x35490, symBinAddr: 0x35FD8, symSize: 0x4 }
  - { offset: 0x1735AA, size: 0x8, addend: 0x0, symName: '__ZNSt3__110__function6__funcIZ18whisper_init_stateE3$_2NS_9allocatorIS2_EEFP11ggml_cgraphvEE18destroy_deallocateEv', symObjAddr: 0x35490, symBinAddr: 0x35FD8, symSize: 0x4 }
  - { offset: 0x1735D3, size: 0x8, addend: 0x0, symName: '__ZNSt3__110__function6__funcIZ18whisper_init_stateE3$_2NS_9allocatorIS2_EEFP11ggml_cgraphvEE18destroy_deallocateEv', symObjAddr: 0x35490, symBinAddr: 0x35FD8, symSize: 0x4 }
  - { offset: 0x173652, size: 0x8, addend: 0x0, symName: '__ZNSt3__110__function6__funcIZ18whisper_init_stateE3$_2NS_9allocatorIS2_EEFP11ggml_cgraphvEEclEv', symObjAddr: 0x35494, symBinAddr: 0x35FDC, symSize: 0x10 }
  - { offset: 0x1736DF, size: 0x8, addend: 0x0, symName: '__ZNKSt3__110__function6__funcIZ18whisper_init_stateE3$_2NS_9allocatorIS2_EEFP11ggml_cgraphvEE6targetERKSt9type_info', symObjAddr: 0x354A4, symBinAddr: 0x35FEC, symSize: 0x64 }
  - { offset: 0x17379D, size: 0x8, addend: 0x0, symName: '__ZNKSt3__110__function6__funcIZ18whisper_init_stateE3$_2NS_9allocatorIS2_EEFP11ggml_cgraphvEE11target_typeEv', symObjAddr: 0x35508, symBinAddr: 0x36050, symSize: 0xC }
  - { offset: 0x1737C0, size: 0x8, addend: 0x0, symName: '__ZNSt3__110__function6__funcIZ18whisper_init_stateE3$_3NS_9allocatorIS2_EEFP11ggml_cgraphvEED1Ev', symObjAddr: 0x35514, symBinAddr: 0x3605C, symSize: 0x4 }
  - { offset: 0x1737EB, size: 0x8, addend: 0x0, symName: '__ZNSt3__110__function6__funcIZ18whisper_init_stateE3$_3NS_9allocatorIS2_EEFP11ggml_cgraphvEED0Ev', symObjAddr: 0x35518, symBinAddr: 0x36060, symSize: 0x4 }
  - { offset: 0x1739EF, size: 0x8, addend: 0x0, symName: '__ZNKSt3__110__function6__funcIZ18whisper_init_stateE3$_3NS_9allocatorIS2_EEFP11ggml_cgraphvEE7__cloneEv', symObjAddr: 0x3551C, symBinAddr: 0x36064, symSize: 0x38 }
  - { offset: 0x173D2C, size: 0x8, addend: 0x0, symName: '__ZNKSt3__110__function6__funcIZ18whisper_init_stateE3$_3NS_9allocatorIS2_EEFP11ggml_cgraphvEE7__cloneEPNS0_6__baseIS7_EE', symObjAddr: 0x35554, symBinAddr: 0x3609C, symSize: 0x18 }
  - { offset: 0x173D63, size: 0x8, addend: 0x0, symName: '__ZNKSt3__110__function6__funcIZ18whisper_init_stateE3$_3NS_9allocatorIS2_EEFP11ggml_cgraphvEE7__cloneEPNS0_6__baseIS7_EE', symObjAddr: 0x35554, symBinAddr: 0x3609C, symSize: 0x18 }
  - { offset: 0x173D8B, size: 0x8, addend: 0x0, symName: '__ZNKSt3__110__function6__funcIZ18whisper_init_stateE3$_3NS_9allocatorIS2_EEFP11ggml_cgraphvEE7__cloneEPNS0_6__baseIS7_EE', symObjAddr: 0x35554, symBinAddr: 0x3609C, symSize: 0x18 }
  - { offset: 0x173E85, size: 0x8, addend: 0x0, symName: '__ZNSt3__110__function6__funcIZ18whisper_init_stateE3$_3NS_9allocatorIS2_EEFP11ggml_cgraphvEE7destroyEv', symObjAddr: 0x3556C, symBinAddr: 0x360B4, symSize: 0x4 }
  - { offset: 0x173ED4, size: 0x8, addend: 0x0, symName: '__ZNSt3__110__function6__funcIZ18whisper_init_stateE3$_3NS_9allocatorIS2_EEFP11ggml_cgraphvEE18destroy_deallocateEv', symObjAddr: 0x35570, symBinAddr: 0x360B8, symSize: 0x4 }
  - { offset: 0x173F0A, size: 0x8, addend: 0x0, symName: '__ZNSt3__110__function6__funcIZ18whisper_init_stateE3$_3NS_9allocatorIS2_EEFP11ggml_cgraphvEE18destroy_deallocateEv', symObjAddr: 0x35570, symBinAddr: 0x360B8, symSize: 0x4 }
  - { offset: 0x173F2F, size: 0x8, addend: 0x0, symName: '__ZNSt3__110__function6__funcIZ18whisper_init_stateE3$_3NS_9allocatorIS2_EEFP11ggml_cgraphvEE18destroy_deallocateEv', symObjAddr: 0x35570, symBinAddr: 0x360B8, symSize: 0x4 }
  - { offset: 0x173F5E, size: 0x8, addend: 0x0, symName: '__ZNSt3__110__function6__funcIZ18whisper_init_stateE3$_3NS_9allocatorIS2_EEFP11ggml_cgraphvEE18destroy_deallocateEv', symObjAddr: 0x35570, symBinAddr: 0x360B8, symSize: 0x4 }
  - { offset: 0x173F87, size: 0x8, addend: 0x0, symName: '__ZNSt3__110__function6__funcIZ18whisper_init_stateE3$_3NS_9allocatorIS2_EEFP11ggml_cgraphvEE18destroy_deallocateEv', symObjAddr: 0x35570, symBinAddr: 0x360B8, symSize: 0x4 }
  - { offset: 0x17402D, size: 0x8, addend: 0x0, symName: '__ZNSt3__110__function6__funcIZ18whisper_init_stateE3$_3NS_9allocatorIS2_EEFP11ggml_cgraphvEEclEv', symObjAddr: 0x35574, symBinAddr: 0x360BC, symSize: 0x78 }
  - { offset: 0x174057, size: 0x8, addend: 0x0, symName: '__ZNSt3__110__function6__funcIZ18whisper_init_stateE3$_3NS_9allocatorIS2_EEFP11ggml_cgraphvEEclEv', symObjAddr: 0x35574, symBinAddr: 0x360BC, symSize: 0x78 }
  - { offset: 0x174077, size: 0x8, addend: 0x0, symName: '__ZNSt3__110__function6__funcIZ18whisper_init_stateE3$_3NS_9allocatorIS2_EEFP11ggml_cgraphvEEclEv', symObjAddr: 0x35574, symBinAddr: 0x360BC, symSize: 0x78 }
  - { offset: 0x174096, size: 0x8, addend: 0x0, symName: '__ZNSt3__110__function6__funcIZ18whisper_init_stateE3$_3NS_9allocatorIS2_EEFP11ggml_cgraphvEEclEv', symObjAddr: 0x35574, symBinAddr: 0x360BC, symSize: 0x78 }
  - { offset: 0x1740B5, size: 0x8, addend: 0x0, symName: '__ZNSt3__110__function6__funcIZ18whisper_init_stateE3$_3NS_9allocatorIS2_EEFP11ggml_cgraphvEEclEv', symObjAddr: 0x35574, symBinAddr: 0x360BC, symSize: 0x78 }
  - { offset: 0x174161, size: 0x8, addend: 0x0, symName: '__ZNKSt3__110__function6__funcIZ18whisper_init_stateE3$_3NS_9allocatorIS2_EEFP11ggml_cgraphvEE6targetERKSt9type_info', symObjAddr: 0x355EC, symBinAddr: 0x36134, symSize: 0x64 }
  - { offset: 0x17421F, size: 0x8, addend: 0x0, symName: '__ZNKSt3__110__function6__funcIZ18whisper_init_stateE3$_3NS_9allocatorIS2_EEFP11ggml_cgraphvEE11target_typeEv', symObjAddr: 0x35650, symBinAddr: 0x36198, symSize: 0xC }
  - { offset: 0x17457B, size: 0x8, addend: 0x0, symName: __ZNKSt3__16vectorI19whisper_vad_segmentNS_9allocatorIS1_EEE20__throw_length_errorB8ne190102Ev, symObjAddr: 0x36B70, symBinAddr: 0x376B8, symSize: 0x14 }
  - { offset: 0x1745A5, size: 0x8, addend: 0x0, symName: __ZNSt3__16vectorI18whisper_token_dataNS_9allocatorIS1_EEE8__appendEm, symObjAddr: 0x36B84, symBinAddr: 0x376CC, symSize: 0x1A8 }
  - { offset: 0x174804, size: 0x8, addend: 0x0, symName: __ZNKSt3__16vectorI15whisper_segmentNS_9allocatorIS1_EEE20__throw_length_errorB8ne190102Ev, symObjAddr: 0x36EF4, symBinAddr: 0x37A3C, symSize: 0x14 }
  - { offset: 0x17482E, size: 0x8, addend: 0x0, symName: __ZNSt3__16vectorINS_12basic_stringIcNS_11char_traitsIcEENS_9allocatorIcEEEENS4_IS6_EEEC2B8ne190102ESt16initializer_listIS6_E, symObjAddr: 0x36F08, symBinAddr: 0x37A50, symSize: 0x12C }
  - { offset: 0x17492E, size: 0x8, addend: 0x0, symName: __ZNSt3__16vectorINS_12basic_stringIcNS_11char_traitsIcEENS_9allocatorIcEEEENS4_IS6_EEEC2B8ne190102ESt16initializer_listIS6_E, symObjAddr: 0x36F08, symBinAddr: 0x37A50, symSize: 0x12C }
  - { offset: 0x174CFE, size: 0x8, addend: 0x0, symName: __ZNSt3__128__exception_guard_exceptionsINS_6vectorINS_12basic_stringIcNS_11char_traitsIcEENS_9allocatorIcEEEENS5_IS7_EEE16__destroy_vectorEED1B8ne190102Ev, symObjAddr: 0x37034, symBinAddr: 0x37B7C, symSize: 0x80 }
  - { offset: 0x174FB3, size: 0x8, addend: 0x0, symName: __ZNSt3__128__exception_guard_exceptionsINS_29_AllocatorDestroyRangeReverseINS_9allocatorINS_12basic_stringIcNS_11char_traitsIcEENS2_IcEEEEEEPS7_EEED1B8ne190102Ev, symObjAddr: 0x370B4, symBinAddr: 0x37BFC, symSize: 0x5C }
  - { offset: 0x1763BE, size: 0x8, addend: 0x0, symName: __ZNSt3__110unique_ptrINS_5tupleIJNS0_INS_15__thread_structENS_14default_deleteIS2_EEEEPFiP15whisper_contextP13whisper_state19whisper_full_paramsPKfiES7_S9_SA_SC_iEEENS3_ISF_EEED1B8ne190102Ev, symObjAddr: 0x3A258, symBinAddr: 0x3ADA0, symSize: 0x48 }
  - { offset: 0x177144, size: 0x8, addend: 0x0, symName: __GLOBAL__sub_I_whisper.cpp, symObjAddr: 0x3C818, symBinAddr: 0x3AFA4, symSize: 0x2200 }
  - { offset: 0x181D54, size: 0x8, addend: 0x0, symName: _OUTLINED_FUNCTION_0, symObjAddr: 0x3A790, symBinAddr: 0x3AF50, symSize: 0x18 }
  - { offset: 0x181D6C, size: 0x8, addend: 0x0, symName: _OUTLINED_FUNCTION_1, symObjAddr: 0x3A7A8, symBinAddr: 0x3AF68, symSize: 0x8 }
  - { offset: 0x181D84, size: 0x8, addend: 0x0, symName: _OUTLINED_FUNCTION_2, symObjAddr: 0x3A7B0, symBinAddr: 0x3AF70, symSize: 0xC }
  - { offset: 0x181D9C, size: 0x8, addend: 0x0, symName: _OUTLINED_FUNCTION_3, symObjAddr: 0x3A7BC, symBinAddr: 0x3AF7C, symSize: 0x8 }
  - { offset: 0x181DB4, size: 0x8, addend: 0x0, symName: _OUTLINED_FUNCTION_4, symObjAddr: 0x3A7C4, symBinAddr: 0x3AF84, symSize: 0x8 }
  - { offset: 0x181DCC, size: 0x8, addend: 0x0, symName: _OUTLINED_FUNCTION_5, symObjAddr: 0x3A7CC, symBinAddr: 0x3AF8C, symSize: 0x8 }
  - { offset: 0x181DE4, size: 0x8, addend: 0x0, symName: _OUTLINED_FUNCTION_6, symObjAddr: 0x3A7D4, symBinAddr: 0x3AF94, symSize: 0x8 }
  - { offset: 0x181DFC, size: 0x8, addend: 0x0, symName: _OUTLINED_FUNCTION_7, symObjAddr: 0x3A7DC, symBinAddr: 0x3AF9C, symSize: 0x8 }
  - { offset: 0x1842FC, size: 0x8, addend: 0x0, symName: __Z15dl_load_libraryRKNSt3__14__fs10filesystem4pathE, symObjAddr: 0x0, symBinAddr: 0x3D1A4, symSize: 0xAC }
  - { offset: 0x18EC33, size: 0x8, addend: 0x0, symName: __Z15dl_load_libraryRKNSt3__14__fs10filesystem4pathE, symObjAddr: 0x0, symBinAddr: 0x3D1A4, symSize: 0xAC }
  - { offset: 0x18F167, size: 0x8, addend: 0x0, symName: __Z10dl_get_symPvPKc, symObjAddr: 0xAC, symBinAddr: 0x3D250, symSize: 0x4 }
  - { offset: 0x18F1A5, size: 0x8, addend: 0x0, symName: __Z10dl_get_symPvPKc, symObjAddr: 0xAC, symBinAddr: 0x3D250, symSize: 0x4 }
  - { offset: 0x18F1D8, size: 0x8, addend: 0x0, symName: __Z8dl_errorv, symObjAddr: 0xB0, symBinAddr: 0x3D254, symSize: 0x24 }
  - { offset: 0x196184, size: 0x8, addend: 0x0, symName: __ZNSt3__14__fs10filesystemdvB8ne190102ERKNS1_4pathES4_, symObjAddr: 0x2F54, symBinAddr: 0x40080, symSize: 0xC0 }
  - { offset: 0x1A475F, size: 0x8, addend: 0x0, symName: _ggml_backend_register, symObjAddr: 0x0, symBinAddr: 0x3D278, symSize: 0xD0 }
  - { offset: 0x1A493E, size: 0x8, addend: 0x0, symName: __ZN21ggml_backend_registry16register_backendEP16ggml_backend_regNSt3__110unique_ptrIv17dl_handle_deleterEE, symObjAddr: 0xD0, symBinAddr: 0x3D348, symSize: 0xF8 }
  - { offset: 0x1A4CE7, size: 0x8, addend: 0x0, symName: __ZN21ggml_backend_registryC2Ev, symObjAddr: 0x294C, symBinAddr: 0x3FBC4, symSize: 0x104 }
  - { offset: 0x1A5318, size: 0x8, addend: 0x0, symName: __ZNSt3__110unique_ptrIv17dl_handle_deleterED1B8ne190102Ev, symObjAddr: 0x1C8, symBinAddr: 0x3D440, symSize: 0x34 }
  - { offset: 0x1A55F2, size: 0x8, addend: 0x0, symName: __ZNSt3__16vectorI22ggml_backend_reg_entryNS_9allocatorIS1_EEE21__push_back_slow_pathIS1_EEPS1_OT_, symObjAddr: 0x2BB0, symBinAddr: 0x3FE18, symSize: 0x1E4 }
  - { offset: 0x1A5D21, size: 0x8, addend: 0x0, symName: __ZN21ggml_backend_registry15register_deviceEP19ggml_backend_device, symObjAddr: 0x2A4, symBinAddr: 0x3D51C, symSize: 0x108 }
  - { offset: 0x1A616E, size: 0x8, addend: 0x0, symName: _ggml_backend_reg_count, symObjAddr: 0x3AC, symBinAddr: 0x3D624, symSize: 0x98 }
  - { offset: 0x1A6179, size: 0x8, addend: 0x0, symName: __ZN22ggml_backend_reg_entryD1Ev, symObjAddr: 0x2AD4, symBinAddr: 0x3FD3C, symSize: 0x34 }
  - { offset: 0x1A6249, size: 0x8, addend: 0x0, symName: _ggml_backend_device_register, symObjAddr: 0x1FC, symBinAddr: 0x3D474, symSize: 0xA8 }
  - { offset: 0x1A663A, size: 0x8, addend: 0x0, symName: __ZNKSt3__16vectorIP19ggml_backend_deviceNS_9allocatorIS2_EEE20__throw_length_errorB8ne190102Ev, symObjAddr: 0x2E44, symBinAddr: 0x40010, symSize: 0x14 }
  - { offset: 0x1A668B, size: 0x8, addend: 0x0, symName: _ggml_backend_reg_count, symObjAddr: 0x3AC, symBinAddr: 0x3D624, symSize: 0x98 }
  - { offset: 0x1A672F, size: 0x8, addend: 0x0, symName: _ggml_backend_reg_get, symObjAddr: 0x444, symBinAddr: 0x3D6BC, symSize: 0x148 }
  - { offset: 0x1A68A1, size: 0x8, addend: 0x0, symName: _ggml_backend_reg_by_name, symObjAddr: 0x58C, symBinAddr: 0x3D804, symSize: 0x134 }
  - { offset: 0x1A6A42, size: 0x8, addend: 0x0, symName: _ggml_backend_dev_count, symObjAddr: 0x6C0, symBinAddr: 0x3D938, symSize: 0x98 }
  - { offset: 0x1A6ADB, size: 0x8, addend: 0x0, symName: _ggml_backend_dev_get, symObjAddr: 0x758, symBinAddr: 0x3D9D0, symSize: 0x144 }
  - { offset: 0x1A6BDF, size: 0x8, addend: 0x0, symName: _ggml_backend_dev_by_name, symObjAddr: 0x89C, symBinAddr: 0x3DB14, symSize: 0x138 }
  - { offset: 0x1A6D5F, size: 0x8, addend: 0x0, symName: _ggml_backend_dev_by_type, symObjAddr: 0x9D4, symBinAddr: 0x3DC4C, symSize: 0xE8 }
  - { offset: 0x1A6E6E, size: 0x8, addend: 0x0, symName: _ggml_backend_init_by_name, symObjAddr: 0xABC, symBinAddr: 0x3DD34, symSize: 0x34 }
  - { offset: 0x1A6EF9, size: 0x8, addend: 0x0, symName: _ggml_backend_init_by_type, symObjAddr: 0xAF0, symBinAddr: 0x3DD68, symSize: 0x34 }
  - { offset: 0x1A6F6D, size: 0x8, addend: 0x0, symName: _ggml_backend_init_best, symObjAddr: 0xB24, symBinAddr: 0x3DD9C, symSize: 0x3C }
  - { offset: 0x1A72E2, size: 0x8, addend: 0x0, symName: _ggml_backend_load, symObjAddr: 0xB60, symBinAddr: 0x3DDD8, symSize: 0x110 }
  - { offset: 0x1A762B, size: 0x8, addend: 0x0, symName: __ZNSt3__112basic_stringIcNS_11char_traitsIcEENS_9allocatorIcEEE6appendB8ne190102IPKcLi0EEERS5_T_SA_, symObjAddr: 0x3084, symBinAddr: 0x401B0, symSize: 0x20C }
  - { offset: 0x1A800B, size: 0x8, addend: 0x0, symName: __ZN21ggml_backend_registry12load_backendERKNSt3__14__fs10filesystem4pathEb, symObjAddr: 0xC70, symBinAddr: 0x3DEE8, symSize: 0x47C }
  - { offset: 0x1A9646, size: 0x8, addend: 0x0, symName: _ggml_backend_unload, symObjAddr: 0x10EC, symBinAddr: 0x3E364, symSize: 0x98 }
  - { offset: 0x1A96C2, size: 0x8, addend: 0x0, symName: __ZN21ggml_backend_registry14unload_backendEP16ggml_backend_regb, symObjAddr: 0x1184, symBinAddr: 0x3E3FC, symSize: 0x1D4 }
  - { offset: 0x1AA180, size: 0x8, addend: 0x0, symName: _ggml_backend_load_all, symObjAddr: 0x1358, symBinAddr: 0x3E5D0, symSize: 0x8 }
  - { offset: 0x1AA1AD, size: 0x8, addend: 0x0, symName: _ggml_backend_load_all_from_path, symObjAddr: 0x1360, symBinAddr: 0x3E5D8, symSize: 0x128 }
  - { offset: 0x1AA35B, size: 0x8, addend: 0x0, symName: __ZL22ggml_backend_load_bestPKcbS0_, symObjAddr: 0x1488, symBinAddr: 0x3E700, symSize: 0x14C0 }
  - { offset: 0x1B2F05, size: 0x8, addend: 0x0, symName: __ZNSt3__16vectorINS_4__fs10filesystem4pathENS_9allocatorIS3_EEE21__push_back_slow_pathIS3_EEPS3_OT_, symObjAddr: 0x3290, symBinAddr: 0x403BC, symSize: 0x154 }
  - { offset: 0x1B365A, size: 0x8, addend: 0x0, symName: __ZNKSt3__16vectorINS_4__fs10filesystem4pathENS_9allocatorIS3_EEE20__throw_length_errorB8ne190102Ev, symObjAddr: 0x33E4, symBinAddr: 0x40510, symSize: 0x14 }
  - { offset: 0x1B36DB, size: 0x8, addend: 0x0, symName: __ZNSt3__14__fs10filesystem18directory_iteratorD1B8ne190102Ev, symObjAddr: 0x2EF8, symBinAddr: 0x40024, symSize: 0x5C }
  - { offset: 0x1B36E6, size: 0x8, addend: 0x0, symName: __ZNSt3__14__fs10filesystem18directory_iteratorD1B8ne190102Ev, symObjAddr: 0x2EF8, symBinAddr: 0x40024, symSize: 0x5C }
  - { offset: 0x1B37B5, size: 0x8, addend: 0x0, symName: __ZNSt3__16vectorINS_4__fs10filesystem4pathENS_9allocatorIS3_EEED1B8ne190102Ev, symObjAddr: 0x3014, symBinAddr: 0x40140, symSize: 0x70 }
  - { offset: 0x1B3A8E, size: 0x8, addend: 0x0, symName: __ZN21ggml_backend_registryD1Ev, symObjAddr: 0x2948, symBinAddr: 0x3FBC0, symSize: 0x4 }
  - { offset: 0x1B3ABA, size: 0x8, addend: 0x0, symName: __ZN21ggml_backend_registryD1Ev, symObjAddr: 0x2948, symBinAddr: 0x3FBC0, symSize: 0x4 }
  - { offset: 0x1B3ACE, size: 0x8, addend: 0x0, symName: __ZN21ggml_backend_registryD2Ev, symObjAddr: 0x2B08, symBinAddr: 0x3FD70, symSize: 0xA8 }
  - { offset: 0x1B3FE5, size: 0x8, addend: 0x0, symName: __ZNSt3__16vectorI22ggml_backend_reg_entryNS_9allocatorIS1_EEED1B8ne190102Ev, symObjAddr: 0x2A50, symBinAddr: 0x3FCC8, symSize: 0x74 }
  - { offset: 0x1B443D, size: 0x8, addend: 0x0, symName: __ZNKSt3__16vectorI22ggml_backend_reg_entryNS_9allocatorIS1_EEE20__throw_length_errorB8ne190102Ev, symObjAddr: 0x2D94, symBinAddr: 0x3FFFC, symSize: 0x14 }
  - { offset: 0x1B49F8, size: 0x8, addend: 0x0, symName: __ZNKSt3__16vectorINS_4__fs10filesystem4pathENS_9allocatorIS3_EEE20__throw_length_errorB8ne190102Ev, symObjAddr: 0x33E4, symBinAddr: 0x40510, symSize: 0x14 }
  - { offset: 0x1B68D0, size: 0x8, addend: 0x0, symName: _ggml_op_can_inplace, symObjAddr: 0x0, symBinAddr: 0x40524, symSize: 0x4C }
  - { offset: 0x1B7CA0, size: 0x8, addend: 0x0, symName: _ggml_op_can_inplace, symObjAddr: 0x0, symBinAddr: 0x40524, symSize: 0x4C }
  - { offset: 0x1B7D09, size: 0x8, addend: 0x0, symName: _ggml_tallocr_new, symObjAddr: 0x4C, symBinAddr: 0x40570, symSize: 0x58 }
  - { offset: 0x1B7DBF, size: 0x8, addend: 0x0, symName: _ggml_tallocr_alloc, symObjAddr: 0xA4, symBinAddr: 0x405C8, symSize: 0xD0 }
  - { offset: 0x1B7E7D, size: 0x8, addend: 0x0, symName: _ggml_gallocr_new_n, symObjAddr: 0x174, symBinAddr: 0x40698, symSize: 0x208 }
  - { offset: 0x1B7F45, size: 0x8, addend: 0x0, symName: _ggml_gallocr_new_n, symObjAddr: 0x174, symBinAddr: 0x40698, symSize: 0x208 }
  - { offset: 0x1B8127, size: 0x8, addend: 0x0, symName: _ggml_gallocr_new, symObjAddr: 0x37C, symBinAddr: 0x408A0, symSize: 0x28 }
  - { offset: 0x1B818D, size: 0x8, addend: 0x0, symName: _ggml_dyn_tallocr_reset, symObjAddr: 0x1E80, symBinAddr: 0x423A4, symSize: 0xE0 }
  - { offset: 0x1B82B6, size: 0x8, addend: 0x0, symName: _ggml_gallocr_new, symObjAddr: 0x37C, symBinAddr: 0x408A0, symSize: 0x28 }
  - { offset: 0x1B8327, size: 0x8, addend: 0x0, symName: _ggml_gallocr_free, symObjAddr: 0x3A4, symBinAddr: 0x408C8, symSize: 0x144 }
  - { offset: 0x1B84C3, size: 0x8, addend: 0x0, symName: _ggml_vbuffer_free, symObjAddr: 0x4E8, symBinAddr: 0x40A0C, symSize: 0xAC }
  - { offset: 0x1B861E, size: 0x8, addend: 0x0, symName: _ggml_gallocr_reserve_n_size, symObjAddr: 0x594, symBinAddr: 0x40AB8, symSize: 0xB4 }
  - { offset: 0x1B8703, size: 0x8, addend: 0x0, symName: _ggml_gallocr_reserve_n_impl, symObjAddr: 0x648, symBinAddr: 0x40B6C, symSize: 0xBEC }
  - { offset: 0x1B8717, size: 0x8, addend: 0x0, symName: _ggml_gallocr_reserve_n_impl, symObjAddr: 0x648, symBinAddr: 0x40B6C, symSize: 0xBEC }
  - { offset: 0x1B964E, size: 0x8, addend: 0x0, symName: _ggml_gallocr_reserve_n, symObjAddr: 0x1234, symBinAddr: 0x41758, symSize: 0x8 }
  - { offset: 0x1B9A3A, size: 0x8, addend: 0x0, symName: _ggml_gallocr_allocate_node, symObjAddr: 0x1FF4, symBinAddr: 0x42518, symSize: 0x6A0 }
  - { offset: 0x1BA17D, size: 0x8, addend: 0x0, symName: _ggml_dyn_tallocr_free_bytes, symObjAddr: 0x289C, symBinAddr: 0x42DC0, symSize: 0x1D0 }
  - { offset: 0x1BA34C, size: 0x8, addend: 0x0, symName: _alloc_tensor_range, symObjAddr: 0x2A6C, symBinAddr: 0x42F90, symSize: 0x1D8 }
  - { offset: 0x1BA3A1, size: 0x8, addend: 0x0, symName: _ggml_gallocr_reserve_n, symObjAddr: 0x1234, symBinAddr: 0x41758, symSize: 0x8 }
  - { offset: 0x1BA44E, size: 0x8, addend: 0x0, symName: _ggml_gallocr_reserve, symObjAddr: 0x123C, symBinAddr: 0x41760, symSize: 0x10 }
  - { offset: 0x1BA476, size: 0x8, addend: 0x0, symName: _ggml_gallocr_reserve, symObjAddr: 0x123C, symBinAddr: 0x41760, symSize: 0x10 }
  - { offset: 0x1BA674, size: 0x8, addend: 0x0, symName: _ggml_gallocr_alloc_graph, symObjAddr: 0x124C, symBinAddr: 0x41770, symSize: 0x658 }
  - { offset: 0x1BAD1F, size: 0x8, addend: 0x0, symName: _ggml_gallocr_get_buffer_size, symObjAddr: 0x18A4, symBinAddr: 0x41DC8, symSize: 0x21C }
  - { offset: 0x1BAE9C, size: 0x8, addend: 0x0, symName: _ggml_backend_alloc_ctx_tensors_from_buft_size, symObjAddr: 0x1AC0, symBinAddr: 0x41FE4, symSize: 0x54 }
  - { offset: 0x1BAEB0, size: 0x8, addend: 0x0, symName: _ggml_backend_alloc_ctx_tensors_from_buft_size, symObjAddr: 0x1AC0, symBinAddr: 0x41FE4, symSize: 0x54 }
  - { offset: 0x1BAF3F, size: 0x8, addend: 0x0, symName: _ggml_backend_alloc_ctx_tensors_from_buft_impl, symObjAddr: 0x1B14, symBinAddr: 0x42038, symSize: 0x2A0 }
  - { offset: 0x1BAF53, size: 0x8, addend: 0x0, symName: _ggml_backend_alloc_ctx_tensors_from_buft_impl, symObjAddr: 0x1B14, symBinAddr: 0x42038, symSize: 0x2A0 }
  - { offset: 0x1BB211, size: 0x8, addend: 0x0, symName: _ggml_backend_alloc_ctx_tensors_from_buft, symObjAddr: 0x1DB4, symBinAddr: 0x422D8, symSize: 0x64 }
  - { offset: 0x1BB27E, size: 0x8, addend: 0x0, symName: _alloc_tensor_range, symObjAddr: 0x2A6C, symBinAddr: 0x42F90, symSize: 0x1D8 }
  - { offset: 0x1BB58A, size: 0x8, addend: 0x0, symName: _ggml_backend_alloc_ctx_tensors_from_buft, symObjAddr: 0x1DB4, symBinAddr: 0x422D8, symSize: 0x64 }
  - { offset: 0x1BB66E, size: 0x8, addend: 0x0, symName: _ggml_backend_alloc_ctx_tensors, symObjAddr: 0x1E18, symBinAddr: 0x4233C, symSize: 0x68 }
  - { offset: 0x1BB747, size: 0x8, addend: 0x0, symName: _ggml_gallocr_hash_get, symObjAddr: 0x1F60, symBinAddr: 0x42484, symSize: 0x94 }
  - { offset: 0x1BBA4E, size: 0x8, addend: 0x0, symName: _ggml_gallocr_free_extra_space, symObjAddr: 0x2694, symBinAddr: 0x42BB8, symSize: 0x208 }
  - { offset: 0x1BBD9C, size: 0x8, addend: 0x0, symName: _ggml_dyn_tallocr_free_bytes, symObjAddr: 0x289C, symBinAddr: 0x42DC0, symSize: 0x1D0 }
  - { offset: 0x1BBF2D, size: 0x8, addend: 0x0, symName: _ggml_backend_meta_device, symObjAddr: 0xD4, symBinAddr: 0x4323C, symSize: 0x67C }
  - { offset: 0x1BBF53, size: 0x8, addend: 0x0, symName: __MergedGlobals, symObjAddr: 0x15A968, symBinAddr: 0x22E6C8, symSize: 0x0 }
  - { offset: 0x1BBF6B, size: 0x8, addend: 0x0, symName: __MergedGlobals, symObjAddr: 0x15A968, symBinAddr: 0x22E6C8, symSize: 0x0 }
  - { offset: 0x1E1CE3, size: 0x8, addend: 0x0, symName: __ZL30ggml_backend_meta_device_iface, symObjAddr: 0xFC58, symBinAddr: 0x1956D8, symSize: 0x0 }
  - { offset: 0x1E1CF6, size: 0x8, addend: 0x0, symName: __ZL40ggml_backend_meta_device_get_buffer_typeP19ggml_backend_device, symObjAddr: 0x234C, symBinAddr: 0x453F4, symSize: 0x418 }
  - { offset: 0x1E1D22, size: 0x8, addend: 0x0, symName: __MergedGlobals, symObjAddr: 0x15A968, symBinAddr: 0x22E6C8, symSize: 0x0 }
  - { offset: 0x1E33A6, size: 0x8, addend: 0x0, symName: __ZL35ggml_backend_meta_buffer_type_iface, symObjAddr: 0xFCD0, symBinAddr: 0x195750, symSize: 0x0 }
  - { offset: 0x1E33C6, size: 0x8, addend: 0x0, symName: __ZL30ggml_backend_meta_buffer_iface, symObjAddr: 0xFD00, symBinAddr: 0x195780, symSize: 0x0 }
  - { offset: 0x1E33EB, size: 0x8, addend: 0x0, symName: __ZL19ggml_backend_meta_i, symObjAddr: 0xFD58, symBinAddr: 0x1957D8, symSize: 0x0 }
  - { offset: 0x1E560D, size: 0x8, addend: 0x0, symName: _ggml_backend_meta_split_axis_name, symObjAddr: 0x0, symBinAddr: 0x43168, symSize: 0xD4 }
  - { offset: 0x1E562F, size: 0x8, addend: 0x0, symName: _ggml_backend_meta_device, symObjAddr: 0xD4, symBinAddr: 0x4323C, symSize: 0x67C }
  - { offset: 0x1E6817, size: 0x8, addend: 0x0, symName: __ZN32ggml_backend_meta_device_contextC2ERKS_, symObjAddr: 0xDD20, symBinAddr: 0x50B7C, symSize: 0x120 }
  - { offset: 0x1E6822, size: 0x8, addend: 0x0, symName: _ggml_backend_meta_device.cold.1, symObjAddr: 0xE2A0, symBinAddr: 0x164FFC, symSize: 0x50 }
  - { offset: 0x1E6867, size: 0x8, addend: 0x0, symName: _ggml_backend_meta_device.cold.2, symObjAddr: 0xE2F0, symBinAddr: 0x16504C, symSize: 0x58 }
  - { offset: 0x1E691D, size: 0x8, addend: 0x0, symName: __ZN32ggml_backend_meta_device_contextC2ENSt3__16vectorIP19ggml_backend_deviceNS0_9allocatorIS3_EEEEPF29ggml_backend_meta_split_statePK11ggml_tensorPvESB_, symObjAddr: 0x1D14, symBinAddr: 0x44E7C, symSize: 0x1C4 }
  - { offset: 0x1E6EF6, size: 0x8, addend: 0x0, symName: __ZN32ggml_backend_meta_device_contextC2ERKS_, symObjAddr: 0xDD20, symBinAddr: 0x50B7C, symSize: 0x120 }
  - { offset: 0x1E745E, size: 0x8, addend: 0x0, symName: __ZNSt3__114__split_bufferINS_10unique_ptrI32ggml_backend_meta_device_contextNS_14default_deleteIS2_EEEERNS_9allocatorIS5_EEED2Ev, symObjAddr: 0xDEE0, symBinAddr: 0x50CB0, symSize: 0xAC }
  - { offset: 0x1E79DB, size: 0x8, addend: 0x0, symName: __ZNSt3__16__treeINS_12__value_typeI32ggml_backend_meta_device_context19ggml_backend_deviceEENS_19__map_value_compareIS2_S4_NS_4lessIS2_EELb1EEENS_9allocatorIS4_EEE25__emplace_unique_key_argsIS2_JRS2_RS3_EEENS_4pairINS_15__tree_iteratorIS4_PNS_11__tree_nodeIS4_PvEElEEbEERKT_DpOT0_, symObjAddr: 0xDF8C, symBinAddr: 0x50D5C, symSize: 0x118 }
  - { offset: 0x1E7DA6, size: 0x8, addend: 0x0, symName: __ZNKSt3__16vectorINS_10unique_ptrI32ggml_backend_meta_device_contextNS_14default_deleteIS2_EEEENS_9allocatorIS5_EEE20__throw_length_errorB8ne190102Ev, symObjAddr: 0xDECC, symBinAddr: 0x50C9C, symSize: 0x14 }
  - { offset: 0x1E7DD0, size: 0x8, addend: 0x0, symName: __ZNSt3__114__split_bufferINS_10unique_ptrI32ggml_backend_meta_device_contextNS_14default_deleteIS2_EEEERNS_9allocatorIS5_EEED2Ev, symObjAddr: 0xDEE0, symBinAddr: 0x50CB0, symSize: 0xAC }
  - { offset: 0x1E7DDB, size: 0x8, addend: 0x0, symName: __ZNSt3__110unique_ptrI32ggml_backend_meta_device_contextNS_14default_deleteIS1_EEED1B8ne190102Ev, symObjAddr: 0x7AC, symBinAddr: 0x43914, symSize: 0x78 }
  - { offset: 0x1E821E, size: 0x8, addend: 0x0, symName: __ZN32ggml_backend_meta_device_contextD1Ev, symObjAddr: 0x824, symBinAddr: 0x4398C, symSize: 0x64 }
  - { offset: 0x1E864C, size: 0x8, addend: 0x0, symName: __ZNSt3__16vectorINS_10unique_ptrI32ggml_backend_meta_device_contextNS_14default_deleteIS2_EEEENS_9allocatorIS5_EEED1B8ne190102Ev, symObjAddr: 0x750, symBinAddr: 0x438B8, symSize: 0x34 }
  - { offset: 0x1E86FE, size: 0x8, addend: 0x0, symName: __ZNSt3__16vectorINS_10unique_ptrI32ggml_backend_meta_device_contextNS_14default_deleteIS2_EEEENS_9allocatorIS5_EEE16__destroy_vectorclB8ne190102Ev, symObjAddr: 0xDBA4, symBinAddr: 0x50A14, symSize: 0xE4 }
  - { offset: 0x1E8CD7, size: 0x8, addend: 0x0, symName: __ZNSt3__13mapI32ggml_backend_meta_device_context19ggml_backend_deviceNS_4lessIS1_EENS_9allocatorINS_4pairIKS1_S2_EEEEED1B8ne190102Ev, symObjAddr: 0x784, symBinAddr: 0x438EC, symSize: 0x28 }
  - { offset: 0x1E8D95, size: 0x8, addend: 0x0, symName: __ZNSt3__16__treeINS_12__value_typeI32ggml_backend_meta_device_context19ggml_backend_deviceEENS_19__map_value_compareIS2_S4_NS_4lessIS2_EELb1EEENS_9allocatorIS4_EEE7destroyEPNS_11__tree_nodeIS4_PvEE, symObjAddr: 0xDC88, symBinAddr: 0x50AF8, symSize: 0x84 }
  - { offset: 0x1E9366, size: 0x8, addend: 0x0, symName: _ggml_backend_buft_is_meta, symObjAddr: 0x888, symBinAddr: 0x439F0, symSize: 0x1C }
  - { offset: 0x1E9385, size: 0x8, addend: 0x0, symName: _ggml_backend_buffer_is_meta, symObjAddr: 0x8A4, symBinAddr: 0x43A0C, symSize: 0x1C }
  - { offset: 0x1E9B3F, size: 0x8, addend: 0x0, symName: _ggml_backend_meta_alloc_ctx_tensors_from_buft, symObjAddr: 0x8C0, symBinAddr: 0x43A28, symSize: 0x534 }
  - { offset: 0x1EAE63, size: 0x8, addend: 0x0, symName: __ZN41ggml_backend_meta_simple_tensor_containerC2ERK16ggml_init_paramsi, symObjAddr: 0xA28C, symBinAddr: 0x4D110, symSize: 0x1A4 }
  - { offset: 0x1EB7C5, size: 0x8, addend: 0x0, symName: __ZN32ggml_backend_meta_buffer_contextC2ER41ggml_backend_meta_simple_tensor_containerS1_S1_RKNSt3__16vectorIP19ggml_backend_bufferNS2_9allocatorIS5_EEEE, symObjAddr: 0xA504, symBinAddr: 0x4D388, symSize: 0x2E8 }
  - { offset: 0x1EC5EF, size: 0x8, addend: 0x0, symName: __ZL41ggml_backend_meta_buffer_init_tensor_implR41ggml_backend_meta_simple_tensor_containerP11ggml_tensor, symObjAddr: 0xDF4, symBinAddr: 0x43F5C, symSize: 0xDC0 }
  - { offset: 0x1EDD70, size: 0x8, addend: 0x0, symName: __ZNSt3__16__treeINS_12__value_typeIPK11ggml_tensorNS_6vectorIPS2_NS_9allocatorIS6_EEEEEENS_19__map_value_compareIS4_SA_NS_4lessIS4_EELb1EEENS7_ISA_EEE7destroyEPNS_11__tree_nodeISA_PvEE, symObjAddr: 0xA4B4, symBinAddr: 0x4D338, symSize: 0x50 }
  - { offset: 0x1EE0BC, size: 0x8, addend: 0x0, symName: __ZL36ggml_backend_meta_buffer_free_bufferP19ggml_backend_buffer, symObjAddr: 0x4518, symBinAddr: 0x473B0, symSize: 0x6C }
  - { offset: 0x1EE0C7, size: 0x8, addend: 0x0, symName: __ZN41ggml_backend_meta_simple_tensor_containerD1Ev, symObjAddr: 0x1BB4, symBinAddr: 0x44D1C, symSize: 0x7C }
  - { offset: 0x1EEEC0, size: 0x8, addend: 0x0, symName: __ZL33ggml_backend_meta_get_split_stateR41ggml_backend_meta_simple_tensor_containerPK11ggml_tensorb, symObjAddr: 0x60E4, symBinAddr: 0x48F7C, symSize: 0x2608 }
  - { offset: 0x1F5033, size: 0x8, addend: 0x0, symName: __ZL38ggml_backend_meta_buffer_simple_tensorPK11ggml_tensorm, symObjAddr: 0x5FB0, symBinAddr: 0x48E48, symSize: 0x134 }
  - { offset: 0x1F536C, size: 0x8, addend: 0x0, symName: __ZL33ggml_backend_meta_get_split_stateR41ggml_backend_meta_simple_tensor_containerPK11ggml_tensorb, symObjAddr: 0x60E4, symBinAddr: 0x48F7C, symSize: 0x2608 }
  - { offset: 0x1F5392, size: 0x8, addend: 0x0, symName: __ZNSt3__16vectorIP11ggml_tensorNS_9allocatorIS2_EEE18__assign_with_sizeB8ne190102IPS2_S7_EEvT_T0_l, symObjAddr: 0xA800, symBinAddr: 0x4D670, symSize: 0x14C }
  - { offset: 0x1F5E9F, size: 0x8, addend: 0x0, symName: __ZL26ggml_backend_meta_get_nameP12ggml_backend, symObjAddr: 0xA94C, symBinAddr: 0x4D7BC, symSize: 0x60 }
  - { offset: 0x1F5EDC, size: 0x8, addend: 0x0, symName: __ZNSt3__16vectorIP11ggml_tensorNS_9allocatorIS2_EEE18__assign_with_sizeB8ne190102IPS2_S7_EEvT_T0_l, symObjAddr: 0xA800, symBinAddr: 0x4D670, symSize: 0x14C }
  - { offset: 0x1F5EE7, size: 0x8, addend: 0x0, symName: _ggml_backend_is_meta, symObjAddr: 0x1C30, symBinAddr: 0x44D98, symSize: 0x1C }
  - { offset: 0x1F5F3D, size: 0x8, addend: 0x0, symName: _ggml_backend_meta_n_backends, symObjAddr: 0x1C4C, symBinAddr: 0x44DB4, symSize: 0x68 }
  - { offset: 0x1F5F69, size: 0x8, addend: 0x0, symName: _ggml_backend_meta_n_backends, symObjAddr: 0x1C4C, symBinAddr: 0x44DB4, symSize: 0x68 }
  - { offset: 0x1F5FA9, size: 0x8, addend: 0x0, symName: _ggml_backend_meta_simple_backend, symObjAddr: 0x1CB4, symBinAddr: 0x44E1C, symSize: 0x60 }
  - { offset: 0x1F5FE1, size: 0x8, addend: 0x0, symName: _ggml_backend_meta_simple_backend, symObjAddr: 0x1CB4, symBinAddr: 0x44E1C, symSize: 0x60 }
  - { offset: 0x1F6017, size: 0x8, addend: 0x0, symName: _ggml_backend_meta_simple_backend, symObjAddr: 0x1CB4, symBinAddr: 0x44E1C, symSize: 0x60 }
  - { offset: 0x1F605F, size: 0x8, addend: 0x0, symName: __ZN32ggml_backend_meta_device_contextC2ENSt3__16vectorIP19ggml_backend_deviceNS0_9allocatorIS3_EEEEPF29ggml_backend_meta_split_statePK11ggml_tensorPvESB_, symObjAddr: 0x1D14, symBinAddr: 0x44E7C, symSize: 0x1C4 }
  - { offset: 0x1F6373, size: 0x8, addend: 0x0, symName: __ZL33ggml_backend_meta_device_get_nameP19ggml_backend_device, symObjAddr: 0x1F98, symBinAddr: 0x45040, symSize: 0x64 }
  - { offset: 0x1F639F, size: 0x8, addend: 0x0, symName: __ZL33ggml_backend_meta_device_get_nameP19ggml_backend_device, symObjAddr: 0x1F98, symBinAddr: 0x45040, symSize: 0x64 }
  - { offset: 0x1F6445, size: 0x8, addend: 0x0, symName: __ZL40ggml_backend_meta_device_get_descriptionP19ggml_backend_device, symObjAddr: 0x1FFC, symBinAddr: 0x450A4, symSize: 0x64 }
  - { offset: 0x1F6458, size: 0x8, addend: 0x0, symName: __ZL40ggml_backend_meta_device_get_descriptionP19ggml_backend_device, symObjAddr: 0x1FFC, symBinAddr: 0x450A4, symSize: 0x64 }
  - { offset: 0x1F6484, size: 0x8, addend: 0x0, symName: __ZL40ggml_backend_meta_device_get_descriptionP19ggml_backend_device, symObjAddr: 0x1FFC, symBinAddr: 0x450A4, symSize: 0x64 }
  - { offset: 0x1F652A, size: 0x8, addend: 0x0, symName: __ZL35ggml_backend_meta_device_get_memoryP19ggml_backend_devicePmS1_, symObjAddr: 0x2060, symBinAddr: 0x45108, symSize: 0xC0 }
  - { offset: 0x1F653D, size: 0x8, addend: 0x0, symName: __ZL35ggml_backend_meta_device_get_memoryP19ggml_backend_devicePmS1_, symObjAddr: 0x2060, symBinAddr: 0x45108, symSize: 0xC0 }
  - { offset: 0x1F663F, size: 0x8, addend: 0x0, symName: __ZL33ggml_backend_meta_device_get_typeP19ggml_backend_device, symObjAddr: 0x2120, symBinAddr: 0x451C8, symSize: 0x8 }
  - { offset: 0x1F6669, size: 0x8, addend: 0x0, symName: __ZL33ggml_backend_meta_device_get_typeP19ggml_backend_device, symObjAddr: 0x2120, symBinAddr: 0x451C8, symSize: 0x8 }
  - { offset: 0x1F676B, size: 0x8, addend: 0x0, symName: __ZL34ggml_backend_meta_device_get_propsP19ggml_backend_deviceP22ggml_backend_dev_props, symObjAddr: 0x2128, symBinAddr: 0x451D0, symSize: 0x180 }
  - { offset: 0x1F6A74, size: 0x8, addend: 0x0, symName: __ZL37ggml_backend_meta_device_init_backendP19ggml_backend_devicePKc, symObjAddr: 0x22A8, symBinAddr: 0x45350, symSize: 0xA4 }
  - { offset: 0x1F6ACB, size: 0x8, addend: 0x0, symName: __ZL37ggml_backend_meta_device_init_backendP19ggml_backend_devicePKc, symObjAddr: 0x22A8, symBinAddr: 0x45350, symSize: 0xA4 }
  - { offset: 0x1F6B7B, size: 0x8, addend: 0x0, symName: __ZN25ggml_backend_meta_contextC2EP19ggml_backend_devicePKc, symObjAddr: 0x29D0, symBinAddr: 0x45A78, symSize: 0x678 }
  - { offset: 0x1F8BB2, size: 0x8, addend: 0x0, symName: __ZN37ggml_backend_meta_buffer_type_contextC2ENSt3__16vectorIP24ggml_backend_buffer_typeNS0_9allocatorIS3_EEEE, symObjAddr: 0x3820, symBinAddr: 0x46880, symSize: 0x138 }
  - { offset: 0x1F9025, size: 0x8, addend: 0x0, symName: __ZNKSt3__16vectorIP24ggml_backend_buffer_typeNS_9allocatorIS2_EEE20__throw_length_errorB8ne190102Ev, symObjAddr: 0x380C, symBinAddr: 0x4686C, symSize: 0x14 }
  - { offset: 0x1F904F, size: 0x8, addend: 0x0, symName: __ZN37ggml_backend_meta_buffer_type_contextC2ENSt3__16vectorIP24ggml_backend_buffer_typeNS0_9allocatorIS3_EEEE, symObjAddr: 0x3820, symBinAddr: 0x46880, symSize: 0x138 }
  - { offset: 0x1F905A, size: 0x8, addend: 0x0, symName: __ZL40ggml_backend_meta_device_get_buffer_typeP19ggml_backend_device.cold.1, symObjAddr: 0xE348, symBinAddr: 0x1650A4, symSize: 0x58 }
  - { offset: 0x1F912D, size: 0x8, addend: 0x0, symName: __ZL45ggml_backend_meta_device_get_host_buffer_typeP19ggml_backend_device, symObjAddr: 0x2764, symBinAddr: 0x4580C, symSize: 0xAC }
  - { offset: 0x1F925E, size: 0x8, addend: 0x0, symName: __ZL36ggml_backend_meta_device_supports_opP19ggml_backend_devicePK11ggml_tensor, symObjAddr: 0x2810, symBinAddr: 0x458B8, symSize: 0xB0 }
  - { offset: 0x1F9284, size: 0x8, addend: 0x0, symName: __ZL36ggml_backend_meta_device_supports_opP19ggml_backend_devicePK11ggml_tensor, symObjAddr: 0x2810, symBinAddr: 0x458B8, symSize: 0xB0 }
  - { offset: 0x1F93A3, size: 0x8, addend: 0x0, symName: __ZL38ggml_backend_meta_device_supports_buftP19ggml_backend_deviceP24ggml_backend_buffer_type, symObjAddr: 0x28C0, symBinAddr: 0x45968, symSize: 0x110 }
  - { offset: 0x1F9404, size: 0x8, addend: 0x0, symName: __ZL38ggml_backend_meta_device_supports_buftP19ggml_backend_deviceP24ggml_backend_buffer_type, symObjAddr: 0x28C0, symBinAddr: 0x45968, symSize: 0x110 }
  - { offset: 0x1F9519, size: 0x8, addend: 0x0, symName: __ZN25ggml_backend_meta_contextC2EP19ggml_backend_devicePKc, symObjAddr: 0x29D0, symBinAddr: 0x45A78, symSize: 0x678 }
  - { offset: 0x1F9D55, size: 0x8, addend: 0x0, symName: __ZNSt3__16vectorIN25ggml_backend_meta_context14backend_configENS_9allocatorIS2_EEE7reserveEm, symObjAddr: 0x3048, symBinAddr: 0x460F0, symSize: 0x138 }
  - { offset: 0x1FA319, size: 0x8, addend: 0x0, symName: __ZNSt3__16vectorINS_10unique_ptrI19ggml_backend_buffer27ggml_backend_buffer_deleterEENS_9allocatorIS4_EEE8__appendEm, symObjAddr: 0x3668, symBinAddr: 0x466C8, symSize: 0x124 }
  - { offset: 0x1FA835, size: 0x8, addend: 0x0, symName: __ZNKSt3__16vectorINS_10unique_ptrI19ggml_backend_buffer27ggml_backend_buffer_deleterEENS_9allocatorIS4_EEE20__throw_length_errorB8ne190102Ev, symObjAddr: 0x378C, symBinAddr: 0x467EC, symSize: 0x14 }
  - { offset: 0x1FA840, size: 0x8, addend: 0x0, symName: __ZNSt3__16vectorIN25ggml_backend_meta_context14backend_configENS_9allocatorIS2_EEE24__emplace_back_slow_pathIJRP12ggml_backendRmEEEPS2_DpOT_, symObjAddr: 0x342C, symBinAddr: 0x4648C, symSize: 0x23C }
  - { offset: 0x1FB1FE, size: 0x8, addend: 0x0, symName: __ZNSt3__16vectorIN25ggml_backend_meta_context14backend_configENS_9allocatorIS2_EEE24__emplace_back_slow_pathIJRP12ggml_backendRmEEEPS2_DpOT_, symObjAddr: 0x342C, symBinAddr: 0x4648C, symSize: 0x23C }
  - { offset: 0x1FB209, size: 0x8, addend: 0x0, symName: __ZNSt3__16vectorINS_10unique_ptrI19ggml_backend_buffer27ggml_backend_buffer_deleterEENS_9allocatorIS4_EEED1B8ne190102Ev, symObjAddr: 0x3338, symBinAddr: 0x463AC, symSize: 0x70 }
  - { offset: 0x1FB416, size: 0x8, addend: 0x0, symName: __ZNSt3__16vectorIN25ggml_backend_meta_context13cgraph_configENS_9allocatorIS2_EEED1B8ne190102Ev, symObjAddr: 0x33A8, symBinAddr: 0x4641C, symSize: 0x70 }
  - { offset: 0x1FB78F, size: 0x8, addend: 0x0, symName: __ZNSt3__16vectorIN25ggml_backend_meta_context14backend_configENS_9allocatorIS2_EEED1B8ne190102Ev, symObjAddr: 0x31B4, symBinAddr: 0x46228, symSize: 0x58 }
  - { offset: 0x1FBD08, size: 0x8, addend: 0x0, symName: __ZN25ggml_backend_meta_context14backend_configD2Ev, symObjAddr: 0x3270, symBinAddr: 0x462E4, symSize: 0xC8 }
  - { offset: 0x1FC3AE, size: 0x8, addend: 0x0, symName: __ZNKSt3__16vectorIN25ggml_backend_meta_context14backend_configENS_9allocatorIS2_EEE20__throw_length_errorB8ne190102Ev, symObjAddr: 0x320C, symBinAddr: 0x46280, symSize: 0x14 }
  - { offset: 0x1FC3D8, size: 0x8, addend: 0x0, symName: __ZNSt3__114__split_bufferIN25ggml_backend_meta_context14backend_configERNS_9allocatorIS2_EEED1Ev, symObjAddr: 0x3220, symBinAddr: 0x46294, symSize: 0x50 }
  - { offset: 0x1FC4C0, size: 0x8, addend: 0x0, symName: __ZNSt3__114__split_bufferIN25ggml_backend_meta_context14backend_configERNS_9allocatorIS2_EEED1Ev, symObjAddr: 0x3220, symBinAddr: 0x46294, symSize: 0x50 }
  - { offset: 0x1FCE13, size: 0x8, addend: 0x0, symName: __ZNKSt3__16vectorINS_10unique_ptrI19ggml_backend_buffer27ggml_backend_buffer_deleterEENS_9allocatorIS4_EEE20__throw_length_errorB8ne190102Ev, symObjAddr: 0x378C, symBinAddr: 0x467EC, symSize: 0x14 }
  - { offset: 0x1FCE3D, size: 0x8, addend: 0x0, symName: __ZNSt3__13mapIP19ggml_backend_device24ggml_backend_buffer_typeNS_4lessIS2_EENS_9allocatorINS_4pairIKS2_S3_EEEEED1B8ne190102Ev, symObjAddr: 0x37A0, symBinAddr: 0x46800, symSize: 0x28 }
  - { offset: 0x1FCE96, size: 0x8, addend: 0x0, symName: __ZNSt3__13mapIP19ggml_backend_device24ggml_backend_buffer_typeNS_4lessIS2_EENS_9allocatorINS_4pairIKS2_S3_EEEEED1B8ne190102Ev, symObjAddr: 0x37A0, symBinAddr: 0x46800, symSize: 0x28 }
  - { offset: 0x1FCF54, size: 0x8, addend: 0x0, symName: __ZNSt3__16__treeINS_12__value_typeIP19ggml_backend_device24ggml_backend_buffer_typeEENS_19__map_value_compareIS3_S5_NS_4lessIS3_EELb1EEENS_9allocatorIS5_EEE7destroyEPNS_11__tree_nodeIS5_PvEE, symObjAddr: 0x37C8, symBinAddr: 0x46828, symSize: 0x44 }
  - { offset: 0x1FD1B3, size: 0x8, addend: 0x0, symName: __ZL38ggml_backend_meta_buffer_type_get_nameP24ggml_backend_buffer_type, symObjAddr: 0x3B0C, symBinAddr: 0x469B8, symSize: 0x64 }
  - { offset: 0x1FD1F8, size: 0x8, addend: 0x0, symName: __ZL38ggml_backend_meta_buffer_type_get_nameP24ggml_backend_buffer_type, symObjAddr: 0x3B0C, symBinAddr: 0x469B8, symSize: 0x64 }
  - { offset: 0x1FD2A0, size: 0x8, addend: 0x0, symName: __ZL42ggml_backend_meta_buffer_type_alloc_bufferP24ggml_backend_buffer_typem, symObjAddr: 0x3B70, symBinAddr: 0x46A1C, symSize: 0x4C8 }
  - { offset: 0x1FD6BF, size: 0x8, addend: 0x0, symName: __ZL42ggml_backend_meta_buffer_type_alloc_bufferP24ggml_backend_buffer_typem, symObjAddr: 0x3B70, symBinAddr: 0x46A1C, symSize: 0x4C8 }
  - { offset: 0x1FEC5D, size: 0x8, addend: 0x0, symName: __ZL43ggml_backend_meta_buffer_type_get_alignmentP24ggml_backend_buffer_type, symObjAddr: 0x4038, symBinAddr: 0x46EE4, symSize: 0x154 }
  - { offset: 0x1FEE00, size: 0x8, addend: 0x0, symName: __ZL42ggml_backend_meta_buffer_type_get_max_sizeP24ggml_backend_buffer_type, symObjAddr: 0x418C, symBinAddr: 0x47038, symSize: 0x124 }
  - { offset: 0x1FEE26, size: 0x8, addend: 0x0, symName: __ZL42ggml_backend_meta_buffer_type_get_max_sizeP24ggml_backend_buffer_type, symObjAddr: 0x418C, symBinAddr: 0x47038, symSize: 0x124 }
  - { offset: 0x1FEF9A, size: 0x8, addend: 0x0, symName: __ZL44ggml_backend_meta_buffer_type_get_alloc_sizeP24ggml_backend_buffer_typePK11ggml_tensor, symObjAddr: 0x42B0, symBinAddr: 0x4715C, symSize: 0x12C }
  - { offset: 0x1FEFC0, size: 0x8, addend: 0x0, symName: __ZL44ggml_backend_meta_buffer_type_get_alloc_sizeP24ggml_backend_buffer_typePK11ggml_tensor, symObjAddr: 0x42B0, symBinAddr: 0x4715C, symSize: 0x12C }
  - { offset: 0x1FF165, size: 0x8, addend: 0x0, symName: __ZL37ggml_backend_meta_buffer_type_is_hostP24ggml_backend_buffer_type, symObjAddr: 0x43DC, symBinAddr: 0x47288, symSize: 0x128 }
  - { offset: 0x1FF190, size: 0x8, addend: 0x0, symName: __ZL37ggml_backend_meta_buffer_type_is_hostP24ggml_backend_buffer_type, symObjAddr: 0x43DC, symBinAddr: 0x47288, symSize: 0x128 }
  - { offset: 0x1FF33E, size: 0x8, addend: 0x0, symName: __ZL36ggml_backend_meta_buffer_free_bufferP19ggml_backend_buffer, symObjAddr: 0x4518, symBinAddr: 0x473B0, symSize: 0x6C }
  - { offset: 0x1FF3CB, size: 0x8, addend: 0x0, symName: __ZL33ggml_backend_meta_buffer_get_baseP19ggml_backend_buffer, symObjAddr: 0x4584, symBinAddr: 0x4741C, symSize: 0x8 }
  - { offset: 0x1FF3DF, size: 0x8, addend: 0x0, symName: __ZN32ggml_backend_meta_buffer_contextD2Ev, symObjAddr: 0x5DF4, symBinAddr: 0x48C8C, symSize: 0x178 }
  - { offset: 0x1FFBA7, size: 0x8, addend: 0x0, symName: __ZL33ggml_backend_meta_buffer_get_baseP19ggml_backend_buffer, symObjAddr: 0x4584, symBinAddr: 0x4741C, symSize: 0x8 }
  - { offset: 0x1FFBD3, size: 0x8, addend: 0x0, symName: __ZL36ggml_backend_meta_buffer_init_tensorP19ggml_backend_bufferP11ggml_tensor, symObjAddr: 0x458C, symBinAddr: 0x47424, symSize: 0xB0 }
  - { offset: 0x1FFDB2, size: 0x8, addend: 0x0, symName: __ZL35ggml_backend_meta_buffer_set_tensorP19ggml_backend_bufferP11ggml_tensorPKvmm, symObjAddr: 0x463C, symBinAddr: 0x474D4, symSize: 0xBF4 }
  - { offset: 0x20050A, size: 0x8, addend: 0x0, symName: __ZL35ggml_backend_meta_buffer_set_tensorP19ggml_backend_bufferP11ggml_tensorPKvmm, symObjAddr: 0x463C, symBinAddr: 0x474D4, symSize: 0xBF4 }
  - { offset: 0x201C86, size: 0x8, addend: 0x0, symName: __ZN41ggml_backend_meta_simple_tensor_containerC2ERK16ggml_init_paramsi, symObjAddr: 0xA28C, symBinAddr: 0x4D110, symSize: 0x1A4 }
  - { offset: 0x201C91, size: 0x8, addend: 0x0, symName: __ZNKSt3__16vectorImNS_9allocatorImEEE20__throw_length_errorB8ne190102Ev, symObjAddr: 0xA264, symBinAddr: 0x4D0FC, symSize: 0x14 }
  - { offset: 0x201D1E, size: 0x8, addend: 0x0, symName: __ZL35ggml_backend_meta_buffer_get_tensorP19ggml_backend_bufferPK11ggml_tensorPvmm, symObjAddr: 0x5230, symBinAddr: 0x480C8, symSize: 0x9B0 }
  - { offset: 0x202EE0, size: 0x8, addend: 0x0, symName: __ZL30ggml_backend_meta_buffer_clearP19ggml_backend_bufferh, symObjAddr: 0x5BE0, symBinAddr: 0x48A78, symSize: 0x114 }
  - { offset: 0x20307E, size: 0x8, addend: 0x0, symName: __ZL30ggml_backend_meta_buffer_resetP19ggml_backend_buffer, symObjAddr: 0x5CF4, symBinAddr: 0x48B8C, symSize: 0x100 }
  - { offset: 0x2030A4, size: 0x8, addend: 0x0, symName: __ZL30ggml_backend_meta_buffer_resetP19ggml_backend_buffer, symObjAddr: 0x5CF4, symBinAddr: 0x48B8C, symSize: 0x100 }
  - { offset: 0x203206, size: 0x8, addend: 0x0, symName: __ZN32ggml_backend_meta_buffer_contextD2Ev, symObjAddr: 0x5DF4, symBinAddr: 0x48C8C, symSize: 0x178 }
  - { offset: 0x2032BB, size: 0x8, addend: 0x0, symName: __ZNSt3__16__treeINS_12__value_typeINS_4pairIPK11ggml_tensorbEENS2_I29ggml_backend_meta_split_stateA328_cEEEENS_19__map_value_compareIS6_SA_NS_4lessIS6_EELb1EEENS_9allocatorISA_EEE7destroyEPNS_11__tree_nodeISA_PvEE, symObjAddr: 0x5F6C, symBinAddr: 0x48E04, symSize: 0x44 }
  - { offset: 0x2042C5, size: 0x8, addend: 0x0, symName: '__ZZL33ggml_backend_meta_get_split_stateR41ggml_backend_meta_simple_tensor_containerPK11ggml_tensorbENK3$_1clERKNSt3__16vectorI29ggml_backend_meta_split_stateNS5_9allocatorIS7_EEEEb', symObjAddr: 0x86EC, symBinAddr: 0x4B584, symSize: 0x468 }
  - { offset: 0x2043C5, size: 0x8, addend: 0x0, symName: '__ZZL33ggml_backend_meta_get_split_stateR41ggml_backend_meta_simple_tensor_containerPK11ggml_tensorbENK3$_3clERKNSt3__16vectorI29ggml_backend_meta_split_stateNS5_9allocatorIS7_EEEE', symObjAddr: 0x8B54, symBinAddr: 0x4B9EC, symSize: 0xB0 }
  - { offset: 0x2043EB, size: 0x8, addend: 0x0, symName: '__ZZL33ggml_backend_meta_get_split_stateR41ggml_backend_meta_simple_tensor_containerPK11ggml_tensorbENK3$_3clERKNSt3__16vectorI29ggml_backend_meta_split_stateNS5_9allocatorIS7_EEEE', symObjAddr: 0x8B54, symBinAddr: 0x4B9EC, symSize: 0xB0 }
  - { offset: 0x20443A, size: 0x8, addend: 0x0, symName: '__ZZL33ggml_backend_meta_get_split_stateR41ggml_backend_meta_simple_tensor_containerPK11ggml_tensorbENK3$_4clERKNSt3__16vectorI29ggml_backend_meta_split_stateNS5_9allocatorIS7_EEEE', symObjAddr: 0x8C04, symBinAddr: 0x4BA9C, symSize: 0xDC }
  - { offset: 0x20444E, size: 0x8, addend: 0x0, symName: '__ZZL33ggml_backend_meta_get_split_stateR41ggml_backend_meta_simple_tensor_containerPK11ggml_tensorbENK3$_5clERKNSt3__16vectorI29ggml_backend_meta_split_stateNS5_9allocatorIS7_EEEE', symObjAddr: 0x8CE0, symBinAddr: 0x4BB78, symSize: 0x560 }
  - { offset: 0x20452C, size: 0x8, addend: 0x0, symName: '__ZZL33ggml_backend_meta_get_split_stateR41ggml_backend_meta_simple_tensor_containerPK11ggml_tensorbENK3$_7clERKNSt3__16vectorI29ggml_backend_meta_split_stateNS5_9allocatorIS7_EEEE', symObjAddr: 0x9240, symBinAddr: 0x4C0D8, symSize: 0x28 }
  - { offset: 0x204540, size: 0x8, addend: 0x0, symName: '__ZZL33ggml_backend_meta_get_split_stateR41ggml_backend_meta_simple_tensor_containerPK11ggml_tensorbENK3$_6clERKNSt3__16vectorI29ggml_backend_meta_split_stateNS5_9allocatorIS7_EEEE', symObjAddr: 0x9268, symBinAddr: 0x4C100, symSize: 0x324 }
  - { offset: 0x20469C, size: 0x8, addend: 0x0, symName: '__ZZL33ggml_backend_meta_get_split_stateR41ggml_backend_meta_simple_tensor_containerPK11ggml_tensorbENK3$_8clERKNSt3__16vectorI29ggml_backend_meta_split_stateNS5_9allocatorIS7_EEEE', symObjAddr: 0x958C, symBinAddr: 0x4C424, symSize: 0x208 }
  - { offset: 0x2046B0, size: 0x8, addend: 0x0, symName: '__ZZL33ggml_backend_meta_get_split_stateR41ggml_backend_meta_simple_tensor_containerPK11ggml_tensorbENK4$_14clERKNSt3__16vectorI29ggml_backend_meta_split_stateNS5_9allocatorIS7_EEEE', symObjAddr: 0x9E54, symBinAddr: 0x4CCEC, symSize: 0x9C }
  - { offset: 0x204701, size: 0x8, addend: 0x0, symName: '__ZZL33ggml_backend_meta_get_split_stateR41ggml_backend_meta_simple_tensor_containerPK11ggml_tensorbENK4$_15clERKNSt3__16vectorI29ggml_backend_meta_split_stateNS5_9allocatorIS7_EEEE', symObjAddr: 0x9EF0, symBinAddr: 0x4CD88, symSize: 0x13C }
  - { offset: 0x204715, size: 0x8, addend: 0x0, symName: '__ZZL33ggml_backend_meta_get_split_stateR41ggml_backend_meta_simple_tensor_containerPK11ggml_tensorbENK4$_17clERKNSt3__16vectorI29ggml_backend_meta_split_stateNS5_9allocatorIS7_EEEE', symObjAddr: 0xA0B4, symBinAddr: 0x4CF4C, symSize: 0x1B0 }
  - { offset: 0x2047BE, size: 0x8, addend: 0x0, symName: __ZNKSt3__16vectorImNS_9allocatorImEEE20__throw_length_errorB8ne190102Ev, symObjAddr: 0xA264, symBinAddr: 0x4D0FC, symSize: 0x14 }
  - { offset: 0x2047D2, size: 0x8, addend: 0x0, symName: '__ZZL33ggml_backend_meta_get_split_stateR41ggml_backend_meta_simple_tensor_containerPK11ggml_tensorbENK3$_4clERKNSt3__16vectorI29ggml_backend_meta_split_stateNS5_9allocatorIS7_EEEE', symObjAddr: 0x8C04, symBinAddr: 0x4BA9C, symSize: 0xDC }
  - { offset: 0x204849, size: 0x8, addend: 0x0, symName: '__ZZL33ggml_backend_meta_get_split_stateR41ggml_backend_meta_simple_tensor_containerPK11ggml_tensorbENK3$_5clERKNSt3__16vectorI29ggml_backend_meta_split_stateNS5_9allocatorIS7_EEEE', symObjAddr: 0x8CE0, symBinAddr: 0x4BB78, symSize: 0x560 }
  - { offset: 0x20485D, size: 0x8, addend: 0x0, symName: '__ZZL33ggml_backend_meta_get_split_stateR41ggml_backend_meta_simple_tensor_containerPK11ggml_tensorbENK4$_15clERKNSt3__16vectorI29ggml_backend_meta_split_stateNS5_9allocatorIS7_EEEE', symObjAddr: 0x9EF0, symBinAddr: 0x4CD88, symSize: 0x13C }
  - { offset: 0x2048F3, size: 0x8, addend: 0x0, symName: '__ZZL33ggml_backend_meta_get_split_stateR41ggml_backend_meta_simple_tensor_containerPK11ggml_tensorbENK4$_16clERKNSt3__16vectorI29ggml_backend_meta_split_stateNS5_9allocatorIS7_EEEE', symObjAddr: 0xA02C, symBinAddr: 0x4CEC4, symSize: 0x88 }
  - { offset: 0x204907, size: 0x8, addend: 0x0, symName: '__ZZL33ggml_backend_meta_get_split_stateR41ggml_backend_meta_simple_tensor_containerPK11ggml_tensorbENK4$_10clERKNSt3__16vectorI29ggml_backend_meta_split_stateNS5_9allocatorIS7_EEEE', symObjAddr: 0x9874, symBinAddr: 0x4C70C, symSize: 0xDC }
  - { offset: 0x204954, size: 0x8, addend: 0x0, symName: '__ZZL33ggml_backend_meta_get_split_stateR41ggml_backend_meta_simple_tensor_containerPK11ggml_tensorbENK4$_12clERKNSt3__16vectorI29ggml_backend_meta_split_stateNS5_9allocatorIS7_EEEE', symObjAddr: 0x9950, symBinAddr: 0x4C7E8, symSize: 0x504 }
  - { offset: 0x204968, size: 0x8, addend: 0x0, symName: '__ZZL33ggml_backend_meta_get_split_stateR41ggml_backend_meta_simple_tensor_containerPK11ggml_tensorbENK3$_9clERKNSt3__16vectorI29ggml_backend_meta_split_stateNS5_9allocatorIS7_EEEE', symObjAddr: 0x9794, symBinAddr: 0x4C62C, symSize: 0xE0 }
  - { offset: 0x2049B9, size: 0x8, addend: 0x0, symName: '__ZZL33ggml_backend_meta_get_split_stateR41ggml_backend_meta_simple_tensor_containerPK11ggml_tensorbENK4$_10clERKNSt3__16vectorI29ggml_backend_meta_split_stateNS5_9allocatorIS7_EEEE', symObjAddr: 0x9874, symBinAddr: 0x4C70C, symSize: 0xDC }
  - { offset: 0x2049CD, size: 0x8, addend: 0x0, symName: '__ZZL33ggml_backend_meta_get_split_stateR41ggml_backend_meta_simple_tensor_containerPK11ggml_tensorbENK3$_7clERKNSt3__16vectorI29ggml_backend_meta_split_stateNS5_9allocatorIS7_EEEE', symObjAddr: 0x9240, symBinAddr: 0x4C0D8, symSize: 0x28 }
  - { offset: 0x204A0C, size: 0x8, addend: 0x0, symName: '__ZZL33ggml_backend_meta_get_split_stateR41ggml_backend_meta_simple_tensor_containerPK11ggml_tensorbENK3$_7clERKNSt3__16vectorI29ggml_backend_meta_split_stateNS5_9allocatorIS7_EEEE', symObjAddr: 0x9240, symBinAddr: 0x4C0D8, symSize: 0x28 }
  - { offset: 0x204A52, size: 0x8, addend: 0x0, symName: '__ZZL33ggml_backend_meta_get_split_stateR41ggml_backend_meta_simple_tensor_containerPK11ggml_tensorbENK4$_12clERKNSt3__16vectorI29ggml_backend_meta_split_stateNS5_9allocatorIS7_EEEE', symObjAddr: 0x9950, symBinAddr: 0x4C7E8, symSize: 0x504 }
  - { offset: 0x204B2B, size: 0x8, addend: 0x0, symName: '__ZZL33ggml_backend_meta_get_split_stateR41ggml_backend_meta_simple_tensor_containerPK11ggml_tensorbENK4$_14clERKNSt3__16vectorI29ggml_backend_meta_split_stateNS5_9allocatorIS7_EEEE', symObjAddr: 0x9E54, symBinAddr: 0x4CCEC, symSize: 0x9C }
  - { offset: 0x204B3F, size: 0x8, addend: 0x0, symName: '__ZZL33ggml_backend_meta_get_split_stateR41ggml_backend_meta_simple_tensor_containerPK11ggml_tensorbENK3$_8clERKNSt3__16vectorI29ggml_backend_meta_split_stateNS5_9allocatorIS7_EEEE', symObjAddr: 0x958C, symBinAddr: 0x4C424, symSize: 0x208 }
  - { offset: 0x204C91, size: 0x8, addend: 0x0, symName: '__ZZL33ggml_backend_meta_get_split_stateR41ggml_backend_meta_simple_tensor_containerPK11ggml_tensorbENK3$_9clERKNSt3__16vectorI29ggml_backend_meta_split_stateNS5_9allocatorIS7_EEEE', symObjAddr: 0x9794, symBinAddr: 0x4C62C, symSize: 0xE0 }
  - { offset: 0x204CA5, size: 0x8, addend: 0x0, symName: '__ZZL33ggml_backend_meta_get_split_stateR41ggml_backend_meta_simple_tensor_containerPK11ggml_tensorbENK4$_16clERKNSt3__16vectorI29ggml_backend_meta_split_stateNS5_9allocatorIS7_EEEE', symObjAddr: 0xA02C, symBinAddr: 0x4CEC4, symSize: 0x88 }
  - { offset: 0x205318, size: 0x8, addend: 0x0, symName: __ZNKSt3__16vectorINS_10unique_ptrI12ggml_context20ggml_context_deleterEENS_9allocatorIS4_EEE20__throw_length_errorB8ne190102Ev, symObjAddr: 0xA4A0, symBinAddr: 0x4D324, symSize: 0x14 }
  - { offset: 0x205342, size: 0x8, addend: 0x0, symName: __ZNSt3__16__treeINS_12__value_typeIPK11ggml_tensorNS_6vectorIPS2_NS_9allocatorIS6_EEEEEENS_19__map_value_compareIS4_SA_NS_4lessIS4_EELb1EEENS7_ISA_EEE7destroyEPNS_11__tree_nodeISA_PvEE, symObjAddr: 0xA4B4, symBinAddr: 0x4D338, symSize: 0x50 }
  - { offset: 0x20534D, size: 0x8, addend: 0x0, symName: __ZNSt3__16vectorINS_10unique_ptrI12ggml_context20ggml_context_deleterEENS_9allocatorIS4_EEED1B8ne190102Ev, symObjAddr: 0xA430, symBinAddr: 0x4D2B4, symSize: 0x70 }
  - { offset: 0x205C76, size: 0x8, addend: 0x0, symName: __ZL26ggml_backend_meta_get_nameP12ggml_backend, symObjAddr: 0xA94C, symBinAddr: 0x4D7BC, symSize: 0x60 }
  - { offset: 0x205CBB, size: 0x8, addend: 0x0, symName: __ZL26ggml_backend_meta_get_nameP12ggml_backend, symObjAddr: 0xA94C, symBinAddr: 0x4D7BC, symSize: 0x60 }
  - { offset: 0x205D63, size: 0x8, addend: 0x0, symName: __ZL22ggml_backend_meta_freeP12ggml_backend, symObjAddr: 0xA9AC, symBinAddr: 0x4D81C, symSize: 0x78 }
  - { offset: 0x205D91, size: 0x8, addend: 0x0, symName: __ZL22ggml_backend_meta_freeP12ggml_backend, symObjAddr: 0xA9AC, symBinAddr: 0x4D81C, symSize: 0x78 }
  - { offset: 0x205E26, size: 0x8, addend: 0x0, symName: __ZL34ggml_backend_meta_set_tensor_asyncP12ggml_backendP11ggml_tensorPKvmm, symObjAddr: 0xAA24, symBinAddr: 0x4D894, symSize: 0x380 }
  - { offset: 0x205E3A, size: 0x8, addend: 0x0, symName: __ZN25ggml_backend_meta_contextD2Ev, symObjAddr: 0xCE98, symBinAddr: 0x4FD08, symSize: 0x148 }
  - { offset: 0x206621, size: 0x8, addend: 0x0, symName: __ZL34ggml_backend_meta_set_tensor_asyncP12ggml_backendP11ggml_tensorPKvmm, symObjAddr: 0xAA24, symBinAddr: 0x4D894, symSize: 0x380 }
  - { offset: 0x206A9E, size: 0x8, addend: 0x0, symName: __ZL34ggml_backend_meta_get_tensor_asyncP12ggml_backendPK11ggml_tensorPvmm, symObjAddr: 0xADA4, symBinAddr: 0x4DC14, symSize: 0x370 }
  - { offset: 0x206B03, size: 0x8, addend: 0x0, symName: __ZL34ggml_backend_meta_get_tensor_asyncP12ggml_backendPK11ggml_tensorPvmm, symObjAddr: 0xADA4, symBinAddr: 0x4DC14, symSize: 0x370 }
  - { offset: 0x206F77, size: 0x8, addend: 0x0, symName: __ZL29ggml_backend_meta_synchronizeP12ggml_backend, symObjAddr: 0xB114, symBinAddr: 0x4DF84, symSize: 0xE0 }
  - { offset: 0x206FDC, size: 0x8, addend: 0x0, symName: __ZL29ggml_backend_meta_synchronizeP12ggml_backend, symObjAddr: 0xB114, symBinAddr: 0x4DF84, symSize: 0xE0 }
  - { offset: 0x20711A, size: 0x8, addend: 0x0, symName: __ZL31ggml_backend_meta_graph_computeP12ggml_backendP11ggml_cgraph, symObjAddr: 0xB1F4, symBinAddr: 0x4E064, symSize: 0x1CA4 }
  - { offset: 0x20776E, size: 0x8, addend: 0x0, symName: __ZL31ggml_backend_meta_graph_computeP12ggml_backendP11ggml_cgraph, symObjAddr: 0xB1F4, symBinAddr: 0x4E064, symSize: 0x1CA4 }
  - { offset: 0x20B9E8, size: 0x8, addend: 0x0, symName: __ZNSt3__16vectorIN25ggml_backend_meta_context13cgraph_configENS_9allocatorIS2_EEE8__appendEm, symObjAddr: 0xD104, symBinAddr: 0x4FF74, symSize: 0x1E8 }
  - { offset: 0x20C1EA, size: 0x8, addend: 0x0, symName: __ZNKSt3__16vectorIN25ggml_backend_meta_context13cgraph_configENS_9allocatorIS2_EEE20__throw_length_errorB8ne190102Ev, symObjAddr: 0xD2EC, symBinAddr: 0x5015C, symSize: 0x14 }
  - { offset: 0x20C1F5, size: 0x8, addend: 0x0, symName: __ZNSt3__16vectorIP11ggml_tensorNS_9allocatorIS2_EEE8__appendEm, symObjAddr: 0xCFE0, symBinAddr: 0x4FE50, symSize: 0x124 }
  - { offset: 0x20C639, size: 0x8, addend: 0x0, symName: __ZNSt3__16vectorIN25ggml_backend_meta_context13cgraph_configENS_9allocatorIS2_EEE8__appendEm, symObjAddr: 0xD104, symBinAddr: 0x4FF74, symSize: 0x1E8 }
  - { offset: 0x20C682, size: 0x8, addend: 0x0, symName: '__ZZZL31ggml_backend_meta_graph_computeP12ggml_backendP11ggml_cgraphENK3$_0clEiENKUlvE_clEv', symObjAddr: 0xD380, symBinAddr: 0x501F0, symSize: 0x37C }
  - { offset: 0x20C8C7, size: 0x8, addend: 0x0, symName: __ZNSt3__16vectorIP11ggml_cgraphNS_9allocatorIS2_EEE8__appendEm, symObjAddr: 0xD6FC, symBinAddr: 0x5056C, symSize: 0x124 }
  - { offset: 0x20C8DB, size: 0x8, addend: 0x0, symName: __ZL23ggml_node_get_use_countPK11ggml_cgraphi, symObjAddr: 0xD300, symBinAddr: 0x50170, symSize: 0x80 }
  - { offset: 0x20CA0C, size: 0x8, addend: 0x0, symName: __ZNSt3__16vectorIP11ggml_cgraphNS_9allocatorIS2_EEE8__appendEm, symObjAddr: 0xD6FC, symBinAddr: 0x5056C, symSize: 0x124 }
  - { offset: 0x20CE50, size: 0x8, addend: 0x0, symName: __ZNKSt3__16vectorIP11ggml_cgraphNS_9allocatorIS2_EEE20__throw_length_errorB8ne190102Ev, symObjAddr: 0xD820, symBinAddr: 0x50690, symSize: 0x14 }
  - { offset: 0x20CE91, size: 0x8, addend: 0x0, symName: __ZNSt3__16__treeIP19ggml_backend_bufferNS_4lessIS2_EENS_9allocatorIS2_EEE7destroyEPNS_11__tree_nodeIS2_PvEE, symObjAddr: 0xD834, symBinAddr: 0x506A4, symSize: 0x44 }
  - { offset: 0x20CFFC, size: 0x8, addend: 0x0, symName: '__ZZZL31ggml_backend_meta_graph_computeP12ggml_backendP11ggml_cgraphENK3$_4clEmENKUlmmmE_clEmmm', symObjAddr: 0xD878, symBinAddr: 0x506E8, symSize: 0x32C }
  - { offset: 0x20D424, size: 0x8, addend: 0x0, symName: __ZNKSt3__16vectorIP11ggml_cgraphNS_9allocatorIS2_EEE20__throw_length_errorB8ne190102Ev, symObjAddr: 0xD820, symBinAddr: 0x50690, symSize: 0x14 }
  - { offset: 0x20D44E, size: 0x8, addend: 0x0, symName: __ZNSt3__16__treeIP19ggml_backend_bufferNS_4lessIS2_EENS_9allocatorIS2_EEE7destroyEPNS_11__tree_nodeIS2_PvEE, symObjAddr: 0xD834, symBinAddr: 0x506A4, symSize: 0x44 }
  - { offset: 0x20D9EB, size: 0x8, addend: 0x0, symName: __ZNKSt3__16vectorIN25ggml_backend_meta_context13cgraph_configENS_9allocatorIS2_EEE20__throw_length_errorB8ne190102Ev, symObjAddr: 0xD2EC, symBinAddr: 0x5015C, symSize: 0x14 }
  - { offset: 0x20DA15, size: 0x8, addend: 0x0, symName: __ZL23ggml_node_get_use_countPK11ggml_cgraphi, symObjAddr: 0xD300, symBinAddr: 0x50170, symSize: 0x80 }
  - { offset: 0x20E07B, size: 0x8, addend: 0x0, symName: __ZNKSt3__16vectorINS_10unique_ptrI32ggml_backend_meta_device_contextNS_14default_deleteIS2_EEEENS_9allocatorIS5_EEE20__throw_length_errorB8ne190102Ev, symObjAddr: 0xDECC, symBinAddr: 0x50C9C, symSize: 0x14 }
  - { offset: 0x20E47E, size: 0x8, addend: 0x0, symName: __ZNSt3__16__treeINS_12__value_typeI32ggml_backend_meta_device_context19ggml_backend_deviceEENS_19__map_value_compareIS2_S4_NS_4lessIS2_EELb1EEENS_9allocatorIS4_EEE12__find_equalIS2_EERPNS_16__tree_node_baseIPvEERPNS_15__tree_end_nodeISG_EERKT_, symObjAddr: 0xE0A4, symBinAddr: 0x50E74, symSize: 0x178 }
  - { offset: 0x20E4EA, size: 0x8, addend: 0x0, symName: __ZNSt3__16__treeINS_12__value_typeI32ggml_backend_meta_device_context19ggml_backend_deviceEENS_19__map_value_compareIS2_S4_NS_4lessIS2_EELb1EEENS_9allocatorIS4_EEE12__find_equalIS2_EERPNS_16__tree_node_baseIPvEERPNS_15__tree_end_nodeISG_EERKT_, symObjAddr: 0xE0A4, symBinAddr: 0x50E74, symSize: 0x178 }
  - { offset: 0x20EA6E, size: 0x8, addend: 0x0, symName: __ZNSt3__110unique_ptrINS_11__tree_nodeINS_12__value_typeI32ggml_backend_meta_device_context19ggml_backend_deviceEEPvEENS_22__tree_node_destructorINS_9allocatorIS7_EEEEED1B8ne190102Ev, symObjAddr: 0xE21C, symBinAddr: 0x50FEC, symSize: 0x84 }
  - { offset: 0x20F298, size: 0x8, addend: 0x0, symName: _OUTLINED_FUNCTION_0, symObjAddr: 0xE3A0, symBinAddr: 0x51070, symSize: 0x8 }
  - { offset: 0x20F2B0, size: 0x8, addend: 0x0, symName: _OUTLINED_FUNCTION_1, symObjAddr: 0xE3A8, symBinAddr: 0x51078, symSize: 0x8 }
  - { offset: 0x20F2C8, size: 0x8, addend: 0x0, symName: _OUTLINED_FUNCTION_2, symObjAddr: 0xE3B0, symBinAddr: 0x51080, symSize: 0x8 }
  - { offset: 0x2111F8, size: 0x8, addend: 0x0, symName: _ggml_backend_buft_name, symObjAddr: 0x0, symBinAddr: 0x51088, symSize: 0x3C }
  - { offset: 0x211219, size: 0x8, addend: 0x0, symName: _ggml_backend_cpu_buffer_type, symObjAddr: 0x812C, symBinAddr: 0x591B4, symSize: 0xC }
  - { offset: 0x211241, size: 0x8, addend: 0x0, symName: __ZZ28ggml_backend_cpu_buffer_typeE28ggml_backend_cpu_buffer_type, symObjAddr: 0x98B8, symBinAddr: 0x1982A0, symSize: 0x0 }
  - { offset: 0x2112D5, size: 0x8, addend: 0x0, symName: __ZL27ggml_backend_multi_buffer_i, symObjAddr: 0x97B0, symBinAddr: 0x195858, symSize: 0x0 }
  - { offset: 0x2112F5, size: 0x8, addend: 0x0, symName: __ZL25ggml_backend_cpu_buffer_i, symObjAddr: 0x9860, symBinAddr: 0x195908, symSize: 0x0 }
  - { offset: 0x211310, size: 0x8, addend: 0x0, symName: __ZL34ggml_backend_cpu_buffer_from_ptr_i, symObjAddr: 0x9808, symBinAddr: 0x1958B0, symSize: 0x0 }
  - { offset: 0x2149AC, size: 0x8, addend: 0x0, symName: _ggml_backend_buft_name, symObjAddr: 0x0, symBinAddr: 0x51088, symSize: 0x3C }
  - { offset: 0x2149DA, size: 0x8, addend: 0x0, symName: _ggml_backend_buft_alloc_buffer, symObjAddr: 0x3C, symBinAddr: 0x510C4, symSize: 0x88 }
  - { offset: 0x214A4D, size: 0x8, addend: 0x0, symName: _ggml_backend_buft_alloc_buffer, symObjAddr: 0x3C, symBinAddr: 0x510C4, symSize: 0x88 }
  - { offset: 0x214ABB, size: 0x8, addend: 0x0, symName: _ggml_backend_buffer_init, symObjAddr: 0xC4, symBinAddr: 0x5114C, symSize: 0x60 }
  - { offset: 0x214ACE, size: 0x8, addend: 0x0, symName: _ggml_backend_buffer_init, symObjAddr: 0xC4, symBinAddr: 0x5114C, symSize: 0x60 }
  - { offset: 0x214B15, size: 0x8, addend: 0x0, symName: _ggml_backend_buft_get_alignment, symObjAddr: 0x124, symBinAddr: 0x511AC, symSize: 0x3C }
  - { offset: 0x214B43, size: 0x8, addend: 0x0, symName: _ggml_backend_buft_get_max_size, symObjAddr: 0x160, symBinAddr: 0x511E8, symSize: 0x48 }
  - { offset: 0x214B56, size: 0x8, addend: 0x0, symName: _ggml_backend_buft_get_max_size, symObjAddr: 0x160, symBinAddr: 0x511E8, symSize: 0x48 }
  - { offset: 0x214B84, size: 0x8, addend: 0x0, symName: _ggml_backend_buft_get_alloc_size, symObjAddr: 0x1A8, symBinAddr: 0x51230, symSize: 0x48 }
  - { offset: 0x214B97, size: 0x8, addend: 0x0, symName: _ggml_backend_buft_get_alloc_size, symObjAddr: 0x1A8, symBinAddr: 0x51230, symSize: 0x48 }
  - { offset: 0x214BF2, size: 0x8, addend: 0x0, symName: _ggml_backend_buft_is_host, symObjAddr: 0x1F0, symBinAddr: 0x51278, symSize: 0x48 }
  - { offset: 0x214C18, size: 0x8, addend: 0x0, symName: _ggml_backend_buft_is_host, symObjAddr: 0x1F0, symBinAddr: 0x51278, symSize: 0x48 }
  - { offset: 0x214C46, size: 0x8, addend: 0x0, symName: _ggml_backend_buft_get_device, symObjAddr: 0x238, symBinAddr: 0x512C0, symSize: 0x3C }
  - { offset: 0x214C59, size: 0x8, addend: 0x0, symName: _ggml_backend_buft_get_device, symObjAddr: 0x238, symBinAddr: 0x512C0, symSize: 0x3C }
  - { offset: 0x214C87, size: 0x8, addend: 0x0, symName: _ggml_backend_buffer_name, symObjAddr: 0x274, symBinAddr: 0x512FC, symSize: 0x70 }
  - { offset: 0x214CCC, size: 0x8, addend: 0x0, symName: _ggml_backend_buffer_name, symObjAddr: 0x274, symBinAddr: 0x512FC, symSize: 0x70 }
  - { offset: 0x214D4D, size: 0x8, addend: 0x0, symName: _ggml_backend_buffer_get_type, symObjAddr: 0x2E4, symBinAddr: 0x5136C, symSize: 0x3C }
  - { offset: 0x214D60, size: 0x8, addend: 0x0, symName: _ggml_backend_buffer_get_type, symObjAddr: 0x2E4, symBinAddr: 0x5136C, symSize: 0x3C }
  - { offset: 0x214D82, size: 0x8, addend: 0x0, symName: _ggml_backend_buffer_free, symObjAddr: 0x320, symBinAddr: 0x513A8, symSize: 0x34 }
  - { offset: 0x214D96, size: 0x8, addend: 0x0, symName: _ggml_backend_buffer_free, symObjAddr: 0x320, symBinAddr: 0x513A8, symSize: 0x34 }
  - { offset: 0x214DC1, size: 0x8, addend: 0x0, symName: _ggml_backend_buffer_get_size, symObjAddr: 0x354, symBinAddr: 0x513DC, symSize: 0x3C }
  - { offset: 0x214DE3, size: 0x8, addend: 0x0, symName: _ggml_backend_buffer_get_base, symObjAddr: 0x390, symBinAddr: 0x51418, symSize: 0xA8 }
  - { offset: 0x214DF6, size: 0x8, addend: 0x0, symName: _ggml_backend_buffer_get_base, symObjAddr: 0x390, symBinAddr: 0x51418, symSize: 0xA8 }
  - { offset: 0x214E5A, size: 0x8, addend: 0x0, symName: _ggml_backend_buffer_init_tensor, symObjAddr: 0x438, symBinAddr: 0x514C0, symSize: 0x48 }
  - { offset: 0x214E80, size: 0x8, addend: 0x0, symName: _ggml_backend_buffer_init_tensor, symObjAddr: 0x438, symBinAddr: 0x514C0, symSize: 0x48 }
  - { offset: 0x214EB8, size: 0x8, addend: 0x0, symName: _ggml_backend_buffer_clear, symObjAddr: 0x480, symBinAddr: 0x51508, symSize: 0x48 }
  - { offset: 0x214ECC, size: 0x8, addend: 0x0, symName: _ggml_backend_buffer_clear, symObjAddr: 0x480, symBinAddr: 0x51508, symSize: 0x48 }
  - { offset: 0x214F04, size: 0x8, addend: 0x0, symName: _ggml_backend_buffer_get_alignment, symObjAddr: 0x4C8, symBinAddr: 0x51550, symSize: 0x70 }
  - { offset: 0x214F31, size: 0x8, addend: 0x0, symName: _ggml_backend_buffer_get_alignment, symObjAddr: 0x4C8, symBinAddr: 0x51550, symSize: 0x70 }
  - { offset: 0x214FB2, size: 0x8, addend: 0x0, symName: _ggml_backend_buffer_get_max_size, symObjAddr: 0x538, symBinAddr: 0x515C0, symSize: 0x84 }
  - { offset: 0x214FDE, size: 0x8, addend: 0x0, symName: _ggml_backend_buffer_get_max_size, symObjAddr: 0x538, symBinAddr: 0x515C0, symSize: 0x84 }
  - { offset: 0x21505F, size: 0x8, addend: 0x0, symName: _ggml_backend_buffer_get_alloc_size, symObjAddr: 0x5BC, symBinAddr: 0x51644, symSize: 0x84 }
  - { offset: 0x2150A5, size: 0x8, addend: 0x0, symName: _ggml_backend_buffer_get_alloc_size, symObjAddr: 0x5BC, symBinAddr: 0x51644, symSize: 0x84 }
  - { offset: 0x21513C, size: 0x8, addend: 0x0, symName: _ggml_backend_buffer_is_host, symObjAddr: 0x640, symBinAddr: 0x516C8, symSize: 0x84 }
  - { offset: 0x215168, size: 0x8, addend: 0x0, symName: _ggml_backend_buffer_is_host, symObjAddr: 0x640, symBinAddr: 0x516C8, symSize: 0x84 }
  - { offset: 0x2151DD, size: 0x8, addend: 0x0, symName: _ggml_backend_buffer_set_usage, symObjAddr: 0x6C4, symBinAddr: 0x5174C, symSize: 0x9C }
  - { offset: 0x21524B, size: 0x8, addend: 0x0, symName: _ggml_backend_buffer_set_usage, symObjAddr: 0x6C4, symBinAddr: 0x5174C, symSize: 0x9C }
  - { offset: 0x215304, size: 0x8, addend: 0x0, symName: _ggml_backend_buffer_is_multi_buffer, symObjAddr: 0x760, symBinAddr: 0x517E8, symSize: 0x4C }
  - { offset: 0x215318, size: 0x8, addend: 0x0, symName: _ggml_backend_buffer_is_multi_buffer, symObjAddr: 0x760, symBinAddr: 0x517E8, symSize: 0x4C }
  - { offset: 0x21533A, size: 0x8, addend: 0x0, symName: _ggml_backend_multi_buffer_set_usage, symObjAddr: 0x7AC, symBinAddr: 0x51834, symSize: 0xBC }
  - { offset: 0x21534E, size: 0x8, addend: 0x0, symName: _ggml_backend_multi_buffer_set_usage, symObjAddr: 0x7AC, symBinAddr: 0x51834, symSize: 0xBC }
  - { offset: 0x2153E9, size: 0x8, addend: 0x0, symName: _ggml_backend_buffer_get_usage, symObjAddr: 0x868, symBinAddr: 0x518F0, symSize: 0x3C }
  - { offset: 0x2153FD, size: 0x8, addend: 0x0, symName: _ggml_backend_buffer_get_usage, symObjAddr: 0x868, symBinAddr: 0x518F0, symSize: 0x3C }
  - { offset: 0x21541F, size: 0x8, addend: 0x0, symName: _ggml_backend_buffer_reset, symObjAddr: 0x8A4, symBinAddr: 0x5192C, symSize: 0x44 }
  - { offset: 0x215433, size: 0x8, addend: 0x0, symName: _ggml_backend_buffer_reset, symObjAddr: 0x8A4, symBinAddr: 0x5192C, symSize: 0x44 }
  - { offset: 0x215469, size: 0x8, addend: 0x0, symName: _ggml_backend_buffer_copy_tensor, symObjAddr: 0x8E8, symBinAddr: 0x51970, symSize: 0x2C }
  - { offset: 0x21547D, size: 0x8, addend: 0x0, symName: _ggml_backend_buffer_copy_tensor, symObjAddr: 0x8E8, symBinAddr: 0x51970, symSize: 0x2C }
  - { offset: 0x2154BC, size: 0x8, addend: 0x0, symName: _ggml_backend_guid, symObjAddr: 0x914, symBinAddr: 0x5199C, symSize: 0xC }
  - { offset: 0x2154E7, size: 0x8, addend: 0x0, symName: _ggml_backend_name, symObjAddr: 0x920, symBinAddr: 0x519A8, symSize: 0x18 }
  - { offset: 0x215512, size: 0x8, addend: 0x0, symName: _ggml_backend_free, symObjAddr: 0x938, symBinAddr: 0x519C0, symSize: 0x10 }
  - { offset: 0x21555E, size: 0x8, addend: 0x0, symName: _ggml_backend_get_default_buffer_type, symObjAddr: 0x948, symBinAddr: 0x519D0, symSize: 0x70 }
  - { offset: 0x2155BB, size: 0x8, addend: 0x0, symName: _ggml_backend_dev_buffer_type, symObjAddr: 0x9B8, symBinAddr: 0x51A40, symSize: 0x3C }
  - { offset: 0x2155CF, size: 0x8, addend: 0x0, symName: _ggml_backend_dev_buffer_type, symObjAddr: 0x9B8, symBinAddr: 0x51A40, symSize: 0x3C }
  - { offset: 0x2155FD, size: 0x8, addend: 0x0, symName: _ggml_backend_alloc_buffer, symObjAddr: 0x9F4, symBinAddr: 0x51A7C, symSize: 0xEC }
  - { offset: 0x21564E, size: 0x8, addend: 0x0, symName: _ggml_backend_alloc_buffer, symObjAddr: 0x9F4, symBinAddr: 0x51A7C, symSize: 0xEC }
  - { offset: 0x21575A, size: 0x8, addend: 0x0, symName: _ggml_backend_get_alignment, symObjAddr: 0xAE0, symBinAddr: 0x51B68, symSize: 0xA0 }
  - { offset: 0x21576D, size: 0x8, addend: 0x0, symName: _ggml_backend_get_alignment, symObjAddr: 0xAE0, symBinAddr: 0x51B68, symSize: 0xA0 }
  - { offset: 0x215829, size: 0x8, addend: 0x0, symName: _ggml_backend_get_max_size, symObjAddr: 0xB80, symBinAddr: 0x51C08, symSize: 0xB4 }
  - { offset: 0x21583C, size: 0x8, addend: 0x0, symName: _ggml_backend_get_max_size, symObjAddr: 0xB80, symBinAddr: 0x51C08, symSize: 0xB4 }
  - { offset: 0x2158F8, size: 0x8, addend: 0x0, symName: _ggml_backend_tensor_set_async, symObjAddr: 0xC34, symBinAddr: 0x51CBC, symSize: 0x1DC }
  - { offset: 0x21596A, size: 0x8, addend: 0x0, symName: _ggml_backend_tensor_set_async, symObjAddr: 0xC34, symBinAddr: 0x51CBC, symSize: 0x1DC }
  - { offset: 0x215B0A, size: 0x8, addend: 0x0, symName: _ggml_backend_synchronize, symObjAddr: 0xE10, symBinAddr: 0x51E98, symSize: 0x44 }
  - { offset: 0x215B1E, size: 0x8, addend: 0x0, symName: _ggml_backend_synchronize, symObjAddr: 0xE10, symBinAddr: 0x51E98, symSize: 0x44 }
  - { offset: 0x215B4C, size: 0x8, addend: 0x0, symName: _ggml_backend_tensor_set, symObjAddr: 0xE54, symBinAddr: 0x51EDC, symSize: 0x138 }
  - { offset: 0x215B60, size: 0x8, addend: 0x0, symName: _ggml_backend_tensor_set, symObjAddr: 0xE54, symBinAddr: 0x51EDC, symSize: 0x138 }
  - { offset: 0x215C11, size: 0x8, addend: 0x0, symName: _ggml_backend_tensor_get_async, symObjAddr: 0xF8C, symBinAddr: 0x52014, symSize: 0x1DC }
  - { offset: 0x215C6D, size: 0x8, addend: 0x0, symName: _ggml_backend_tensor_get_async, symObjAddr: 0xF8C, symBinAddr: 0x52014, symSize: 0x1DC }
  - { offset: 0x215E13, size: 0x8, addend: 0x0, symName: _ggml_backend_tensor_get, symObjAddr: 0x1168, symBinAddr: 0x521F0, symSize: 0x138 }
  - { offset: 0x215E27, size: 0x8, addend: 0x0, symName: _ggml_backend_tensor_get, symObjAddr: 0x1168, symBinAddr: 0x521F0, symSize: 0x138 }
  - { offset: 0x215ED8, size: 0x8, addend: 0x0, symName: _ggml_backend_tensor_set_2d_async, symObjAddr: 0x12A0, symBinAddr: 0x52328, symSize: 0x1A4 }
  - { offset: 0x215EEC, size: 0x8, addend: 0x0, symName: _ggml_backend_tensor_set_2d_async, symObjAddr: 0x12A0, symBinAddr: 0x52328, symSize: 0x1A4 }
  - { offset: 0x216040, size: 0x8, addend: 0x0, symName: _ggml_backend_tensor_get_2d_async, symObjAddr: 0x1444, symBinAddr: 0x524CC, symSize: 0x1A4 }
  - { offset: 0x216054, size: 0x8, addend: 0x0, symName: _ggml_backend_tensor_get_2d_async, symObjAddr: 0x1444, symBinAddr: 0x524CC, symSize: 0x1A4 }
  - { offset: 0x2161A8, size: 0x8, addend: 0x0, symName: _ggml_backend_tensor_set_2d, symObjAddr: 0x15E8, symBinAddr: 0x52670, symSize: 0x254 }
  - { offset: 0x2161BC, size: 0x8, addend: 0x0, symName: _ggml_backend_tensor_set_2d, symObjAddr: 0x15E8, symBinAddr: 0x52670, symSize: 0x254 }
  - { offset: 0x2163AA, size: 0x8, addend: 0x0, symName: _ggml_backend_tensor_get_2d, symObjAddr: 0x183C, symBinAddr: 0x528C4, symSize: 0x254 }
  - { offset: 0x2163BE, size: 0x8, addend: 0x0, symName: _ggml_backend_tensor_get_2d, symObjAddr: 0x183C, symBinAddr: 0x528C4, symSize: 0x254 }
  - { offset: 0x2165AC, size: 0x8, addend: 0x0, symName: _ggml_backend_tensor_memset, symObjAddr: 0x1A90, symBinAddr: 0x52B18, symSize: 0x160 }
  - { offset: 0x2165C0, size: 0x8, addend: 0x0, symName: _ggml_backend_tensor_memset, symObjAddr: 0x1A90, symBinAddr: 0x52B18, symSize: 0x160 }
  - { offset: 0x2166AE, size: 0x8, addend: 0x0, symName: _ggml_backend_graph_plan_create, symObjAddr: 0x1BF0, symBinAddr: 0x52C78, symSize: 0x6C }
  - { offset: 0x2166C2, size: 0x8, addend: 0x0, symName: _ggml_backend_graph_plan_create, symObjAddr: 0x1BF0, symBinAddr: 0x52C78, symSize: 0x6C }
  - { offset: 0x216726, size: 0x8, addend: 0x0, symName: _ggml_backend_graph_plan_free, symObjAddr: 0x1C5C, symBinAddr: 0x52CE4, symSize: 0x6C }
  - { offset: 0x21673A, size: 0x8, addend: 0x0, symName: _ggml_backend_graph_plan_free, symObjAddr: 0x1C5C, symBinAddr: 0x52CE4, symSize: 0x6C }
  - { offset: 0x21679A, size: 0x8, addend: 0x0, symName: _ggml_backend_graph_plan_compute, symObjAddr: 0x1CC8, symBinAddr: 0x52D50, symSize: 0x6C }
  - { offset: 0x2167AE, size: 0x8, addend: 0x0, symName: _ggml_backend_graph_plan_compute, symObjAddr: 0x1CC8, symBinAddr: 0x52D50, symSize: 0x6C }
  - { offset: 0x216812, size: 0x8, addend: 0x0, symName: _ggml_backend_graph_compute, symObjAddr: 0x1D34, symBinAddr: 0x52DBC, symSize: 0x6C }
  - { offset: 0x21684D, size: 0x8, addend: 0x0, symName: _ggml_backend_graph_compute, symObjAddr: 0x1D34, symBinAddr: 0x52DBC, symSize: 0x6C }
  - { offset: 0x2168E5, size: 0x8, addend: 0x0, symName: _ggml_backend_graph_compute_async, symObjAddr: 0x1DA0, symBinAddr: 0x52E28, symSize: 0x3C }
  - { offset: 0x2168F9, size: 0x8, addend: 0x0, symName: _ggml_backend_graph_compute_async, symObjAddr: 0x1DA0, symBinAddr: 0x52E28, symSize: 0x3C }
  - { offset: 0x216931, size: 0x8, addend: 0x0, symName: _ggml_backend_supports_op, symObjAddr: 0x1DDC, symBinAddr: 0x52E64, symSize: 0x70 }
  - { offset: 0x21696C, size: 0x8, addend: 0x0, symName: _ggml_backend_supports_op, symObjAddr: 0x1DDC, symBinAddr: 0x52E64, symSize: 0x70 }
  - { offset: 0x2169DE, size: 0x8, addend: 0x0, symName: _ggml_backend_dev_supports_op, symObjAddr: 0x1E4C, symBinAddr: 0x52ED4, symSize: 0x3C }
  - { offset: 0x2169F2, size: 0x8, addend: 0x0, symName: _ggml_backend_dev_supports_op, symObjAddr: 0x1E4C, symBinAddr: 0x52ED4, symSize: 0x3C }
  - { offset: 0x216A2A, size: 0x8, addend: 0x0, symName: _ggml_backend_supports_buft, symObjAddr: 0x1E88, symBinAddr: 0x52F10, symSize: 0x70 }
  - { offset: 0x216A65, size: 0x8, addend: 0x0, symName: _ggml_backend_supports_buft, symObjAddr: 0x1E88, symBinAddr: 0x52F10, symSize: 0x70 }
  - { offset: 0x216AD7, size: 0x8, addend: 0x0, symName: _ggml_backend_dev_supports_buft, symObjAddr: 0x1EF8, symBinAddr: 0x52F80, symSize: 0x3C }
  - { offset: 0x216AEB, size: 0x8, addend: 0x0, symName: _ggml_backend_dev_supports_buft, symObjAddr: 0x1EF8, symBinAddr: 0x52F80, symSize: 0x3C }
  - { offset: 0x216B23, size: 0x8, addend: 0x0, symName: _ggml_backend_offload_op, symObjAddr: 0x1F34, symBinAddr: 0x52FBC, symSize: 0x84 }
  - { offset: 0x216B5E, size: 0x8, addend: 0x0, symName: _ggml_backend_offload_op, symObjAddr: 0x1F34, symBinAddr: 0x52FBC, symSize: 0x84 }
  - { offset: 0x216BD0, size: 0x8, addend: 0x0, symName: _ggml_backend_dev_offload_op, symObjAddr: 0x1FB8, symBinAddr: 0x53040, symSize: 0x48 }
  - { offset: 0x216BE4, size: 0x8, addend: 0x0, symName: _ggml_backend_dev_offload_op, symObjAddr: 0x1FB8, symBinAddr: 0x53040, symSize: 0x48 }
  - { offset: 0x216C1C, size: 0x8, addend: 0x0, symName: _ggml_backend_get_device, symObjAddr: 0x2000, symBinAddr: 0x53088, symSize: 0x3C }
  - { offset: 0x216C30, size: 0x8, addend: 0x0, symName: _ggml_backend_get_device, symObjAddr: 0x2000, symBinAddr: 0x53088, symSize: 0x3C }
  - { offset: 0x216C52, size: 0x8, addend: 0x0, symName: _ggml_backend_tensor_copy, symObjAddr: 0x203C, symBinAddr: 0x530C4, symSize: 0x250 }
  - { offset: 0x216CE6, size: 0x8, addend: 0x0, symName: _ggml_backend_tensor_copy, symObjAddr: 0x203C, symBinAddr: 0x530C4, symSize: 0x250 }
  - { offset: 0x216FFF, size: 0x8, addend: 0x0, symName: _ggml_backend_tensor_copy_async, symObjAddr: 0x228C, symBinAddr: 0x53314, symSize: 0x1A0 }
  - { offset: 0x217031, size: 0x8, addend: 0x0, symName: _ggml_backend_tensor_copy_async, symObjAddr: 0x228C, symBinAddr: 0x53314, symSize: 0x1A0 }
  - { offset: 0x21718A, size: 0x8, addend: 0x0, symName: _ggml_backend_event_new, symObjAddr: 0x242C, symBinAddr: 0x534B4, symSize: 0x18 }
  - { offset: 0x21719E, size: 0x8, addend: 0x0, symName: _ggml_backend_event_new, symObjAddr: 0x242C, symBinAddr: 0x534B4, symSize: 0x18 }
  - { offset: 0x2171C9, size: 0x8, addend: 0x0, symName: _ggml_backend_event_free, symObjAddr: 0x2444, symBinAddr: 0x534CC, symSize: 0x18 }
  - { offset: 0x2171F4, size: 0x8, addend: 0x0, symName: _ggml_backend_event_record, symObjAddr: 0x245C, symBinAddr: 0x534E4, symSize: 0x78 }
  - { offset: 0x217243, size: 0x8, addend: 0x0, symName: _ggml_backend_event_synchronize, symObjAddr: 0x24D4, symBinAddr: 0x5355C, symSize: 0x74 }
  - { offset: 0x217257, size: 0x8, addend: 0x0, symName: _ggml_backend_event_synchronize, symObjAddr: 0x24D4, symBinAddr: 0x5355C, symSize: 0x74 }
  - { offset: 0x21729C, size: 0x8, addend: 0x0, symName: _ggml_backend_event_wait, symObjAddr: 0x2548, symBinAddr: 0x535D0, symSize: 0x6C }
  - { offset: 0x2172B0, size: 0x8, addend: 0x0, symName: _ggml_backend_event_wait, symObjAddr: 0x2548, symBinAddr: 0x535D0, symSize: 0x6C }
  - { offset: 0x2172FF, size: 0x8, addend: 0x0, symName: _ggml_backend_dev_name, symObjAddr: 0x25B4, symBinAddr: 0x5363C, symSize: 0x3C }
  - { offset: 0x217313, size: 0x8, addend: 0x0, symName: _ggml_backend_dev_name, symObjAddr: 0x25B4, symBinAddr: 0x5363C, symSize: 0x3C }
  - { offset: 0x21734F, size: 0x8, addend: 0x0, symName: _ggml_backend_dev_description, symObjAddr: 0x25F0, symBinAddr: 0x53678, symSize: 0x3C }
  - { offset: 0x217363, size: 0x8, addend: 0x0, symName: _ggml_backend_dev_description, symObjAddr: 0x25F0, symBinAddr: 0x53678, symSize: 0x3C }
  - { offset: 0x21739F, size: 0x8, addend: 0x0, symName: _ggml_backend_dev_memory, symObjAddr: 0x262C, symBinAddr: 0x536B4, symSize: 0x3C }
  - { offset: 0x2173B3, size: 0x8, addend: 0x0, symName: _ggml_backend_dev_memory, symObjAddr: 0x262C, symBinAddr: 0x536B4, symSize: 0x3C }
  - { offset: 0x21740D, size: 0x8, addend: 0x0, symName: _ggml_backend_dev_type, symObjAddr: 0x2668, symBinAddr: 0x536F0, symSize: 0x3C }
  - { offset: 0x217421, size: 0x8, addend: 0x0, symName: _ggml_backend_dev_type, symObjAddr: 0x2668, symBinAddr: 0x536F0, symSize: 0x3C }
  - { offset: 0x21744F, size: 0x8, addend: 0x0, symName: _ggml_backend_dev_get_props, symObjAddr: 0x26A4, symBinAddr: 0x5372C, symSize: 0x4C }
  - { offset: 0x217463, size: 0x8, addend: 0x0, symName: _ggml_backend_dev_get_props, symObjAddr: 0x26A4, symBinAddr: 0x5372C, symSize: 0x4C }
  - { offset: 0x2174AC, size: 0x8, addend: 0x0, symName: _ggml_backend_dev_backend_reg, symObjAddr: 0x26F0, symBinAddr: 0x53778, symSize: 0x3C }
  - { offset: 0x2174C0, size: 0x8, addend: 0x0, symName: _ggml_backend_dev_backend_reg, symObjAddr: 0x26F0, symBinAddr: 0x53778, symSize: 0x3C }
  - { offset: 0x2174F0, size: 0x8, addend: 0x0, symName: _ggml_backend_dev_init, symObjAddr: 0x272C, symBinAddr: 0x537B4, symSize: 0x3C }
  - { offset: 0x217504, size: 0x8, addend: 0x0, symName: _ggml_backend_dev_init, symObjAddr: 0x272C, symBinAddr: 0x537B4, symSize: 0x3C }
  - { offset: 0x217551, size: 0x8, addend: 0x0, symName: _ggml_backend_dev_host_buffer_type, symObjAddr: 0x2768, symBinAddr: 0x537F0, symSize: 0x48 }
  - { offset: 0x217565, size: 0x8, addend: 0x0, symName: _ggml_backend_dev_host_buffer_type, symObjAddr: 0x2768, symBinAddr: 0x537F0, symSize: 0x48 }
  - { offset: 0x2175A1, size: 0x8, addend: 0x0, symName: _ggml_backend_dev_buffer_from_host_ptr, symObjAddr: 0x27B0, symBinAddr: 0x53838, symSize: 0x3C }
  - { offset: 0x2175B5, size: 0x8, addend: 0x0, symName: _ggml_backend_dev_buffer_from_host_ptr, symObjAddr: 0x27B0, symBinAddr: 0x53838, symSize: 0x3C }
  - { offset: 0x217624, size: 0x8, addend: 0x0, symName: _ggml_backend_reg_name, symObjAddr: 0x27EC, symBinAddr: 0x53874, symSize: 0x3C }
  - { offset: 0x217638, size: 0x8, addend: 0x0, symName: _ggml_backend_reg_name, symObjAddr: 0x27EC, symBinAddr: 0x53874, symSize: 0x3C }
  - { offset: 0x217674, size: 0x8, addend: 0x0, symName: _ggml_backend_reg_dev_count, symObjAddr: 0x2828, symBinAddr: 0x538B0, symSize: 0x3C }
  - { offset: 0x217688, size: 0x8, addend: 0x0, symName: _ggml_backend_reg_dev_count, symObjAddr: 0x2828, symBinAddr: 0x538B0, symSize: 0x3C }
  - { offset: 0x2176C4, size: 0x8, addend: 0x0, symName: _ggml_backend_reg_dev_get, symObjAddr: 0x2864, symBinAddr: 0x538EC, symSize: 0x3C }
  - { offset: 0x2176D8, size: 0x8, addend: 0x0, symName: _ggml_backend_reg_dev_get, symObjAddr: 0x2864, symBinAddr: 0x538EC, symSize: 0x3C }
  - { offset: 0x217725, size: 0x8, addend: 0x0, symName: _ggml_backend_reg_get_proc_address, symObjAddr: 0x28A0, symBinAddr: 0x53928, symSize: 0x48 }
  - { offset: 0x217739, size: 0x8, addend: 0x0, symName: _ggml_backend_reg_get_proc_address, symObjAddr: 0x28A0, symBinAddr: 0x53928, symSize: 0x48 }
  - { offset: 0x217786, size: 0x8, addend: 0x0, symName: _ggml_backend_multi_buffer_alloc_buffer, symObjAddr: 0x28E8, symBinAddr: 0x53970, symSize: 0x108 }
  - { offset: 0x2177B3, size: 0x8, addend: 0x0, symName: _ggml_backend_multi_buffer_alloc_buffer, symObjAddr: 0x28E8, symBinAddr: 0x53970, symSize: 0x108 }
  - { offset: 0x2178C3, size: 0x8, addend: 0x0, symName: __ZL37ggml_backend_multi_buffer_free_bufferP19ggml_backend_buffer, symObjAddr: 0x29F0, symBinAddr: 0x53A78, symSize: 0xA8 }
  - { offset: 0x2178EC, size: 0x8, addend: 0x0, symName: __ZL37ggml_backend_multi_buffer_free_bufferP19ggml_backend_buffer, symObjAddr: 0x29F0, symBinAddr: 0x53A78, symSize: 0xA8 }
  - { offset: 0x217996, size: 0x8, addend: 0x0, symName: _ggml_backend_sched_split_graph, symObjAddr: 0x2A98, symBinAddr: 0x53B20, symSize: 0x2024 }
  - { offset: 0x217D1F, size: 0x8, addend: 0x0, symName: _ggml_backend_sched_split_graph, symObjAddr: 0x2A98, symBinAddr: 0x53B20, symSize: 0x2024 }
  - { offset: 0x21A641, size: 0x8, addend: 0x0, symName: __ZL38ggml_backend_sched_backend_id_from_curP18ggml_backend_schedP11ggml_tensor, symObjAddr: 0x4ABC, symBinAddr: 0x55B44, symSize: 0x458 }
  - { offset: 0x21A682, size: 0x8, addend: 0x0, symName: __ZL38ggml_backend_sched_backend_id_from_curP18ggml_backend_schedP11ggml_tensor, symObjAddr: 0x4ABC, symBinAddr: 0x55B44, symSize: 0x458 }
  - { offset: 0x21A967, size: 0x8, addend: 0x0, symName: __ZL35ggml_backend_sched_buffer_supportedP18ggml_backend_schedP11ggml_tensori, symObjAddr: 0x4F14, symBinAddr: 0x55F9C, symSize: 0x1B8 }
  - { offset: 0x21A97A, size: 0x8, addend: 0x0, symName: __ZL35ggml_backend_sched_buffer_supportedP18ggml_backend_schedP11ggml_tensori, symObjAddr: 0x4F14, symBinAddr: 0x55F9C, symSize: 0x1B8 }
  - { offset: 0x21ABED, size: 0x8, addend: 0x0, symName: _ggml_backend_sched_new, symObjAddr: 0x50CC, symBinAddr: 0x56154, symSize: 0x59C }
  - { offset: 0x21AD05, size: 0x8, addend: 0x0, symName: __ZL38ggml_backend_sched_backend_from_bufferP18ggml_backend_schedPK11ggml_tensorS3_, symObjAddr: 0x8354, symBinAddr: 0x593DC, symSize: 0x150 }
  - { offset: 0x21AF2B, size: 0x8, addend: 0x0, symName: _ggml_backend_sched_new, symObjAddr: 0x50CC, symBinAddr: 0x56154, symSize: 0x59C }
  - { offset: 0x21B3F7, size: 0x8, addend: 0x0, symName: _ggml_backend_sched_reset, symObjAddr: 0x5668, symBinAddr: 0x566F0, symSize: 0x9C }
  - { offset: 0x21B49A, size: 0x8, addend: 0x0, symName: _ggml_backend_sched_reset, symObjAddr: 0x5668, symBinAddr: 0x566F0, symSize: 0x9C }
  - { offset: 0x21B4D3, size: 0x8, addend: 0x0, symName: _ggml_backend_sched_free, symObjAddr: 0x5704, symBinAddr: 0x5678C, symSize: 0x108 }
  - { offset: 0x21B4FE, size: 0x8, addend: 0x0, symName: _ggml_backend_sched_free, symObjAddr: 0x5704, symBinAddr: 0x5678C, symSize: 0x108 }
  - { offset: 0x21B698, size: 0x8, addend: 0x0, symName: _ggml_backend_sched_reserve_size, symObjAddr: 0x580C, symBinAddr: 0x56894, symSize: 0x1A0 }
  - { offset: 0x21B7D3, size: 0x8, addend: 0x0, symName: _ggml_backend_sched_synchronize, symObjAddr: 0x59AC, symBinAddr: 0x56A34, symSize: 0xC4 }
  - { offset: 0x21B808, size: 0x8, addend: 0x0, symName: _ggml_backend_sched_synchronize, symObjAddr: 0x59AC, symBinAddr: 0x56A34, symSize: 0xC4 }
  - { offset: 0x21B877, size: 0x8, addend: 0x0, symName: _ggml_backend_sched_reserve, symObjAddr: 0x5A70, symBinAddr: 0x56AF8, symSize: 0x178 }
  - { offset: 0x21B88B, size: 0x8, addend: 0x0, symName: _ggml_backend_sched_reserve, symObjAddr: 0x5A70, symBinAddr: 0x56AF8, symSize: 0x178 }
  - { offset: 0x21B9AB, size: 0x8, addend: 0x0, symName: _ggml_backend_sched_alloc_graph, symObjAddr: 0x5BE8, symBinAddr: 0x56C70, symSize: 0x2B0 }
  - { offset: 0x21BA4C, size: 0x8, addend: 0x0, symName: _ggml_backend_sched_alloc_graph, symObjAddr: 0x5BE8, symBinAddr: 0x56C70, symSize: 0x2B0 }
  - { offset: 0x21BBE1, size: 0x8, addend: 0x0, symName: _ggml_backend_sched_graph_compute, symObjAddr: 0x5E98, symBinAddr: 0x56F20, symSize: 0xD0 }
  - { offset: 0x21BC0C, size: 0x8, addend: 0x0, symName: _ggml_backend_sched_graph_compute, symObjAddr: 0x5E98, symBinAddr: 0x56F20, symSize: 0xD0 }
  - { offset: 0x21BCE3, size: 0x8, addend: 0x0, symName: _ggml_backend_sched_graph_compute_async, symObjAddr: 0x5F68, symBinAddr: 0x56FF0, symSize: 0xCCC }
  - { offset: 0x21BCF7, size: 0x8, addend: 0x0, symName: _ggml_backend_sched_graph_compute_async, symObjAddr: 0x5F68, symBinAddr: 0x56FF0, symSize: 0xCCC }
  - { offset: 0x21DA15, size: 0x8, addend: 0x0, symName: __ZNSt3__16vectorIjNS_9allocatorIjEEE8__appendEm, symObjAddr: 0x8678, symBinAddr: 0x5952C, symSize: 0x124 }
  - { offset: 0x21DE62, size: 0x8, addend: 0x0, symName: _ggml_backend_sched_set_eval_callback, symObjAddr: 0x6C34, symBinAddr: 0x57CBC, symSize: 0x40 }
  - { offset: 0x21DEB0, size: 0x8, addend: 0x0, symName: _ggml_backend_sched_get_n_splits, symObjAddr: 0x6C74, symBinAddr: 0x57CFC, symSize: 0x3C }
  - { offset: 0x21DEC4, size: 0x8, addend: 0x0, symName: _ggml_backend_sched_get_n_splits, symObjAddr: 0x6C74, symBinAddr: 0x57CFC, symSize: 0x3C }
  - { offset: 0x21DEF4, size: 0x8, addend: 0x0, symName: _ggml_backend_sched_get_n_copies, symObjAddr: 0x6CB0, symBinAddr: 0x57D38, symSize: 0x3C }
  - { offset: 0x21DF08, size: 0x8, addend: 0x0, symName: _ggml_backend_sched_get_n_copies, symObjAddr: 0x6CB0, symBinAddr: 0x57D38, symSize: 0x3C }
  - { offset: 0x21DF38, size: 0x8, addend: 0x0, symName: _ggml_backend_sched_get_n_backends, symObjAddr: 0x6CEC, symBinAddr: 0x57D74, symSize: 0x3C }
  - { offset: 0x21DF4C, size: 0x8, addend: 0x0, symName: _ggml_backend_sched_get_n_backends, symObjAddr: 0x6CEC, symBinAddr: 0x57D74, symSize: 0x3C }
  - { offset: 0x21DF7C, size: 0x8, addend: 0x0, symName: _ggml_backend_sched_get_backend, symObjAddr: 0x6D28, symBinAddr: 0x57DB0, symSize: 0x7C }
  - { offset: 0x21DF90, size: 0x8, addend: 0x0, symName: _ggml_backend_sched_get_backend, symObjAddr: 0x6D28, symBinAddr: 0x57DB0, symSize: 0x7C }
  - { offset: 0x21DFE8, size: 0x8, addend: 0x0, symName: _ggml_backend_sched_get_buffer_type, symObjAddr: 0x6DA4, symBinAddr: 0x57E2C, symSize: 0xA0 }
  - { offset: 0x21E037, size: 0x8, addend: 0x0, symName: _ggml_backend_sched_get_buffer_type, symObjAddr: 0x6DA4, symBinAddr: 0x57E2C, symSize: 0xA0 }
  - { offset: 0x21E0E0, size: 0x8, addend: 0x0, symName: _ggml_backend_sched_get_buffer_size, symObjAddr: 0x6E44, symBinAddr: 0x57ECC, symSize: 0xA0 }
  - { offset: 0x21E0F4, size: 0x8, addend: 0x0, symName: _ggml_backend_sched_get_buffer_size, symObjAddr: 0x6E44, symBinAddr: 0x57ECC, symSize: 0xA0 }
  - { offset: 0x21E1AB, size: 0x8, addend: 0x0, symName: _ggml_backend_sched_set_tensor_backend, symObjAddr: 0x6EE4, symBinAddr: 0x57F6C, symSize: 0x11C }
  - { offset: 0x21E1D6, size: 0x8, addend: 0x0, symName: _ggml_backend_sched_set_tensor_backend, symObjAddr: 0x6EE4, symBinAddr: 0x57F6C, symSize: 0x11C }
  - { offset: 0x21E34F, size: 0x8, addend: 0x0, symName: _ggml_backend_sched_get_tensor_backend, symObjAddr: 0x7000, symBinAddr: 0x58088, symSize: 0xE0 }
  - { offset: 0x21E363, size: 0x8, addend: 0x0, symName: _ggml_backend_sched_get_tensor_backend, symObjAddr: 0x7000, symBinAddr: 0x58088, symSize: 0xE0 }
  - { offset: 0x21E45C, size: 0x8, addend: 0x0, symName: _ggml_backend_view_init, symObjAddr: 0x70E0, symBinAddr: 0x58168, symSize: 0x11C }
  - { offset: 0x21E494, size: 0x8, addend: 0x0, symName: _ggml_backend_view_init, symObjAddr: 0x70E0, symBinAddr: 0x58168, symSize: 0x11C }
  - { offset: 0x21E553, size: 0x8, addend: 0x0, symName: _ggml_backend_tensor_alloc, symObjAddr: 0x71FC, symBinAddr: 0x58284, symSize: 0x294 }
  - { offset: 0x21E5B0, size: 0x8, addend: 0x0, symName: _ggml_backend_tensor_alloc, symObjAddr: 0x71FC, symBinAddr: 0x58284, symSize: 0x294 }
  - { offset: 0x21E870, size: 0x8, addend: 0x0, symName: _ggml_backend_graph_copy, symObjAddr: 0x7490, symBinAddr: 0x58518, symSize: 0x2C4 }
  - { offset: 0x21E883, size: 0x8, addend: 0x0, symName: _ggml_backend_graph_copy, symObjAddr: 0x7490, symBinAddr: 0x58518, symSize: 0x2C4 }
  - { offset: 0x21EC81, size: 0x8, addend: 0x0, symName: __ZL21graph_copy_dup_tensor13ggml_hash_setPP11ggml_tensorP12ggml_contextS4_S1_, symObjAddr: 0x7754, symBinAddr: 0x587DC, symSize: 0x40C }
  - { offset: 0x21ECA2, size: 0x8, addend: 0x0, symName: __ZL21graph_copy_dup_tensor13ggml_hash_setPP11ggml_tensorP12ggml_contextS4_S1_, symObjAddr: 0x7754, symBinAddr: 0x587DC, symSize: 0x40C }
  - { offset: 0x21F0F1, size: 0x8, addend: 0x0, symName: __ZL22graph_copy_init_tensorP13ggml_hash_setPP11ggml_tensorPbS2_, symObjAddr: 0x7B60, symBinAddr: 0x58BE8, symSize: 0x1F0 }
  - { offset: 0x21F127, size: 0x8, addend: 0x0, symName: __ZL22graph_copy_init_tensorP13ggml_hash_setPP11ggml_tensorPbS2_, symObjAddr: 0x7B60, symBinAddr: 0x58BE8, symSize: 0x1F0 }
  - { offset: 0x21F406, size: 0x8, addend: 0x0, symName: _ggml_backend_graph_copy_free, symObjAddr: 0x7D50, symBinAddr: 0x58DD8, symSize: 0x48 }
  - { offset: 0x21F494, size: 0x8, addend: 0x0, symName: _ggml_backend_graph_copy_free, symObjAddr: 0x7D50, symBinAddr: 0x58DD8, symSize: 0x48 }
  - { offset: 0x21F58C, size: 0x8, addend: 0x0, symName: _ggml_backend_compare_graph_backend, symObjAddr: 0x7D98, symBinAddr: 0x58E20, symSize: 0x394 }
  - { offset: 0x21FC06, size: 0x8, addend: 0x0, symName: _ggml_backend_cpu_buffer_type, symObjAddr: 0x812C, symBinAddr: 0x591B4, symSize: 0xC }
  - { offset: 0x21FC1A, size: 0x8, addend: 0x0, symName: __ZL37ggml_backend_cpu_buffer_type_get_nameP24ggml_backend_buffer_type, symObjAddr: 0x8138, symBinAddr: 0x591C0, symSize: 0xC }
  - { offset: 0x21FC46, size: 0x8, addend: 0x0, symName: __ZL41ggml_backend_cpu_buffer_type_alloc_bufferP24ggml_backend_buffer_typem, symObjAddr: 0x8144, symBinAddr: 0x591CC, symSize: 0xAC }
  - { offset: 0x21FD1B, size: 0x8, addend: 0x0, symName: __ZL42ggml_backend_cpu_buffer_type_get_alignmentP24ggml_backend_buffer_type, symObjAddr: 0x81F0, symBinAddr: 0x59278, symSize: 0x8 }
  - { offset: 0x21FD47, size: 0x8, addend: 0x0, symName: __ZL36ggml_backend_cpu_buffer_type_is_hostP24ggml_backend_buffer_type, symObjAddr: 0x81F8, symBinAddr: 0x59280, symSize: 0x8 }
  - { offset: 0x21FD73, size: 0x8, addend: 0x0, symName: _ggml_backend_cpu_buffer_from_ptr, symObjAddr: 0x8200, symBinAddr: 0x59288, symSize: 0x94 }
  - { offset: 0x21FDF9, size: 0x8, addend: 0x0, symName: __ZL31ggml_backend_multi_buffer_clearP19ggml_backend_bufferh, symObjAddr: 0x8294, symBinAddr: 0x5931C, symSize: 0xC0 }
  - { offset: 0x21FE2D, size: 0x8, addend: 0x0, symName: __ZL31ggml_backend_multi_buffer_clearP19ggml_backend_bufferh, symObjAddr: 0x8294, symBinAddr: 0x5931C, symSize: 0xC0 }
  - { offset: 0x21FEE5, size: 0x8, addend: 0x0, symName: __ZL38ggml_backend_sched_backend_from_bufferP18ggml_backend_schedPK11ggml_tensorS3_, symObjAddr: 0x8354, symBinAddr: 0x593DC, symSize: 0x150 }
  - { offset: 0x2204E5, size: 0x8, addend: 0x0, symName: __ZL35ggml_backend_cpu_buffer_free_bufferP19ggml_backend_buffer, symObjAddr: 0x87B0, symBinAddr: 0x59650, symSize: 0x40 }
  - { offset: 0x2204F0, size: 0x8, addend: 0x0, symName: __ZL35ggml_backend_cpu_buffer_free_bufferP19ggml_backend_buffer, symObjAddr: 0x87B0, symBinAddr: 0x59650, symSize: 0x40 }
  - { offset: 0x22052E, size: 0x8, addend: 0x0, symName: __ZL32ggml_backend_cpu_buffer_get_baseP19ggml_backend_buffer, symObjAddr: 0x87F0, symBinAddr: 0x59690, symSize: 0x4C }
  - { offset: 0x220555, size: 0x8, addend: 0x0, symName: __ZL32ggml_backend_cpu_buffer_get_baseP19ggml_backend_buffer, symObjAddr: 0x87F0, symBinAddr: 0x59690, symSize: 0x4C }
  - { offset: 0x22059A, size: 0x8, addend: 0x0, symName: __ZL37ggml_backend_cpu_buffer_memset_tensorP19ggml_backend_bufferP11ggml_tensorhmm, symObjAddr: 0x883C, symBinAddr: 0x596DC, symSize: 0x48 }
  - { offset: 0x2205AE, size: 0x8, addend: 0x0, symName: __ZL37ggml_backend_cpu_buffer_memset_tensorP19ggml_backend_bufferP11ggml_tensorhmm, symObjAddr: 0x883C, symBinAddr: 0x596DC, symSize: 0x48 }
  - { offset: 0x22061D, size: 0x8, addend: 0x0, symName: __ZL34ggml_backend_cpu_buffer_set_tensorP19ggml_backend_bufferP11ggml_tensorPKvmm, symObjAddr: 0x8884, symBinAddr: 0x59724, symSize: 0x48 }
  - { offset: 0x220631, size: 0x8, addend: 0x0, symName: __ZL34ggml_backend_cpu_buffer_set_tensorP19ggml_backend_bufferP11ggml_tensorPKvmm, symObjAddr: 0x8884, symBinAddr: 0x59724, symSize: 0x48 }
  - { offset: 0x2206A0, size: 0x8, addend: 0x0, symName: __ZL34ggml_backend_cpu_buffer_get_tensorP19ggml_backend_bufferPK11ggml_tensorPvmm, symObjAddr: 0x88CC, symBinAddr: 0x5976C, symSize: 0x48 }
  - { offset: 0x2206B4, size: 0x8, addend: 0x0, symName: __ZL34ggml_backend_cpu_buffer_get_tensorP19ggml_backend_bufferPK11ggml_tensorPvmm, symObjAddr: 0x88CC, symBinAddr: 0x5976C, symSize: 0x48 }
  - { offset: 0x220723, size: 0x8, addend: 0x0, symName: __ZL34ggml_backend_cpu_buffer_cpy_tensorP19ggml_backend_bufferPK11ggml_tensorPS1_, symObjAddr: 0x8914, symBinAddr: 0x597B4, symSize: 0xFC }
  - { offset: 0x220737, size: 0x8, addend: 0x0, symName: __ZL34ggml_backend_cpu_buffer_cpy_tensorP19ggml_backend_bufferPK11ggml_tensorPS1_, symObjAddr: 0x8914, symBinAddr: 0x597B4, symSize: 0xFC }
  - { offset: 0x220821, size: 0x8, addend: 0x0, symName: __ZL29ggml_backend_cpu_buffer_clearP19ggml_backend_bufferh, symObjAddr: 0x8A10, symBinAddr: 0x598B0, symSize: 0x40 }
  - { offset: 0x220834, size: 0x8, addend: 0x0, symName: __ZL29ggml_backend_cpu_buffer_clearP19ggml_backend_bufferh, symObjAddr: 0x8A10, symBinAddr: 0x598B0, symSize: 0x40 }
  - { offset: 0x220875, size: 0x8, addend: 0x0, symName: __ZL46ggml_backend_cpu_buffer_from_ptr_type_get_nameP24ggml_backend_buffer_type, symObjAddr: 0x8A50, symBinAddr: 0x598F0, symSize: 0xC }
  - { offset: 0x220889, size: 0x8, addend: 0x0, symName: __ZL46ggml_backend_cpu_buffer_from_ptr_type_get_nameP24ggml_backend_buffer_type, symObjAddr: 0x8A50, symBinAddr: 0x598F0, symSize: 0xC }
  - { offset: 0x222759, size: 0x8, addend: 0x0, symName: _ggml_opt_dataset_init, symObjAddr: 0x0, symBinAddr: 0x598FC, symSize: 0x268 }
  - { offset: 0x22AEBE, size: 0x8, addend: 0x0, symName: __ZNSt3__124uniform_int_distributionIlEclINS_23mersenne_twister_engineIjLm32ELm624ELm397ELm31ELj2567483615ELm11ELj4294967295ELm7ELj2636928640ELm15ELj4022730752ELm18ELj1812433253EEEEElRT_RKNS1_10param_typeE, symObjAddr: 0x3F88, symBinAddr: 0x5D4FC, symSize: 0x1A4 }
  - { offset: 0x22AF62, size: 0x8, addend: 0x0, symName: __ZNSt3__124uniform_int_distributionIlEclINS_23mersenne_twister_engineIjLm32ELm624ELm397ELm31ELj2567483615ELm11ELj4294967295ELm7ELj2636928640ELm15ELj4022730752ELm18ELj1812433253EEEEElRT_RKNS1_10param_typeE, symObjAddr: 0x3F88, symBinAddr: 0x5D4FC, symSize: 0x1A4 }
  - { offset: 0x22B2E2, size: 0x8, addend: 0x0, symName: _ggml_opt_dataset_init, symObjAddr: 0x0, symBinAddr: 0x598FC, symSize: 0x268 }
  - { offset: 0x22B564, size: 0x8, addend: 0x0, symName: _ggml_opt_dataset_free, symObjAddr: 0x268, symBinAddr: 0x59B64, symSize: 0x40 }
  - { offset: 0x22B5FB, size: 0x8, addend: 0x0, symName: __ZNSt3__16vectorIxNS_9allocatorIxEEE8__appendEm, symObjAddr: 0x3E50, symBinAddr: 0x5D3C4, symSize: 0x124 }
  - { offset: 0x22BA3F, size: 0x8, addend: 0x0, symName: __ZNKSt3__16vectorIxNS_9allocatorIxEEE20__throw_length_errorB8ne190102Ev, symObjAddr: 0x3F74, symBinAddr: 0x5D4E8, symSize: 0x14 }
  - { offset: 0x22BB94, size: 0x8, addend: 0x0, symName: _ggml_opt_dataset_free, symObjAddr: 0x268, symBinAddr: 0x59B64, symSize: 0x40 }
  - { offset: 0x22BD8F, size: 0x8, addend: 0x0, symName: _ggml_opt_dataset_ndata, symObjAddr: 0x2A8, symBinAddr: 0x59BA4, symSize: 0x8 }
  - { offset: 0x22BDBA, size: 0x8, addend: 0x0, symName: _ggml_opt_dataset_data, symObjAddr: 0x2B0, symBinAddr: 0x59BAC, symSize: 0x8 }
  - { offset: 0x22BDD9, size: 0x8, addend: 0x0, symName: _ggml_opt_dataset_labels, symObjAddr: 0x2B8, symBinAddr: 0x59BB4, symSize: 0x8 }
  - { offset: 0x22BFAE, size: 0x8, addend: 0x0, symName: _ggml_opt_dataset_shuffle, symObjAddr: 0x2C0, symBinAddr: 0x59BBC, symSize: 0x188 }
  - { offset: 0x22C5A2, size: 0x8, addend: 0x0, symName: _ggml_opt_dataset_get_batch, symObjAddr: 0x448, symBinAddr: 0x59D44, symSize: 0x2B0 }
  - { offset: 0x22C5F6, size: 0x8, addend: 0x0, symName: _ggml_opt_dataset_get_batch, symObjAddr: 0x448, symBinAddr: 0x59D44, symSize: 0x2B0 }
  - { offset: 0x22C854, size: 0x8, addend: 0x0, symName: _ggml_opt_dataset_get_batch_host, symObjAddr: 0x6F8, symBinAddr: 0x59FF4, symSize: 0x180 }
  - { offset: 0x22C897, size: 0x8, addend: 0x0, symName: _ggml_opt_dataset_get_batch_host, symObjAddr: 0x6F8, symBinAddr: 0x59FF4, symSize: 0x180 }
  - { offset: 0x22C9F9, size: 0x8, addend: 0x0, symName: _ggml_opt_get_default_optimizer_params, symObjAddr: 0x878, symBinAddr: 0x5A174, symSize: 0x20 }
  - { offset: 0x22CA0D, size: 0x8, addend: 0x0, symName: _ggml_opt_get_default_optimizer_params, symObjAddr: 0x878, symBinAddr: 0x5A174, symSize: 0x20 }
  - { offset: 0x22CA42, size: 0x8, addend: 0x0, symName: _ggml_opt_get_constant_optimizer_params, symObjAddr: 0x898, symBinAddr: 0x5A194, symSize: 0x14 }
  - { offset: 0x22CA6B, size: 0x8, addend: 0x0, symName: _ggml_opt_default_params, symObjAddr: 0x8AC, symBinAddr: 0x5A1A8, symSize: 0x34 }
  - { offset: 0x22CDDC, size: 0x8, addend: 0x0, symName: _ggml_opt_init, symObjAddr: 0x8E0, symBinAddr: 0x5A1DC, symSize: 0x228 }
  - { offset: 0x22CFF5, size: 0x8, addend: 0x0, symName: __ZL14ggml_opt_buildP16ggml_opt_context, symObjAddr: 0xB08, symBinAddr: 0x5A404, symSize: 0xA08 }
  - { offset: 0x22D039, size: 0x8, addend: 0x0, symName: __ZL14ggml_opt_buildP16ggml_opt_context, symObjAddr: 0xB08, symBinAddr: 0x5A404, symSize: 0xA08 }
  - { offset: 0x22DB80, size: 0x8, addend: 0x0, symName: _ggml_opt_free, symObjAddr: 0x1510, symBinAddr: 0x5AE0C, symSize: 0x80 }
  - { offset: 0x22E291, size: 0x8, addend: 0x0, symName: _ggml_opt_free, symObjAddr: 0x1510, symBinAddr: 0x5AE0C, symSize: 0x80 }
  - { offset: 0x22E760, size: 0x8, addend: 0x0, symName: _ggml_opt_reset, symObjAddr: 0x1590, symBinAddr: 0x5AE8C, symSize: 0x3C }
  - { offset: 0x22E7B6, size: 0x8, addend: 0x0, symName: _ggml_opt_static_graphs, symObjAddr: 0x15CC, symBinAddr: 0x5AEC8, symSize: 0x8 }
  - { offset: 0x22E7D5, size: 0x8, addend: 0x0, symName: _ggml_opt_inputs, symObjAddr: 0x15D4, symBinAddr: 0x5AED0, symSize: 0x8 }
  - { offset: 0x22E7F4, size: 0x8, addend: 0x0, symName: _ggml_opt_outputs, symObjAddr: 0x15DC, symBinAddr: 0x5AED8, symSize: 0x8 }
  - { offset: 0x22E821, size: 0x8, addend: 0x0, symName: _ggml_opt_labels, symObjAddr: 0x15E4, symBinAddr: 0x5AEE0, symSize: 0x8 }
  - { offset: 0x22E84E, size: 0x8, addend: 0x0, symName: _ggml_opt_loss, symObjAddr: 0x15EC, symBinAddr: 0x5AEE8, symSize: 0x8 }
  - { offset: 0x22E87B, size: 0x8, addend: 0x0, symName: _ggml_opt_pred, symObjAddr: 0x15F4, symBinAddr: 0x5AEF0, symSize: 0x8 }
  - { offset: 0x22E8A8, size: 0x8, addend: 0x0, symName: _ggml_opt_ncorrect, symObjAddr: 0x15FC, symBinAddr: 0x5AEF8, symSize: 0x8 }
  - { offset: 0x22E8D5, size: 0x8, addend: 0x0, symName: _ggml_opt_grad_acc, symObjAddr: 0x1604, symBinAddr: 0x5AF00, symSize: 0x8 }
  - { offset: 0x22EA26, size: 0x8, addend: 0x0, symName: _ggml_opt_result_init, symObjAddr: 0x160C, symBinAddr: 0x5AF08, symSize: 0x30 }
  - { offset: 0x22ECDD, size: 0x8, addend: 0x0, symName: _ggml_opt_result_free, symObjAddr: 0x163C, symBinAddr: 0x5AF38, symSize: 0x48 }
  - { offset: 0x22F06D, size: 0x8, addend: 0x0, symName: _ggml_opt_result_reset, symObjAddr: 0x1684, symBinAddr: 0x5AF80, symSize: 0x1C }
  - { offset: 0x22F1A2, size: 0x8, addend: 0x0, symName: _ggml_opt_result_ndata, symObjAddr: 0x16A0, symBinAddr: 0x5AF9C, symSize: 0xC }
  - { offset: 0x22F1D8, size: 0x8, addend: 0x0, symName: _ggml_opt_result_loss, symObjAddr: 0x16AC, symBinAddr: 0x5AFA8, symSize: 0x388 }
  - { offset: 0x22F23A, size: 0x8, addend: 0x0, symName: _ggml_opt_result_loss, symObjAddr: 0x16AC, symBinAddr: 0x5AFA8, symSize: 0x388 }
  - { offset: 0x22F297, size: 0x8, addend: 0x0, symName: _ggml_opt_result_pred, symObjAddr: 0x1A34, symBinAddr: 0x5B330, symSize: 0x84 }
  - { offset: 0x22F2ED, size: 0x8, addend: 0x0, symName: _ggml_opt_result_accuracy, symObjAddr: 0x1AB8, symBinAddr: 0x5B3B4, symSize: 0x6C }
  - { offset: 0x22F31A, size: 0x8, addend: 0x0, symName: _ggml_opt_prepare_alloc, symObjAddr: 0x1B24, symBinAddr: 0x5B420, symSize: 0x50 }
  - { offset: 0x22F38A, size: 0x8, addend: 0x0, symName: _ggml_opt_alloc, symObjAddr: 0x1B74, symBinAddr: 0x5B470, symSize: 0x4C0 }
  - { offset: 0x22F69E, size: 0x8, addend: 0x0, symName: _ggml_opt_alloc, symObjAddr: 0x1B74, symBinAddr: 0x5B470, symSize: 0x4C0 }
  - { offset: 0x22FD0D, size: 0x8, addend: 0x0, symName: __ZL10map_tensorRNSt3__13mapIP11ggml_tensorS2_NS_4lessIS2_EENS_9allocatorINS_4pairIKS2_S2_EEEEEEP12ggml_contextS2_, symObjAddr: 0x3958, symBinAddr: 0x5D080, symSize: 0x300 }
  - { offset: 0x2305B1, size: 0x8, addend: 0x0, symName: __ZNSt3__16__treeINS_12__value_typeIP11ggml_tensorS3_EENS_19__map_value_compareIS3_S4_NS_4lessIS3_EELb1EEENS_9allocatorIS4_EEE7destroyEPNS_11__tree_nodeIS4_PvEE, symObjAddr: 0x3E0C, symBinAddr: 0x5D380, symSize: 0x44 }
  - { offset: 0x230BF1, size: 0x8, addend: 0x0, symName: _ggml_opt_eval, symObjAddr: 0x2034, symBinAddr: 0x5B930, symSize: 0x744 }
  - { offset: 0x232078, size: 0x8, addend: 0x0, symName: _ggml_opt_epoch, symObjAddr: 0x2778, symBinAddr: 0x5C074, symSize: 0x2D4 }
  - { offset: 0x23247B, size: 0x8, addend: 0x0, symName: _ggml_opt_epoch_callback_progress_bar, symObjAddr: 0x2A4C, symBinAddr: 0x5C348, symSize: 0x770 }
  - { offset: 0x232592, size: 0x8, addend: 0x0, symName: _ggml_opt_epoch_callback_progress_bar, symObjAddr: 0x2A4C, symBinAddr: 0x5C348, symSize: 0x770 }
  - { offset: 0x232AAE, size: 0x8, addend: 0x0, symName: _ggml_opt_fit, symObjAddr: 0x31BC, symBinAddr: 0x5CAB8, symSize: 0x594 }
  - { offset: 0x233AC9, size: 0x8, addend: 0x0, symName: _ggml_opt_context_optimizer_type, symObjAddr: 0x3750, symBinAddr: 0x5D04C, symSize: 0x8 }
  - { offset: 0x233AE6, size: 0x8, addend: 0x0, symName: _ggml_opt_context_optimizer_type, symObjAddr: 0x3750, symBinAddr: 0x5D04C, symSize: 0x8 }
  - { offset: 0x233B13, size: 0x8, addend: 0x0, symName: _ggml_opt_optimizer_name, symObjAddr: 0x3758, symBinAddr: 0x5D054, symSize: 0x2C }
  - { offset: 0x234700, size: 0x8, addend: 0x0, symName: __ZNKSt3__16vectorIxNS_9allocatorIxEEE20__throw_length_errorB8ne190102Ev, symObjAddr: 0x3F74, symBinAddr: 0x5D4E8, symSize: 0x14 }
  - { offset: 0x23472A, size: 0x8, addend: 0x0, symName: __ZNSt3__124uniform_int_distributionIlEclINS_23mersenne_twister_engineIjLm32ELm624ELm397ELm31ELj2567483615ELm11ELj4294967295ELm7ELj2636928640ELm15ELj4022730752ELm18ELj1812433253EEEEElRT_RKNS1_10param_typeE, symObjAddr: 0x3F88, symBinAddr: 0x5D4FC, symSize: 0x1A4 }
  - { offset: 0x2347E3, size: 0x8, addend: 0x0, symName: __ZNSt3__125__independent_bits_engineINS_23mersenne_twister_engineIjLm32ELm624ELm397ELm31ELj2567483615ELm11ELj4294967295ELm7ELj2636928640ELm15ELj4022730752ELm18ELj1812433253EEEmE6__evalENS_17integral_constantIbLb1EEE, symObjAddr: 0x412C, symBinAddr: 0x5D6A0, symSize: 0x330 }
  - { offset: 0x236D0E, size: 0x8, addend: 0x0, symName: _quantize_row_q1_0_ref, symObjAddr: 0x0, symBinAddr: 0x5D9D0, symSize: 0x1B0 }
  - { offset: 0x236D1C, size: 0x8, addend: 0x0, symName: _quantize_row_q1_0_ref, symObjAddr: 0x0, symBinAddr: 0x5D9D0, symSize: 0x1B0 }
  - { offset: 0x236F2A, size: 0x8, addend: 0x0, symName: _quantize_row_q4_0_ref, symObjAddr: 0x1B0, symBinAddr: 0x5DB80, symSize: 0x3B4 }
  - { offset: 0x237180, size: 0x8, addend: 0x0, symName: _quantize_row_q5_0_ref, symObjAddr: 0x998, symBinAddr: 0x5E368, symSize: 0x4B8 }
  - { offset: 0x2373F0, size: 0x8, addend: 0x0, symName: _quantize_row_mxfp4_ref, symObjAddr: 0x1A2C, symBinAddr: 0x5F3FC, symSize: 0x728 }
  - { offset: 0x237580, size: 0x8, addend: 0x0, symName: _quantize_row_nvfp4_ref, symObjAddr: 0x2154, symBinAddr: 0x5FB24, symSize: 0x55C }
  - { offset: 0x2377D2, size: 0x8, addend: 0x0, symName: _dequantize_row_q1_0, symObjAddr: 0x26B0, symBinAddr: 0x60080, symSize: 0x31C }
  - { offset: 0x2379B4, size: 0x8, addend: 0x0, symName: _dequantize_row_q4_0, symObjAddr: 0x29CC, symBinAddr: 0x6039C, symSize: 0x190 }
  - { offset: 0x237B5E, size: 0x8, addend: 0x0, symName: _dequantize_row_q4_1, symObjAddr: 0x2B5C, symBinAddr: 0x6052C, symSize: 0x1A8 }
  - { offset: 0x237DD7, size: 0x8, addend: 0x0, symName: _dequantize_row_q5_0, symObjAddr: 0x2D04, symBinAddr: 0x606D4, symSize: 0x1E4 }
  - { offset: 0x237F85, size: 0x8, addend: 0x0, symName: _dequantize_row_q5_1, symObjAddr: 0x2EE8, symBinAddr: 0x608B8, symSize: 0x22C }
  - { offset: 0x23820E, size: 0x8, addend: 0x0, symName: _dequantize_row_q8_0, symObjAddr: 0x3114, symBinAddr: 0x60AE4, symSize: 0x10C }
  - { offset: 0x23838F, size: 0x8, addend: 0x0, symName: _dequantize_row_mxfp4, symObjAddr: 0x3220, symBinAddr: 0x60BF0, symSize: 0x248 }
  - { offset: 0x238493, size: 0x8, addend: 0x0, symName: _dequantize_row_nvfp4, symObjAddr: 0x3468, symBinAddr: 0x60E38, symSize: 0x2C4 }
  - { offset: 0x2385F9, size: 0x8, addend: 0x0, symName: _iq2xs_init_impl, symObjAddr: 0x26B14, symBinAddr: 0x844E4, symSize: 0xF08 }
  - { offset: 0x23861D, size: 0x8, addend: 0x0, symName: _iq2xs_init_impl.kgrid_2bit_256, symObjAddr: 0x400C0, symBinAddr: 0x174FC0, symSize: 0x0 }
  - { offset: 0x238634, size: 0x8, addend: 0x0, symName: _iq2xs_init_impl.kgrid_2bit_512, symObjAddr: 0x402C0, symBinAddr: 0x1751C0, symSize: 0x0 }
  - { offset: 0x23864B, size: 0x8, addend: 0x0, symName: _iq2xs_init_impl.kgrid_1bit_2048, symObjAddr: 0x406C0, symBinAddr: 0x1755C0, symSize: 0x0 }
  - { offset: 0x238662, size: 0x8, addend: 0x0, symName: _iq2xs_init_impl.kgrid_2bit_1024, symObjAddr: 0x416C0, symBinAddr: 0x1765C0, symSize: 0x0 }
  - { offset: 0x238CC8, size: 0x8, addend: 0x0, symName: _iq2_compare_func, symObjAddr: 0x27A1C, symBinAddr: 0x853EC, symSize: 0x40 }
  - { offset: 0x238D3F, size: 0x8, addend: 0x0, symName: _iq3xs_init_impl, symObjAddr: 0x2C0D4, symBinAddr: 0x89AA4, symSize: 0xA98 }
  - { offset: 0x238D63, size: 0x8, addend: 0x0, symName: _iq3xs_init_impl.kgrid_256, symObjAddr: 0x41EC0, symBinAddr: 0x176DC0, symSize: 0x0 }
  - { offset: 0x238D7A, size: 0x8, addend: 0x0, symName: _iq3xs_init_impl.kgrid_512, symObjAddr: 0x420C0, symBinAddr: 0x176FC0, symSize: 0x0 }
  - { offset: 0x2393CD, size: 0x8, addend: 0x0, symName: _iq3_compare_func, symObjAddr: 0x2CB6C, symBinAddr: 0x8A53C, symSize: 0x40 }
  - { offset: 0x2393F4, size: 0x8, addend: 0x0, symName: _kvalues_mxfp4, symObjAddr: 0x37C1C, symBinAddr: 0x16CB1C, symSize: 0x0 }
  - { offset: 0x239432, size: 0x8, addend: 0x0, symName: _iq2xxs_grid, symObjAddr: 0x37C30, symBinAddr: 0x16CB30, symSize: 0x0 }
  - { offset: 0x239471, size: 0x8, addend: 0x0, symName: _ksigns_iq2xs, symObjAddr: 0x38430, symBinAddr: 0x16D330, symSize: 0x0 }
  - { offset: 0x2394AF, size: 0x8, addend: 0x0, symName: _iq2xs_grid, symObjAddr: 0x384B0, symBinAddr: 0x16D3B0, symSize: 0x0 }
  - { offset: 0x2394D5, size: 0x8, addend: 0x0, symName: _iq2s_grid, symObjAddr: 0x394B0, symBinAddr: 0x16E3B0, symSize: 0x0 }
  - { offset: 0x2394FB, size: 0x8, addend: 0x0, symName: _iq3xxs_grid, symObjAddr: 0x3B4B0, symBinAddr: 0x1703B0, symSize: 0x0 }
  - { offset: 0x23953A, size: 0x8, addend: 0x0, symName: _iq3s_grid, symObjAddr: 0x3B8B0, symBinAddr: 0x1707B0, symSize: 0x0 }
  - { offset: 0x239560, size: 0x8, addend: 0x0, symName: _iq1s_grid, symObjAddr: 0x3C0B0, symBinAddr: 0x170FB0, symSize: 0x0 }
  - { offset: 0x239586, size: 0x8, addend: 0x0, symName: _kvalues_iq4nl, symObjAddr: 0x400B0, symBinAddr: 0x174FB0, symSize: 0x0 }
  - { offset: 0x23959D, size: 0x8, addend: 0x0, symName: _iq2_data, symObjAddr: 0xF30A8, symBinAddr: 0x22E7A8, symSize: 0x0 }
  - { offset: 0x239612, size: 0x8, addend: 0x0, symName: _iq3_data, symObjAddr: 0xF3108, symBinAddr: 0x22E808, symSize: 0x0 }
  - { offset: 0x23A2D8, size: 0x8, addend: 0x0, symName: _quantize_row_q4_1_ref, symObjAddr: 0x564, symBinAddr: 0x5DF34, symSize: 0x434 }
  - { offset: 0x23A609, size: 0x8, addend: 0x0, symName: _quantize_row_q5_1_ref, symObjAddr: 0xE50, symBinAddr: 0x5E820, symSize: 0x530 }
  - { offset: 0x23A98A, size: 0x8, addend: 0x0, symName: _quantize_row_q8_0_ref, symObjAddr: 0x1380, symBinAddr: 0x5ED50, symSize: 0x318 }
  - { offset: 0x23ABA1, size: 0x8, addend: 0x0, symName: _quantize_row_q8_1_ref, symObjAddr: 0x1698, symBinAddr: 0x5F068, symSize: 0x394 }
  - { offset: 0x23B38B, size: 0x8, addend: 0x0, symName: _quantize_row_q2_K_ref, symObjAddr: 0x372C, symBinAddr: 0x610FC, symSize: 0xCF0 }
  - { offset: 0x23BB5F, size: 0x8, addend: 0x0, symName: _dequantize_row_q2_K, symObjAddr: 0x441C, symBinAddr: 0x61DEC, symSize: 0x3B0 }
  - { offset: 0x23C502, size: 0x8, addend: 0x0, symName: _quantize_q2_K, symObjAddr: 0x47CC, symBinAddr: 0x6219C, symSize: 0x2A10 }
  - { offset: 0x23D438, size: 0x8, addend: 0x0, symName: _quantize_row_q3_K_ref, symObjAddr: 0x71DC, symBinAddr: 0x64BAC, symSize: 0xD58 }
  - { offset: 0x23D974, size: 0x8, addend: 0x0, symName: _dequantize_row_q3_K, symObjAddr: 0x7F34, symBinAddr: 0x65904, symSize: 0x544 }
  - { offset: 0x23DFBC, size: 0x8, addend: 0x0, symName: _quantize_q3_K, symObjAddr: 0x8478, symBinAddr: 0x65E48, symSize: 0x1474 }
  - { offset: 0x23E6E4, size: 0x8, addend: 0x0, symName: _quantize_row_q4_K_ref, symObjAddr: 0x98EC, symBinAddr: 0x672BC, symSize: 0x1540 }
  - { offset: 0x23EE03, size: 0x8, addend: 0x0, symName: _dequantize_row_q4_K, symObjAddr: 0xAE2C, symBinAddr: 0x687FC, symSize: 0x764 }
  - { offset: 0x23F3CB, size: 0x8, addend: 0x0, symName: _quantize_q4_K, symObjAddr: 0xB590, symBinAddr: 0x68F60, symSize: 0x2DE0 }
  - { offset: 0x240016, size: 0x8, addend: 0x0, symName: _quantize_row_q5_K_ref, symObjAddr: 0xE370, symBinAddr: 0x6BD40, symSize: 0x16F0 }
  - { offset: 0x240797, size: 0x8, addend: 0x0, symName: _dequantize_row_q5_K, symObjAddr: 0xFA60, symBinAddr: 0x6D430, symSize: 0x4F4 }
  - { offset: 0x240DF7, size: 0x8, addend: 0x0, symName: _quantize_q5_K, symObjAddr: 0xFF54, symBinAddr: 0x6D924, symSize: 0x2FC4 }
  - { offset: 0x241A74, size: 0x8, addend: 0x0, symName: _quantize_row_q6_K_ref, symObjAddr: 0x12F18, symBinAddr: 0x708E8, symSize: 0xCB8 }
  - { offset: 0x241FCF, size: 0x8, addend: 0x0, symName: _make_qx_quants, symObjAddr: 0x13BD0, symBinAddr: 0x715A0, symSize: 0xEB8 }
  - { offset: 0x24206C, size: 0x8, addend: 0x0, symName: _make_qx_quants, symObjAddr: 0x13BD0, symBinAddr: 0x715A0, symSize: 0xEB8 }
  - { offset: 0x2421EA, size: 0x8, addend: 0x0, symName: _dequantize_row_q6_K, symObjAddr: 0x14A88, symBinAddr: 0x72458, symSize: 0x818 }
  - { offset: 0x24257F, size: 0x8, addend: 0x0, symName: _quantize_q6_K, symObjAddr: 0x152A0, symBinAddr: 0x72C70, symSize: 0x85B8 }
  - { offset: 0x244561, size: 0x8, addend: 0x0, symName: _quantize_q1_0, symObjAddr: 0x1D858, symBinAddr: 0x7B228, symSize: 0x444 }
  - { offset: 0x244B06, size: 0x8, addend: 0x0, symName: _quantize_q4_0, symObjAddr: 0x1DC9C, symBinAddr: 0x7B66C, symSize: 0xD44 }
  - { offset: 0x24502A, size: 0x8, addend: 0x0, symName: _quantize_q4_1, symObjAddr: 0x1E9E0, symBinAddr: 0x7C3B0, symSize: 0x1360 }
  - { offset: 0x245718, size: 0x8, addend: 0x0, symName: _quantize_q5_0, symObjAddr: 0x1FD40, symBinAddr: 0x7D710, symSize: 0xED4 }
  - { offset: 0x245C8B, size: 0x8, addend: 0x0, symName: _quantize_q5_1, symObjAddr: 0x20C14, symBinAddr: 0x7E5E4, symSize: 0x15CC }
  - { offset: 0x246264, size: 0x8, addend: 0x0, symName: _quantize_q8_0, symObjAddr: 0x221E0, symBinAddr: 0x7FBB0, symSize: 0x5C }
  - { offset: 0x246320, size: 0x8, addend: 0x0, symName: _quantize_mxfp4, symObjAddr: 0x2223C, symBinAddr: 0x7FC0C, symSize: 0x38 }
  - { offset: 0x2463CD, size: 0x8, addend: 0x0, symName: _quantize_nvfp4, symObjAddr: 0x22274, symBinAddr: 0x7FC44, symSize: 0x38 }
  - { offset: 0x24647A, size: 0x8, addend: 0x0, symName: _quantize_row_tq1_0_ref, symObjAddr: 0x222AC, symBinAddr: 0x7FC7C, symSize: 0x3E0 }
  - { offset: 0x24681A, size: 0x8, addend: 0x0, symName: _quantize_row_tq2_0_ref, symObjAddr: 0x2268C, symBinAddr: 0x8005C, symSize: 0x1E4 }
  - { offset: 0x246AA3, size: 0x8, addend: 0x0, symName: _quantize_tq1_0, symObjAddr: 0x22870, symBinAddr: 0x80240, symSize: 0x5C }
  - { offset: 0x246B60, size: 0x8, addend: 0x0, symName: _quantize_tq2_0, symObjAddr: 0x228CC, symBinAddr: 0x8029C, symSize: 0x5C }
  - { offset: 0x246C1D, size: 0x8, addend: 0x0, symName: _dequantize_row_tq1_0, symObjAddr: 0x22928, symBinAddr: 0x802F8, symSize: 0xC80 }
  - { offset: 0x246F16, size: 0x8, addend: 0x0, symName: _dequantize_row_tq2_0, symObjAddr: 0x235A8, symBinAddr: 0x80F78, symSize: 0x394 }
  - { offset: 0x2470EE, size: 0x8, addend: 0x0, symName: _dequantize_row_iq2_xxs, symObjAddr: 0x2393C, symBinAddr: 0x8130C, symSize: 0x370 }
  - { offset: 0x247332, size: 0x8, addend: 0x0, symName: _dequantize_row_iq2_xs, symObjAddr: 0x23CAC, symBinAddr: 0x8167C, symSize: 0x4A0 }
  - { offset: 0x24753F, size: 0x8, addend: 0x0, symName: _dequantize_row_iq2_s, symObjAddr: 0x2414C, symBinAddr: 0x81B1C, symSize: 0x3BC }
  - { offset: 0x247781, size: 0x8, addend: 0x0, symName: _dequantize_row_iq3_xxs, symObjAddr: 0x24508, symBinAddr: 0x81ED8, symSize: 0x3A0 }
  - { offset: 0x2479DF, size: 0x8, addend: 0x0, symName: _dequantize_row_iq3_s, symObjAddr: 0x248A8, symBinAddr: 0x82278, symSize: 0x6E8 }
  - { offset: 0x247C92, size: 0x8, addend: 0x0, symName: _dequantize_row_iq1_s, symObjAddr: 0x24F90, symBinAddr: 0x82960, symSize: 0x1C4 }
  - { offset: 0x247EEA, size: 0x8, addend: 0x0, symName: _dequantize_row_iq1_m, symObjAddr: 0x25154, symBinAddr: 0x82B24, symSize: 0x244 }
  - { offset: 0x2481C2, size: 0x8, addend: 0x0, symName: _dequantize_row_iq4_nl, symObjAddr: 0x25398, symBinAddr: 0x82D68, symSize: 0x404 }
  - { offset: 0x248376, size: 0x8, addend: 0x0, symName: _dequantize_row_iq4_xs, symObjAddr: 0x2579C, symBinAddr: 0x8316C, symSize: 0x468 }
  - { offset: 0x248577, size: 0x8, addend: 0x0, symName: _quantize_row_q8_K_ref, symObjAddr: 0x25C04, symBinAddr: 0x835D4, symSize: 0x77C }
  - { offset: 0x248704, size: 0x8, addend: 0x0, symName: _dequantize_row_q8_K, symObjAddr: 0x26380, symBinAddr: 0x83D50, symSize: 0x794 }
  - { offset: 0x24884B, size: 0x8, addend: 0x0, symName: _iq2_compare_func, symObjAddr: 0x27A1C, symBinAddr: 0x853EC, symSize: 0x40 }
  - { offset: 0x2488A7, size: 0x8, addend: 0x0, symName: _iq2xs_free_impl, symObjAddr: 0x27A5C, symBinAddr: 0x8542C, symSize: 0xF8 }
  - { offset: 0x248924, size: 0x8, addend: 0x0, symName: _quantize_iq2_xxs, symObjAddr: 0x27B54, symBinAddr: 0x85524, symSize: 0x27F4 }
  - { offset: 0x248E05, size: 0x8, addend: 0x0, symName: _quantize_iq2_xxs, symObjAddr: 0x27B54, symBinAddr: 0x85524, symSize: 0x27F4 }
  - { offset: 0x2497E4, size: 0x8, addend: 0x0, symName: _quantize_iq2_xs, symObjAddr: 0x2A348, symBinAddr: 0x87D18, symSize: 0x1D8C }
  - { offset: 0x2497F8, size: 0x8, addend: 0x0, symName: _iq2_find_best_neighbour, symObjAddr: 0x36B8C, symBinAddr: 0x9455C, symSize: 0x1E0 }
  - { offset: 0x2498F8, size: 0x8, addend: 0x0, symName: _iq1_sort_helper, symObjAddr: 0x36D6C, symBinAddr: 0x9473C, symSize: 0x18 }
  - { offset: 0x249F29, size: 0x8, addend: 0x0, symName: _quantize_iq2_xs, symObjAddr: 0x2A348, symBinAddr: 0x87D18, symSize: 0x1D8C }
  - { offset: 0x24A9EB, size: 0x8, addend: 0x0, symName: _iq3xs_init_impl, symObjAddr: 0x2C0D4, symBinAddr: 0x89AA4, symSize: 0xA98 }
  - { offset: 0x24AA1B, size: 0x8, addend: 0x0, symName: _iq3_compare_func, symObjAddr: 0x2CB6C, symBinAddr: 0x8A53C, symSize: 0x40 }
  - { offset: 0x24AA77, size: 0x8, addend: 0x0, symName: _iq3xs_free_impl, symObjAddr: 0x2CBAC, symBinAddr: 0x8A57C, symSize: 0x90 }
  - { offset: 0x24AAF0, size: 0x8, addend: 0x0, symName: _quantize_iq3_xxs, symObjAddr: 0x2CC3C, symBinAddr: 0x8A60C, symSize: 0xCC }
  - { offset: 0x24AB04, size: 0x8, addend: 0x0, symName: _quantize_iq3_xxs, symObjAddr: 0x2CC3C, symBinAddr: 0x8A60C, symSize: 0xCC }
  - { offset: 0x24ABE5, size: 0x8, addend: 0x0, symName: _quantize_row_iq3_xxs_impl, symObjAddr: 0x2CD08, symBinAddr: 0x8A6D8, symSize: 0x1814 }
  - { offset: 0x24ABF9, size: 0x8, addend: 0x0, symName: _quantize_row_iq3_xxs_impl, symObjAddr: 0x2CD08, symBinAddr: 0x8A6D8, symSize: 0x1814 }
  - { offset: 0x24B960, size: 0x8, addend: 0x0, symName: _quantize_row_iq3_xxs_ref, symObjAddr: 0x2E51C, symBinAddr: 0x8BEEC, symSize: 0x8 }
  - { offset: 0x24BF0C, size: 0x8, addend: 0x0, symName: _quantize_iq3_s, symObjAddr: 0x2E524, symBinAddr: 0x8BEF4, symSize: 0x1A00 }
  - { offset: 0x24C8C2, size: 0x8, addend: 0x0, symName: _quantize_row_iq3_s_ref, symObjAddr: 0x2FF24, symBinAddr: 0x8D8F4, symSize: 0x10 }
  - { offset: 0x24CD40, size: 0x8, addend: 0x0, symName: _quantize_iq1_s, symObjAddr: 0x2FF34, symBinAddr: 0x8D904, symSize: 0x15E0 }
  - { offset: 0x24D4D5, size: 0x8, addend: 0x0, symName: _quantize_iq1_m, symObjAddr: 0x31514, symBinAddr: 0x8EEE4, symSize: 0x1700 }
  - { offset: 0x24D4E9, size: 0x8, addend: 0x0, symName: _iq1_find_best_neighbour2, symObjAddr: 0x36D84, symBinAddr: 0x94754, symSize: 0x5A4 }
  - { offset: 0x24DD45, size: 0x8, addend: 0x0, symName: _quantize_iq1_m, symObjAddr: 0x31514, symBinAddr: 0x8EEE4, symSize: 0x1700 }
  - { offset: 0x24E565, size: 0x8, addend: 0x0, symName: _quantize_iq4_nl, symObjAddr: 0x32C14, symBinAddr: 0x905E4, symSize: 0x20C }
  - { offset: 0x24E74E, size: 0x8, addend: 0x0, symName: _quantize_row_iq4_nl_impl, symObjAddr: 0x32E20, symBinAddr: 0x907F0, symSize: 0xE48 }
  - { offset: 0x24F052, size: 0x8, addend: 0x0, symName: _quantize_row_iq4_nl_ref, symObjAddr: 0x33C68, symBinAddr: 0x91638, symSize: 0x104 }
  - { offset: 0x24F190, size: 0x8, addend: 0x0, symName: _quantize_iq4_xs, symObjAddr: 0x33D6C, symBinAddr: 0x9173C, symSize: 0x220 }
  - { offset: 0x24F3C5, size: 0x8, addend: 0x0, symName: _quantize_row_iq4_xs_ref, symObjAddr: 0x33F8C, symBinAddr: 0x9195C, symSize: 0x118 }
  - { offset: 0x24F997, size: 0x8, addend: 0x0, symName: _quantize_iq2_s, symObjAddr: 0x340A4, symBinAddr: 0x91A74, symSize: 0x1A8C }
  - { offset: 0x250430, size: 0x8, addend: 0x0, symName: _quantize_row_iq2_s_ref, symObjAddr: 0x35B30, symBinAddr: 0x93500, symSize: 0x10 }
  - { offset: 0x250444, size: 0x8, addend: 0x0, symName: _quantize_row_iq2_s_ref, symObjAddr: 0x35B30, symBinAddr: 0x93500, symSize: 0x10 }
  - { offset: 0x25058B, size: 0x8, addend: 0x0, symName: _ggml_validate_row_data, symObjAddr: 0x35B40, symBinAddr: 0x93510, symSize: 0x104C }
  - { offset: 0x251A89, size: 0x8, addend: 0x0, symName: _iq1_sort_helper, symObjAddr: 0x36D6C, symBinAddr: 0x9473C, symSize: 0x18 }
  - { offset: 0x251D9C, size: 0x8, addend: 0x0, symName: _ggml_critical_section_mutex, symObjAddr: 0x38, symBinAddr: 0x198320, symSize: 0x0 }
  - { offset: 0x252A91, size: 0x8, addend: 0x0, symName: _ggml_critical_section_start, symObjAddr: 0x0, symBinAddr: 0x94CF8, symSize: 0xC }
  - { offset: 0x252AA7, size: 0x8, addend: 0x0, symName: _ggml_critical_section_end, symObjAddr: 0xC, symBinAddr: 0x94D04, symSize: 0xC }
  - { offset: 0x252AC4, size: 0x8, addend: 0x0, symName: __GLOBAL__sub_I_ggml_threading.cpp, symObjAddr: 0x18, symBinAddr: 0x94D10, symSize: 0x1C }
  - { offset: 0x252ADC, size: 0x8, addend: 0x0, symName: __GLOBAL__sub_I_ggml_threading.cpp, symObjAddr: 0x18, symBinAddr: 0x94D10, symSize: 0x1C }
  - { offset: 0x2549FE, size: 0x8, addend: 0x0, symName: _ggml_graph_next_uid, symObjAddr: 0x0, symBinAddr: 0x94D2C, symSize: 0x14 }
  - { offset: 0x254A0C, size: 0x8, addend: 0x0, symName: _ggml_graph_next_uid, symObjAddr: 0x0, symBinAddr: 0x94D2C, symSize: 0x14 }
  - { offset: 0x254A32, size: 0x8, addend: 0x0, symName: _ggml_graph_next_uid.counter, symObjAddr: 0x16460, symBinAddr: 0x198360, symSize: 0x0 }
  - { offset: 0x254AC4, size: 0x8, addend: 0x0, symName: _ggml_init, symObjAddr: 0x17A0, symBinAddr: 0x964CC, symSize: 0x1C8 }
  - { offset: 0x254AEC, size: 0x8, addend: 0x0, symName: _ggml_init.is_first_call, symObjAddr: 0x92EF0, symBinAddr: 0x22E840, symSize: 0x0 }
  - { offset: 0x254C51, size: 0x8, addend: 0x0, symName: _ggml_reset, symObjAddr: 0x1968, symBinAddr: 0x96694, symSize: 0x14 }
  - { offset: 0x254C88, size: 0x8, addend: 0x0, symName: _ggml_hash_size, symObjAddr: 0x109C8, symBinAddr: 0xA56F4, symSize: 0x48 }
  - { offset: 0x254CA9, size: 0x8, addend: 0x0, symName: _ggml_hash_size.primes, symObjAddr: 0x162C0, symBinAddr: 0x1775E0, symSize: 0x0 }
  - { offset: 0x254D1C, size: 0x8, addend: 0x0, symName: _g_abort_callback, symObjAddr: 0x92EE8, symBinAddr: 0x22E838, symSize: 0x0 }
  - { offset: 0x254D55, size: 0x8, addend: 0x0, symName: _type_traits, symObjAddr: 0x19B38, symBinAddr: 0x195960, symSize: 0x0 }
  - { offset: 0x254E8B, size: 0x8, addend: 0x0, symName: _GGML_OP_NAME, symObjAddr: 0x1A468, symBinAddr: 0x196290, symSize: 0x0 }
  - { offset: 0x254EB0, size: 0x8, addend: 0x0, symName: _GGML_OP_SYMBOL, symObjAddr: 0x1A770, symBinAddr: 0x196598, symSize: 0x0 }
  - { offset: 0x254EC7, size: 0x8, addend: 0x0, symName: _GGML_UNARY_OP_NAME, symObjAddr: 0x1AA78, symBinAddr: 0x1968A0, symSize: 0x0 }
  - { offset: 0x254EEC, size: 0x8, addend: 0x0, symName: _GGML_GLU_OP_NAME, symObjAddr: 0x1AB28, symBinAddr: 0x196950, symSize: 0x0 }
  - { offset: 0x254F11, size: 0x8, addend: 0x0, symName: _g_logger_state.0, symObjAddr: 0x16468, symBinAddr: 0x198368, symSize: 0x0 }
  - { offset: 0x254F1C, size: 0x8, addend: 0x0, symName: _g_logger_state.1, symObjAddr: 0x92EF8, symBinAddr: 0x22E848, symSize: 0x0 }
  - { offset: 0x25594E, size: 0x8, addend: 0x0, symName: _ggml_print_backtrace, symObjAddr: 0x14, symBinAddr: 0x94D40, symSize: 0x1FC }
  - { offset: 0x255AA9, size: 0x8, addend: 0x0, symName: _ggml_print_backtrace_symbols, symObjAddr: 0x210, symBinAddr: 0x94F3C, symSize: 0x74 }
  - { offset: 0x255B96, size: 0x8, addend: 0x0, symName: _ggml_print_backtrace_symbols, symObjAddr: 0x210, symBinAddr: 0x94F3C, symSize: 0x74 }
  - { offset: 0x255C07, size: 0x8, addend: 0x0, symName: _ggml_set_abort_callback, symObjAddr: 0x284, symBinAddr: 0x94FB0, symSize: 0x14 }
  - { offset: 0x255C42, size: 0x8, addend: 0x0, symName: _ggml_abort, symObjAddr: 0x298, symBinAddr: 0x94FC4, symSize: 0xBC }
  - { offset: 0x255D0A, size: 0x8, addend: 0x0, symName: _ggml_log_internal, symObjAddr: 0x354, symBinAddr: 0x95080, symSize: 0x118 }
  - { offset: 0x255FEF, size: 0x8, addend: 0x0, symName: _ggml_log_internal, symObjAddr: 0x354, symBinAddr: 0x95080, symSize: 0x118 }
  - { offset: 0x25612C, size: 0x8, addend: 0x0, symName: _ggml_log_callback_default, symObjAddr: 0x46C, symBinAddr: 0x95198, symSize: 0x30 }
  - { offset: 0x2561B1, size: 0x8, addend: 0x0, symName: _ggml_aligned_malloc, symObjAddr: 0x49C, symBinAddr: 0x951C8, symSize: 0xC8 }
  - { offset: 0x256270, size: 0x8, addend: 0x0, symName: _ggml_aligned_free, symObjAddr: 0x564, symBinAddr: 0x95290, symSize: 0x4 }
  - { offset: 0x256298, size: 0x8, addend: 0x0, symName: _ggml_aligned_free, symObjAddr: 0x564, symBinAddr: 0x95290, symSize: 0x4 }
  - { offset: 0x2562AC, size: 0x8, addend: 0x0, symName: _ggml_status_to_string, symObjAddr: 0x568, symBinAddr: 0x95294, symSize: 0x28 }
  - { offset: 0x2563D6, size: 0x8, addend: 0x0, symName: _ggml_fp16_to_fp32, symObjAddr: 0x590, symBinAddr: 0x952BC, symSize: 0x4C }
  - { offset: 0x2565E0, size: 0x8, addend: 0x0, symName: _ggml_fp32_to_fp16, symObjAddr: 0x5DC, symBinAddr: 0x95308, symSize: 0x78 }
  - { offset: 0x256610, size: 0x8, addend: 0x0, symName: _ggml_fp32_to_fp16, symObjAddr: 0x5DC, symBinAddr: 0x95308, symSize: 0x78 }
  - { offset: 0x256764, size: 0x8, addend: 0x0, symName: _ggml_bf16_to_fp32, symObjAddr: 0x654, symBinAddr: 0x95380, symSize: 0xC }
  - { offset: 0x256792, size: 0x8, addend: 0x0, symName: _ggml_bf16_to_fp32, symObjAddr: 0x654, symBinAddr: 0x95380, symSize: 0xC }
  - { offset: 0x256818, size: 0x8, addend: 0x0, symName: _ggml_fp32_to_bf16, symObjAddr: 0x660, symBinAddr: 0x9538C, symSize: 0x38 }
  - { offset: 0x25687A, size: 0x8, addend: 0x0, symName: _ggml_fp16_to_fp32_row, symObjAddr: 0x698, symBinAddr: 0x953C4, symSize: 0x120 }
  - { offset: 0x2568BE, size: 0x8, addend: 0x0, symName: _ggml_fp16_to_fp32_row, symObjAddr: 0x698, symBinAddr: 0x953C4, symSize: 0x120 }
  - { offset: 0x256994, size: 0x8, addend: 0x0, symName: _ggml_fp32_to_fp16_row, symObjAddr: 0x7B8, symBinAddr: 0x954E4, symSize: 0x1A4 }
  - { offset: 0x256AD5, size: 0x8, addend: 0x0, symName: _ggml_bf16_to_fp32_row, symObjAddr: 0x95C, symBinAddr: 0x95688, symSize: 0xB0 }
  - { offset: 0x256B4E, size: 0x8, addend: 0x0, symName: _ggml_fp32_to_bf16_row_ref, symObjAddr: 0xA0C, symBinAddr: 0x95738, symSize: 0xE4 }
  - { offset: 0x256B7A, size: 0x8, addend: 0x0, symName: _ggml_fp32_to_bf16_row_ref, symObjAddr: 0xA0C, symBinAddr: 0x95738, symSize: 0xE4 }
  - { offset: 0x256BAD, size: 0x8, addend: 0x0, symName: _ggml_fp32_to_bf16_row, symObjAddr: 0xAF0, symBinAddr: 0x9581C, symSize: 0xE4 }
  - { offset: 0x256C1C, size: 0x8, addend: 0x0, symName: _ggml_guid_matches, symObjAddr: 0xBD4, symBinAddr: 0x95900, symSize: 0x18 }
  - { offset: 0x256C58, size: 0x8, addend: 0x0, symName: _ggml_version, symObjAddr: 0xBEC, symBinAddr: 0x95918, symSize: 0xC }
  - { offset: 0x256C73, size: 0x8, addend: 0x0, symName: _ggml_commit, symObjAddr: 0xBF8, symBinAddr: 0x95924, symSize: 0xC }
  - { offset: 0x256C8E, size: 0x8, addend: 0x0, symName: _ggml_time_init, symObjAddr: 0xC04, symBinAddr: 0x95930, symSize: 0x4 }
  - { offset: 0x256CA5, size: 0x8, addend: 0x0, symName: _ggml_time_ms, symObjAddr: 0xC08, symBinAddr: 0x95934, symSize: 0x50 }
  - { offset: 0x256D4F, size: 0x8, addend: 0x0, symName: _ggml_time_us, symObjAddr: 0xC58, symBinAddr: 0x95984, symSize: 0x54 }
  - { offset: 0x256D97, size: 0x8, addend: 0x0, symName: _ggml_cycles, symObjAddr: 0xCAC, symBinAddr: 0x959D8, symSize: 0x4 }
  - { offset: 0x256DB6, size: 0x8, addend: 0x0, symName: _ggml_cycles, symObjAddr: 0xCAC, symBinAddr: 0x959D8, symSize: 0x4 }
  - { offset: 0x256DD1, size: 0x8, addend: 0x0, symName: _ggml_cycles_per_ms, symObjAddr: 0xCB0, symBinAddr: 0x959DC, symSize: 0x8 }
  - { offset: 0x256DEC, size: 0x8, addend: 0x0, symName: _ggml_fopen, symObjAddr: 0xCB8, symBinAddr: 0x959E4, symSize: 0x4 }
  - { offset: 0x256E14, size: 0x8, addend: 0x0, symName: _ggml_fopen, symObjAddr: 0xCB8, symBinAddr: 0x959E4, symSize: 0x4 }
  - { offset: 0x256E4D, size: 0x8, addend: 0x0, symName: _ggml_get_type_traits, symObjAddr: 0xCBC, symBinAddr: 0x959E8, symSize: 0x14 }
  - { offset: 0x256E7A, size: 0x8, addend: 0x0, symName: _ggml_print_object, symObjAddr: 0xCD0, symBinAddr: 0x959FC, symSize: 0x40 }
  - { offset: 0x256ED2, size: 0x8, addend: 0x0, symName: _ggml_print_objects, symObjAddr: 0xD10, symBinAddr: 0x95A3C, symSize: 0x94 }
  - { offset: 0x256F71, size: 0x8, addend: 0x0, symName: _ggml_nelements, symObjAddr: 0xDA4, symBinAddr: 0x95AD0, symSize: 0x18 }
  - { offset: 0x256F90, size: 0x8, addend: 0x0, symName: _ggml_nrows, symObjAddr: 0xDBC, symBinAddr: 0x95AE8, symSize: 0x14 }
  - { offset: 0x256FF5, size: 0x8, addend: 0x0, symName: _ggml_nbytes, symObjAddr: 0xDD0, symBinAddr: 0x95AFC, symSize: 0xB8 }
  - { offset: 0x257027, size: 0x8, addend: 0x0, symName: _ggml_nbytes, symObjAddr: 0xDD0, symBinAddr: 0x95AFC, symSize: 0xB8 }
  - { offset: 0x257086, size: 0x8, addend: 0x0, symName: _ggml_blck_size, symObjAddr: 0xE88, symBinAddr: 0x95BB4, symSize: 0x18 }
  - { offset: 0x2570A5, size: 0x8, addend: 0x0, symName: _ggml_type_size, symObjAddr: 0xEA0, symBinAddr: 0x95BCC, symSize: 0x18 }
  - { offset: 0x257136, size: 0x8, addend: 0x0, symName: _ggml_nbytes_pad, symObjAddr: 0xEB8, symBinAddr: 0x95BE4, symSize: 0xAC }
  - { offset: 0x25718E, size: 0x8, addend: 0x0, symName: _ggml_nbytes_pad, symObjAddr: 0xEB8, symBinAddr: 0x95BE4, symSize: 0xAC }
  - { offset: 0x2571EB, size: 0x8, addend: 0x0, symName: _ggml_row_size, symObjAddr: 0xF64, symBinAddr: 0x95C90, symSize: 0x24 }
  - { offset: 0x257215, size: 0x8, addend: 0x0, symName: _ggml_row_size, symObjAddr: 0xF64, symBinAddr: 0x95C90, symSize: 0x24 }
  - { offset: 0x257247, size: 0x8, addend: 0x0, symName: _ggml_type_sizef, symObjAddr: 0xF88, symBinAddr: 0x95CB4, symSize: 0x28 }
  - { offset: 0x257272, size: 0x8, addend: 0x0, symName: _ggml_type_name, symObjAddr: 0xFB0, symBinAddr: 0x95CDC, symSize: 0x18 }
  - { offset: 0x257291, size: 0x8, addend: 0x0, symName: _ggml_is_quantized, symObjAddr: 0xFC8, symBinAddr: 0x95CF4, symSize: 0x18 }
  - { offset: 0x2572B0, size: 0x8, addend: 0x0, symName: _ggml_op_name, symObjAddr: 0xFE0, symBinAddr: 0x95D0C, symSize: 0x10 }
  - { offset: 0x2572CF, size: 0x8, addend: 0x0, symName: _ggml_op_symbol, symObjAddr: 0xFF0, symBinAddr: 0x95D1C, symSize: 0x10 }
  - { offset: 0x2572EE, size: 0x8, addend: 0x0, symName: _ggml_unary_op_name, symObjAddr: 0x1000, symBinAddr: 0x95D2C, symSize: 0x10 }
  - { offset: 0x25730D, size: 0x8, addend: 0x0, symName: _ggml_glu_op_name, symObjAddr: 0x1010, symBinAddr: 0x95D3C, symSize: 0x10 }
  - { offset: 0x2573DE, size: 0x8, addend: 0x0, symName: _ggml_op_desc, symObjAddr: 0x1020, symBinAddr: 0x95D4C, symSize: 0x58 }
  - { offset: 0x25750F, size: 0x8, addend: 0x0, symName: _ggml_get_unary_op, symObjAddr: 0x1078, symBinAddr: 0x95DA4, symSize: 0x44 }
  - { offset: 0x257557, size: 0x8, addend: 0x0, symName: _ggml_get_glu_op, symObjAddr: 0x10BC, symBinAddr: 0x95DE8, symSize: 0x44 }
  - { offset: 0x25756B, size: 0x8, addend: 0x0, symName: _ggml_get_glu_op, symObjAddr: 0x10BC, symBinAddr: 0x95DE8, symSize: 0x44 }
  - { offset: 0x2575B3, size: 0x8, addend: 0x0, symName: _ggml_element_size, symObjAddr: 0x1100, symBinAddr: 0x95E2C, symSize: 0x1C }
  - { offset: 0x2575C7, size: 0x8, addend: 0x0, symName: _ggml_element_size, symObjAddr: 0x1100, symBinAddr: 0x95E2C, symSize: 0x1C }
  - { offset: 0x2575FC, size: 0x8, addend: 0x0, symName: _ggml_is_scalar, symObjAddr: 0x111C, symBinAddr: 0x95E48, symSize: 0x3C }
  - { offset: 0x25761B, size: 0x8, addend: 0x0, symName: _ggml_is_vector, symObjAddr: 0x1158, symBinAddr: 0x95E84, symSize: 0x30 }
  - { offset: 0x25763A, size: 0x8, addend: 0x0, symName: _ggml_is_matrix, symObjAddr: 0x1188, symBinAddr: 0x95EB4, symSize: 0x24 }
  - { offset: 0x257659, size: 0x8, addend: 0x0, symName: _ggml_is_3d, symObjAddr: 0x11AC, symBinAddr: 0x95ED8, symSize: 0x10 }
  - { offset: 0x257678, size: 0x8, addend: 0x0, symName: _ggml_n_dims, symObjAddr: 0x11BC, symBinAddr: 0x95EE8, symSize: 0x3C }
  - { offset: 0x2576BD, size: 0x8, addend: 0x0, symName: _ggml_ftype_to_ggml_type, symObjAddr: 0x11F8, symBinAddr: 0x95F24, symSize: 0x58 }
  - { offset: 0x2576FE, size: 0x8, addend: 0x0, symName: _ggml_tensor_overhead, symObjAddr: 0x1250, symBinAddr: 0x95F7C, symSize: 0x8 }
  - { offset: 0x257712, size: 0x8, addend: 0x0, symName: _ggml_tensor_overhead, symObjAddr: 0x1250, symBinAddr: 0x95F7C, symSize: 0x8 }
  - { offset: 0x25772D, size: 0x8, addend: 0x0, symName: _ggml_is_transposed, symObjAddr: 0x1258, symBinAddr: 0x95F84, symSize: 0x10 }
  - { offset: 0x2577AE, size: 0x8, addend: 0x0, symName: _ggml_is_contiguous, symObjAddr: 0x1268, symBinAddr: 0x95F94, symSize: 0x9C }
  - { offset: 0x2577D0, size: 0x8, addend: 0x0, symName: _ggml_is_contiguous, symObjAddr: 0x1268, symBinAddr: 0x95F94, symSize: 0x9C }
  - { offset: 0x2577EE, size: 0x8, addend: 0x0, symName: _ggml_is_contiguous, symObjAddr: 0x1268, symBinAddr: 0x95F94, symSize: 0x9C }
  - { offset: 0x257861, size: 0x8, addend: 0x0, symName: _ggml_is_contiguous_0, symObjAddr: 0x1304, symBinAddr: 0x96030, symSize: 0x9C }
  - { offset: 0x257883, size: 0x8, addend: 0x0, symName: _ggml_is_contiguous_0, symObjAddr: 0x1304, symBinAddr: 0x96030, symSize: 0x9C }
  - { offset: 0x2578F5, size: 0x8, addend: 0x0, symName: _ggml_is_contiguous_1, symObjAddr: 0x13A0, symBinAddr: 0x960CC, symSize: 0x88 }
  - { offset: 0x257917, size: 0x8, addend: 0x0, symName: _ggml_is_contiguous_1, symObjAddr: 0x13A0, symBinAddr: 0x960CC, symSize: 0x88 }
  - { offset: 0x257989, size: 0x8, addend: 0x0, symName: _ggml_is_contiguous_2, symObjAddr: 0x1428, symBinAddr: 0x96154, symSize: 0x6C }
  - { offset: 0x2579B9, size: 0x8, addend: 0x0, symName: _ggml_is_contiguous_2, symObjAddr: 0x1428, symBinAddr: 0x96154, symSize: 0x6C }
  - { offset: 0x257A44, size: 0x8, addend: 0x0, symName: _ggml_is_contiguously_allocated, symObjAddr: 0x1494, symBinAddr: 0x961C0, symSize: 0xCC }
  - { offset: 0x257A9C, size: 0x8, addend: 0x0, symName: _ggml_is_contiguously_allocated, symObjAddr: 0x1494, symBinAddr: 0x961C0, symSize: 0xCC }
  - { offset: 0x257B44, size: 0x8, addend: 0x0, symName: _ggml_is_permuted, symObjAddr: 0x1560, symBinAddr: 0x9628C, symSize: 0x38 }
  - { offset: 0x257B71, size: 0x8, addend: 0x0, symName: _ggml_is_contiguous_channels, symObjAddr: 0x1598, symBinAddr: 0x962C4, symSize: 0x48 }
  - { offset: 0x257BA6, size: 0x8, addend: 0x0, symName: _ggml_is_contiguous_rows, symObjAddr: 0x15E0, symBinAddr: 0x9630C, symSize: 0x48 }
  - { offset: 0x257BF1, size: 0x8, addend: 0x0, symName: _ggml_is_empty, symObjAddr: 0x1628, symBinAddr: 0x96354, symSize: 0x30 }
  - { offset: 0x257C0F, size: 0x8, addend: 0x0, symName: _ggml_is_empty, symObjAddr: 0x1628, symBinAddr: 0x96354, symSize: 0x30 }
  - { offset: 0x257C29, size: 0x8, addend: 0x0, symName: _ggml_are_same_shape, symObjAddr: 0x1658, symBinAddr: 0x96384, symSize: 0x4C }
  - { offset: 0x257C50, size: 0x8, addend: 0x0, symName: _ggml_are_same_stride, symObjAddr: 0x16A4, symBinAddr: 0x963D0, symSize: 0x4C }
  - { offset: 0x257CA6, size: 0x8, addend: 0x0, symName: _ggml_is_view, symObjAddr: 0x16F0, symBinAddr: 0x9641C, symSize: 0x10 }
  - { offset: 0x257D15, size: 0x8, addend: 0x0, symName: _ggml_can_repeat, symObjAddr: 0x1700, symBinAddr: 0x9642C, symSize: 0xA0 }
  - { offset: 0x257D3F, size: 0x8, addend: 0x0, symName: _ggml_can_repeat, symObjAddr: 0x1700, symBinAddr: 0x9642C, symSize: 0xA0 }
  - { offset: 0x257D59, size: 0x8, addend: 0x0, symName: _ggml_can_repeat, symObjAddr: 0x1700, symBinAddr: 0x9642C, symSize: 0xA0 }
  - { offset: 0x257E51, size: 0x8, addend: 0x0, symName: _ggml_reset, symObjAddr: 0x1968, symBinAddr: 0x96694, symSize: 0x14 }
  - { offset: 0x257E9D, size: 0x8, addend: 0x0, symName: _ggml_free, symObjAddr: 0x197C, symBinAddr: 0x966A8, symSize: 0x40 }
  - { offset: 0x257F03, size: 0x8, addend: 0x0, symName: _ggml_used_mem, symObjAddr: 0x19BC, symBinAddr: 0x966E8, symSize: 0x1C }
  - { offset: 0x257F30, size: 0x8, addend: 0x0, symName: _ggml_get_no_alloc, symObjAddr: 0x19D8, symBinAddr: 0x96704, symSize: 0x8 }
  - { offset: 0x257F5D, size: 0x8, addend: 0x0, symName: _ggml_set_no_alloc, symObjAddr: 0x19E0, symBinAddr: 0x9670C, symSize: 0x8 }
  - { offset: 0x257F91, size: 0x8, addend: 0x0, symName: _ggml_get_mem_buffer, symObjAddr: 0x19E8, symBinAddr: 0x96714, symSize: 0x8 }
  - { offset: 0x257FBE, size: 0x8, addend: 0x0, symName: _ggml_get_mem_size, symObjAddr: 0x19F0, symBinAddr: 0x9671C, symSize: 0x8 }
  - { offset: 0x2580E3, size: 0x8, addend: 0x0, symName: _ggml_get_max_tensor_size, symObjAddr: 0x19F8, symBinAddr: 0x96724, symSize: 0xFC }
  - { offset: 0x25813B, size: 0x8, addend: 0x0, symName: _ggml_get_max_tensor_size, symObjAddr: 0x19F8, symBinAddr: 0x96724, symSize: 0xFC }
  - { offset: 0x25822F, size: 0x8, addend: 0x0, symName: _ggml_get_first_tensor, symObjAddr: 0x1AF4, symBinAddr: 0x96820, symSize: 0x30 }
  - { offset: 0x258262, size: 0x8, addend: 0x0, symName: _ggml_get_next_tensor, symObjAddr: 0x1B24, symBinAddr: 0x96850, symSize: 0x30 }
  - { offset: 0x25829D, size: 0x8, addend: 0x0, symName: _ggml_new_tensor, symObjAddr: 0x1B54, symBinAddr: 0x96880, symSize: 0xC }
  - { offset: 0x25830D, size: 0x8, addend: 0x0, symName: _ggml_new_tensor_impl, symObjAddr: 0x1B60, symBinAddr: 0x9688C, symSize: 0x3B4 }
  - { offset: 0x2585D2, size: 0x8, addend: 0x0, symName: _ggml_new_tensor_1d, symObjAddr: 0x1F14, symBinAddr: 0x96C40, symSize: 0x30 }
  - { offset: 0x25860F, size: 0x8, addend: 0x0, symName: _ggml_new_object, symObjAddr: 0x2094, symBinAddr: 0x96DC0, symSize: 0x184 }
  - { offset: 0x25872A, size: 0x8, addend: 0x0, symName: _ggml_dup_tensor, symObjAddr: 0x2218, symBinAddr: 0x96F44, symSize: 0x18 }
  - { offset: 0x258793, size: 0x8, addend: 0x0, symName: _ggml_new_tensor_1d, symObjAddr: 0x1F14, symBinAddr: 0x96C40, symSize: 0x30 }
  - { offset: 0x258836, size: 0x8, addend: 0x0, symName: _ggml_new_tensor_2d, symObjAddr: 0x1F44, symBinAddr: 0x96C70, symSize: 0x5C }
  - { offset: 0x2588F0, size: 0x8, addend: 0x0, symName: _ggml_new_tensor_3d, symObjAddr: 0x1FA0, symBinAddr: 0x96CCC, symSize: 0x60 }
  - { offset: 0x2589B2, size: 0x8, addend: 0x0, symName: _ggml_new_tensor_4d, symObjAddr: 0x2000, symBinAddr: 0x96D2C, symSize: 0x60 }
  - { offset: 0x258A80, size: 0x8, addend: 0x0, symName: _ggml_new_buffer, symObjAddr: 0x2060, symBinAddr: 0x96D8C, symSize: 0x34 }
  - { offset: 0x258AF4, size: 0x8, addend: 0x0, symName: _ggml_dup_tensor, symObjAddr: 0x2218, symBinAddr: 0x96F44, symSize: 0x18 }
  - { offset: 0x258B7A, size: 0x8, addend: 0x0, symName: _ggml_unravel_index, symObjAddr: 0x2230, symBinAddr: 0x96F5C, symSize: 0x4C }
  - { offset: 0x258C63, size: 0x8, addend: 0x0, symName: _ggml_get_data, symObjAddr: 0x227C, symBinAddr: 0x96FA8, symSize: 0x8 }
  - { offset: 0x258C90, size: 0x8, addend: 0x0, symName: _ggml_get_data_f32, symObjAddr: 0x2284, symBinAddr: 0x96FB0, symSize: 0x8 }
  - { offset: 0x258CBD, size: 0x8, addend: 0x0, symName: _ggml_get_name, symObjAddr: 0x228C, symBinAddr: 0x96FB8, symSize: 0x8 }
  - { offset: 0x258CDC, size: 0x8, addend: 0x0, symName: _ggml_set_name, symObjAddr: 0x2294, symBinAddr: 0x96FC0, symSize: 0x2C }
  - { offset: 0x258D27, size: 0x8, addend: 0x0, symName: _ggml_format_name, symObjAddr: 0x22C0, symBinAddr: 0x96FEC, symSize: 0x44 }
  - { offset: 0x258D77, size: 0x8, addend: 0x0, symName: _ggml_view_tensor, symObjAddr: 0x2304, symBinAddr: 0x97030, symSize: 0x70 }
  - { offset: 0x258E02, size: 0x8, addend: 0x0, symName: _ggml_get_tensor, symObjAddr: 0x2374, symBinAddr: 0x970A0, symSize: 0x78 }
  - { offset: 0x258F25, size: 0x8, addend: 0x0, symName: _ggml_dup, symObjAddr: 0x23EC, symBinAddr: 0x97118, symSize: 0x40 }
  - { offset: 0x259070, size: 0x8, addend: 0x0, symName: _ggml_dup_inplace, symObjAddr: 0x242C, symBinAddr: 0x97158, symSize: 0x7C }
  - { offset: 0x259175, size: 0x8, addend: 0x0, symName: _ggml_add, symObjAddr: 0x24A8, symBinAddr: 0x971D4, symSize: 0x8 }
  - { offset: 0x2591EB, size: 0x8, addend: 0x0, symName: _ggml_add_impl, symObjAddr: 0x24B0, symBinAddr: 0x971DC, symSize: 0x144 }
  - { offset: 0x2593C7, size: 0x8, addend: 0x0, symName: _ggml_add_inplace, symObjAddr: 0x25F4, symBinAddr: 0x97320, symSize: 0x8 }
  - { offset: 0x259404, size: 0x8, addend: 0x0, symName: _ggml_add_inplace, symObjAddr: 0x25F4, symBinAddr: 0x97320, symSize: 0x8 }
  - { offset: 0x25950F, size: 0x8, addend: 0x0, symName: _ggml_add_cast, symObjAddr: 0x25FC, symBinAddr: 0x97328, symSize: 0x13C }
  - { offset: 0x2596F8, size: 0x8, addend: 0x0, symName: _ggml_add_id, symObjAddr: 0x2738, symBinAddr: 0x97464, symSize: 0x128 }
  - { offset: 0x25970C, size: 0x8, addend: 0x0, symName: _ggml_add_id, symObjAddr: 0x2738, symBinAddr: 0x97464, symSize: 0x128 }
  - { offset: 0x25984B, size: 0x8, addend: 0x0, symName: _ggml_add1, symObjAddr: 0x2860, symBinAddr: 0x9758C, symSize: 0x8 }
  - { offset: 0x25985F, size: 0x8, addend: 0x0, symName: _ggml_add1, symObjAddr: 0x2860, symBinAddr: 0x9758C, symSize: 0x8 }
  - { offset: 0x2598D5, size: 0x8, addend: 0x0, symName: _ggml_add1_impl, symObjAddr: 0x2868, symBinAddr: 0x97594, symSize: 0x15C }
  - { offset: 0x259ABF, size: 0x8, addend: 0x0, symName: _ggml_add1_inplace, symObjAddr: 0x29C4, symBinAddr: 0x976F0, symSize: 0x8 }
  - { offset: 0x259B0B, size: 0x8, addend: 0x0, symName: _ggml_add1_inplace, symObjAddr: 0x29C4, symBinAddr: 0x976F0, symSize: 0x8 }
  - { offset: 0x259B81, size: 0x8, addend: 0x0, symName: _ggml_acc, symObjAddr: 0x29CC, symBinAddr: 0x976F8, symSize: 0x8 }
  - { offset: 0x259C53, size: 0x8, addend: 0x0, symName: _ggml_acc_impl, symObjAddr: 0x29D4, symBinAddr: 0x97700, symSize: 0x23C }
  - { offset: 0x259F6D, size: 0x8, addend: 0x0, symName: _ggml_acc_inplace, symObjAddr: 0x2C10, symBinAddr: 0x9793C, symSize: 0x8 }
  - { offset: 0x259FCB, size: 0x8, addend: 0x0, symName: _ggml_acc_inplace, symObjAddr: 0x2C10, symBinAddr: 0x9793C, symSize: 0x8 }
  - { offset: 0x25A09D, size: 0x8, addend: 0x0, symName: _ggml_sub, symObjAddr: 0x2C18, symBinAddr: 0x97944, symSize: 0x8 }
  - { offset: 0x25A113, size: 0x8, addend: 0x0, symName: _ggml_sub_impl, symObjAddr: 0x2C20, symBinAddr: 0x9794C, symSize: 0x144 }
  - { offset: 0x25A2EF, size: 0x8, addend: 0x0, symName: _ggml_sub_inplace, symObjAddr: 0x2D64, symBinAddr: 0x97A90, symSize: 0x8 }
  - { offset: 0x25A303, size: 0x8, addend: 0x0, symName: _ggml_sub_inplace, symObjAddr: 0x2D64, symBinAddr: 0x97A90, symSize: 0x8 }
  - { offset: 0x25A379, size: 0x8, addend: 0x0, symName: _ggml_mul, symObjAddr: 0x2D6C, symBinAddr: 0x97A98, symSize: 0x8 }
  - { offset: 0x25A3D3, size: 0x8, addend: 0x0, symName: _ggml_mul_impl, symObjAddr: 0x2D74, symBinAddr: 0x97AA0, symSize: 0x144 }
  - { offset: 0x25A5AF, size: 0x8, addend: 0x0, symName: _ggml_mul_inplace, symObjAddr: 0x2EB8, symBinAddr: 0x97BE4, symSize: 0x8 }
  - { offset: 0x25A5C3, size: 0x8, addend: 0x0, symName: _ggml_mul_inplace, symObjAddr: 0x2EB8, symBinAddr: 0x97BE4, symSize: 0x8 }
  - { offset: 0x25A639, size: 0x8, addend: 0x0, symName: _ggml_div, symObjAddr: 0x2EC0, symBinAddr: 0x97BEC, symSize: 0x8 }
  - { offset: 0x25A693, size: 0x8, addend: 0x0, symName: _ggml_div_impl, symObjAddr: 0x2EC8, symBinAddr: 0x97BF4, symSize: 0x144 }
  - { offset: 0x25A86F, size: 0x8, addend: 0x0, symName: _ggml_div_inplace, symObjAddr: 0x300C, symBinAddr: 0x97D38, symSize: 0x8 }
  - { offset: 0x25A883, size: 0x8, addend: 0x0, symName: _ggml_div_inplace, symObjAddr: 0x300C, symBinAddr: 0x97D38, symSize: 0x8 }
  - { offset: 0x25A93C, size: 0x8, addend: 0x0, symName: _ggml_sqr, symObjAddr: 0x3014, symBinAddr: 0x97D40, symSize: 0x40 }
  - { offset: 0x25AA41, size: 0x8, addend: 0x0, symName: _ggml_sqr_inplace, symObjAddr: 0x3054, symBinAddr: 0x97D80, symSize: 0x7C }
  - { offset: 0x25AB89, size: 0x8, addend: 0x0, symName: _ggml_sqrt, symObjAddr: 0x30D0, symBinAddr: 0x97DFC, symSize: 0x40 }
  - { offset: 0x25AC8E, size: 0x8, addend: 0x0, symName: _ggml_sqrt_inplace, symObjAddr: 0x3110, symBinAddr: 0x97E3C, symSize: 0x7C }
  - { offset: 0x25ADD6, size: 0x8, addend: 0x0, symName: _ggml_log, symObjAddr: 0x318C, symBinAddr: 0x97EB8, symSize: 0x40 }
  - { offset: 0x25AEDB, size: 0x8, addend: 0x0, symName: _ggml_log_inplace, symObjAddr: 0x31CC, symBinAddr: 0x97EF8, symSize: 0x7C }
  - { offset: 0x25B082, size: 0x8, addend: 0x0, symName: _ggml_expm1, symObjAddr: 0x3248, symBinAddr: 0x97F74, symSize: 0xA8 }
  - { offset: 0x25B1F1, size: 0x8, addend: 0x0, symName: _ggml_unary, symObjAddr: 0x32F0, symBinAddr: 0x9801C, symSize: 0xA8 }
  - { offset: 0x25B233, size: 0x8, addend: 0x0, symName: _ggml_unary, symObjAddr: 0x32F0, symBinAddr: 0x9801C, symSize: 0xA8 }
  - { offset: 0x25B39E, size: 0x8, addend: 0x0, symName: _ggml_expm1_inplace, symObjAddr: 0x3398, symBinAddr: 0x980C4, symSize: 0xDC }
  - { offset: 0x25B3E8, size: 0x8, addend: 0x0, symName: _ggml_expm1_inplace, symObjAddr: 0x3398, symBinAddr: 0x980C4, symSize: 0xDC }
  - { offset: 0x25B557, size: 0x8, addend: 0x0, symName: _ggml_unary_inplace, symObjAddr: 0x3474, symBinAddr: 0x981A0, symSize: 0xDC }
  - { offset: 0x25B56B, size: 0x8, addend: 0x0, symName: _ggml_unary_inplace, symObjAddr: 0x3474, symBinAddr: 0x981A0, symSize: 0xDC }
  - { offset: 0x25B6D6, size: 0x8, addend: 0x0, symName: _ggml_softplus, symObjAddr: 0x3550, symBinAddr: 0x9827C, symSize: 0xA8 }
  - { offset: 0x25B6EA, size: 0x8, addend: 0x0, symName: _ggml_softplus, symObjAddr: 0x3550, symBinAddr: 0x9827C, symSize: 0xA8 }
  - { offset: 0x25B859, size: 0x8, addend: 0x0, symName: _ggml_softplus_inplace, symObjAddr: 0x35F8, symBinAddr: 0x98324, symSize: 0xDC }
  - { offset: 0x25B86D, size: 0x8, addend: 0x0, symName: _ggml_softplus_inplace, symObjAddr: 0x35F8, symBinAddr: 0x98324, symSize: 0xDC }
  - { offset: 0x25B9DC, size: 0x8, addend: 0x0, symName: _ggml_sin, symObjAddr: 0x36D4, symBinAddr: 0x98400, symSize: 0x40 }
  - { offset: 0x25BA33, size: 0x8, addend: 0x0, symName: _ggml_sin, symObjAddr: 0x36D4, symBinAddr: 0x98400, symSize: 0x40 }
  - { offset: 0x25BB23, size: 0x8, addend: 0x0, symName: _ggml_sin_inplace, symObjAddr: 0x3714, symBinAddr: 0x98440, symSize: 0x7C }
  - { offset: 0x25BC6B, size: 0x8, addend: 0x0, symName: _ggml_cos, symObjAddr: 0x3790, symBinAddr: 0x984BC, symSize: 0x40 }
  - { offset: 0x25BD5B, size: 0x8, addend: 0x0, symName: _ggml_cos_inplace, symObjAddr: 0x37D0, symBinAddr: 0x984FC, symSize: 0x7C }
  - { offset: 0x25BE96, size: 0x8, addend: 0x0, symName: _ggml_sum, symObjAddr: 0x384C, symBinAddr: 0x98578, symSize: 0x50 }
  - { offset: 0x25BF85, size: 0x8, addend: 0x0, symName: _ggml_sum_rows, symObjAddr: 0x389C, symBinAddr: 0x985C8, symSize: 0x8C }
  - { offset: 0x25C070, size: 0x8, addend: 0x0, symName: _ggml_cumsum, symObjAddr: 0x3928, symBinAddr: 0x98654, symSize: 0x74 }
  - { offset: 0x25C13A, size: 0x8, addend: 0x0, symName: _ggml_mean, symObjAddr: 0x399C, symBinAddr: 0x986C8, symSize: 0x8C }
  - { offset: 0x25C14E, size: 0x8, addend: 0x0, symName: _ggml_mean, symObjAddr: 0x399C, symBinAddr: 0x986C8, symSize: 0x8C }
  - { offset: 0x25C215, size: 0x8, addend: 0x0, symName: _ggml_argmax, symObjAddr: 0x3A28, symBinAddr: 0x98754, symSize: 0xC0 }
  - { offset: 0x25C337, size: 0x8, addend: 0x0, symName: _ggml_count_equal, symObjAddr: 0x3AE8, symBinAddr: 0x98814, symSize: 0xB8 }
  - { offset: 0x25C374, size: 0x8, addend: 0x0, symName: _ggml_count_equal, symObjAddr: 0x3AE8, symBinAddr: 0x98814, symSize: 0xB8 }
  - { offset: 0x25C49A, size: 0x8, addend: 0x0, symName: _ggml_repeat, symObjAddr: 0x3BA0, symBinAddr: 0x988CC, symSize: 0xF0 }
  - { offset: 0x25C4AE, size: 0x8, addend: 0x0, symName: _ggml_repeat, symObjAddr: 0x3BA0, symBinAddr: 0x988CC, symSize: 0xF0 }
  - { offset: 0x25C5F3, size: 0x8, addend: 0x0, symName: _ggml_repeat_4d, symObjAddr: 0x3C90, symBinAddr: 0x989BC, symSize: 0xF0 }
  - { offset: 0x25C67F, size: 0x8, addend: 0x0, symName: _ggml_repeat_4d, symObjAddr: 0x3C90, symBinAddr: 0x989BC, symSize: 0xF0 }
  - { offset: 0x25C81A, size: 0x8, addend: 0x0, symName: _ggml_repeat_back, symObjAddr: 0x3D80, symBinAddr: 0x98AAC, symSize: 0xF0 }
  - { offset: 0x25C82E, size: 0x8, addend: 0x0, symName: _ggml_repeat_back, symObjAddr: 0x3D80, symBinAddr: 0x98AAC, symSize: 0xF0 }
  - { offset: 0x25C97D, size: 0x8, addend: 0x0, symName: _ggml_concat, symObjAddr: 0x3E70, symBinAddr: 0x98B9C, symSize: 0x1BC }
  - { offset: 0x25C991, size: 0x8, addend: 0x0, symName: _ggml_concat, symObjAddr: 0x3E70, symBinAddr: 0x98B9C, symSize: 0x1BC }
  - { offset: 0x25CB01, size: 0x8, addend: 0x0, symName: _ggml_abs, symObjAddr: 0x402C, symBinAddr: 0x98D58, symSize: 0xA8 }
  - { offset: 0x25CC70, size: 0x8, addend: 0x0, symName: _ggml_abs_inplace, symObjAddr: 0x40D4, symBinAddr: 0x98E00, symSize: 0xDC }
  - { offset: 0x25CC84, size: 0x8, addend: 0x0, symName: _ggml_abs_inplace, symObjAddr: 0x40D4, symBinAddr: 0x98E00, symSize: 0xDC }
  - { offset: 0x25CDF3, size: 0x8, addend: 0x0, symName: _ggml_sgn, symObjAddr: 0x41B0, symBinAddr: 0x98EDC, symSize: 0xA8 }
  - { offset: 0x25CE07, size: 0x8, addend: 0x0, symName: _ggml_sgn, symObjAddr: 0x41B0, symBinAddr: 0x98EDC, symSize: 0xA8 }
  - { offset: 0x25CF76, size: 0x8, addend: 0x0, symName: _ggml_sgn_inplace, symObjAddr: 0x4258, symBinAddr: 0x98F84, symSize: 0xDC }
  - { offset: 0x25CF8A, size: 0x8, addend: 0x0, symName: _ggml_sgn_inplace, symObjAddr: 0x4258, symBinAddr: 0x98F84, symSize: 0xDC }
  - { offset: 0x25D0F9, size: 0x8, addend: 0x0, symName: _ggml_neg, symObjAddr: 0x4334, symBinAddr: 0x99060, symSize: 0xA8 }
  - { offset: 0x25D10D, size: 0x8, addend: 0x0, symName: _ggml_neg, symObjAddr: 0x4334, symBinAddr: 0x99060, symSize: 0xA8 }
  - { offset: 0x25D267, size: 0x8, addend: 0x0, symName: _ggml_neg_inplace, symObjAddr: 0x43DC, symBinAddr: 0x99108, symSize: 0xDC }
  - { offset: 0x25D27B, size: 0x8, addend: 0x0, symName: _ggml_neg_inplace, symObjAddr: 0x43DC, symBinAddr: 0x99108, symSize: 0xDC }
  - { offset: 0x25D3EA, size: 0x8, addend: 0x0, symName: _ggml_step, symObjAddr: 0x44B8, symBinAddr: 0x991E4, symSize: 0xA8 }
  - { offset: 0x25D3FE, size: 0x8, addend: 0x0, symName: _ggml_step, symObjAddr: 0x44B8, symBinAddr: 0x991E4, symSize: 0xA8 }
  - { offset: 0x25D56D, size: 0x8, addend: 0x0, symName: _ggml_step_inplace, symObjAddr: 0x4560, symBinAddr: 0x9928C, symSize: 0xDC }
  - { offset: 0x25D581, size: 0x8, addend: 0x0, symName: _ggml_step_inplace, symObjAddr: 0x4560, symBinAddr: 0x9928C, symSize: 0xDC }
  - { offset: 0x25D6F0, size: 0x8, addend: 0x0, symName: _ggml_tanh, symObjAddr: 0x463C, symBinAddr: 0x99368, symSize: 0xA8 }
  - { offset: 0x25D704, size: 0x8, addend: 0x0, symName: _ggml_tanh, symObjAddr: 0x463C, symBinAddr: 0x99368, symSize: 0xA8 }
  - { offset: 0x25D873, size: 0x8, addend: 0x0, symName: _ggml_tanh_inplace, symObjAddr: 0x46E4, symBinAddr: 0x99410, symSize: 0xDC }
  - { offset: 0x25D887, size: 0x8, addend: 0x0, symName: _ggml_tanh_inplace, symObjAddr: 0x46E4, symBinAddr: 0x99410, symSize: 0xDC }
  - { offset: 0x25D9F6, size: 0x8, addend: 0x0, symName: _ggml_elu, symObjAddr: 0x47C0, symBinAddr: 0x994EC, symSize: 0xA8 }
  - { offset: 0x25DA0A, size: 0x8, addend: 0x0, symName: _ggml_elu, symObjAddr: 0x47C0, symBinAddr: 0x994EC, symSize: 0xA8 }
  - { offset: 0x25DB79, size: 0x8, addend: 0x0, symName: _ggml_elu_inplace, symObjAddr: 0x4868, symBinAddr: 0x99594, symSize: 0xDC }
  - { offset: 0x25DB8D, size: 0x8, addend: 0x0, symName: _ggml_elu_inplace, symObjAddr: 0x4868, symBinAddr: 0x99594, symSize: 0xDC }
  - { offset: 0x25DCFC, size: 0x8, addend: 0x0, symName: _ggml_relu, symObjAddr: 0x4944, symBinAddr: 0x99670, symSize: 0xA8 }
  - { offset: 0x25DD10, size: 0x8, addend: 0x0, symName: _ggml_relu, symObjAddr: 0x4944, symBinAddr: 0x99670, symSize: 0xA8 }
  - { offset: 0x25DE7F, size: 0x8, addend: 0x0, symName: _ggml_relu_inplace, symObjAddr: 0x49EC, symBinAddr: 0x99718, symSize: 0xDC }
  - { offset: 0x25DE93, size: 0x8, addend: 0x0, symName: _ggml_relu_inplace, symObjAddr: 0x49EC, symBinAddr: 0x99718, symSize: 0xDC }
  - { offset: 0x25E002, size: 0x8, addend: 0x0, symName: _ggml_leaky_relu, symObjAddr: 0x4AC8, symBinAddr: 0x997F4, symSize: 0xCC }
  - { offset: 0x25E016, size: 0x8, addend: 0x0, symName: _ggml_leaky_relu, symObjAddr: 0x4AC8, symBinAddr: 0x997F4, symSize: 0xCC }
  - { offset: 0x25E1A7, size: 0x8, addend: 0x0, symName: _ggml_sigmoid, symObjAddr: 0x4B94, symBinAddr: 0x998C0, symSize: 0xA8 }
  - { offset: 0x25E1BB, size: 0x8, addend: 0x0, symName: _ggml_sigmoid, symObjAddr: 0x4B94, symBinAddr: 0x998C0, symSize: 0xA8 }
  - { offset: 0x25E32A, size: 0x8, addend: 0x0, symName: _ggml_sigmoid_inplace, symObjAddr: 0x4C3C, symBinAddr: 0x99968, symSize: 0xDC }
  - { offset: 0x25E33E, size: 0x8, addend: 0x0, symName: _ggml_sigmoid_inplace, symObjAddr: 0x4C3C, symBinAddr: 0x99968, symSize: 0xDC }
  - { offset: 0x25E4AD, size: 0x8, addend: 0x0, symName: _ggml_gelu, symObjAddr: 0x4D18, symBinAddr: 0x99A44, symSize: 0xA8 }
  - { offset: 0x25E4C1, size: 0x8, addend: 0x0, symName: _ggml_gelu, symObjAddr: 0x4D18, symBinAddr: 0x99A44, symSize: 0xA8 }
  - { offset: 0x25E630, size: 0x8, addend: 0x0, symName: _ggml_gelu_inplace, symObjAddr: 0x4DC0, symBinAddr: 0x99AEC, symSize: 0xDC }
  - { offset: 0x25E644, size: 0x8, addend: 0x0, symName: _ggml_gelu_inplace, symObjAddr: 0x4DC0, symBinAddr: 0x99AEC, symSize: 0xDC }
  - { offset: 0x25E7B3, size: 0x8, addend: 0x0, symName: _ggml_gelu_erf, symObjAddr: 0x4E9C, symBinAddr: 0x99BC8, symSize: 0xA8 }
  - { offset: 0x25E7C7, size: 0x8, addend: 0x0, symName: _ggml_gelu_erf, symObjAddr: 0x4E9C, symBinAddr: 0x99BC8, symSize: 0xA8 }
  - { offset: 0x25E936, size: 0x8, addend: 0x0, symName: _ggml_gelu_erf_inplace, symObjAddr: 0x4F44, symBinAddr: 0x99C70, symSize: 0xDC }
  - { offset: 0x25E94A, size: 0x8, addend: 0x0, symName: _ggml_gelu_erf_inplace, symObjAddr: 0x4F44, symBinAddr: 0x99C70, symSize: 0xDC }
  - { offset: 0x25EAB9, size: 0x8, addend: 0x0, symName: _ggml_gelu_quick, symObjAddr: 0x5020, symBinAddr: 0x99D4C, symSize: 0xA8 }
  - { offset: 0x25EACD, size: 0x8, addend: 0x0, symName: _ggml_gelu_quick, symObjAddr: 0x5020, symBinAddr: 0x99D4C, symSize: 0xA8 }
  - { offset: 0x25EC3C, size: 0x8, addend: 0x0, symName: _ggml_gelu_quick_inplace, symObjAddr: 0x50C8, symBinAddr: 0x99DF4, symSize: 0xDC }
  - { offset: 0x25EC50, size: 0x8, addend: 0x0, symName: _ggml_gelu_quick_inplace, symObjAddr: 0x50C8, symBinAddr: 0x99DF4, symSize: 0xDC }
  - { offset: 0x25EDBF, size: 0x8, addend: 0x0, symName: _ggml_silu, symObjAddr: 0x51A4, symBinAddr: 0x99ED0, symSize: 0xA8 }
  - { offset: 0x25EDD3, size: 0x8, addend: 0x0, symName: _ggml_silu, symObjAddr: 0x51A4, symBinAddr: 0x99ED0, symSize: 0xA8 }
  - { offset: 0x25EF2D, size: 0x8, addend: 0x0, symName: _ggml_silu_inplace, symObjAddr: 0x524C, symBinAddr: 0x99F78, symSize: 0xDC }
  - { offset: 0x25EF41, size: 0x8, addend: 0x0, symName: _ggml_silu_inplace, symObjAddr: 0x524C, symBinAddr: 0x99F78, symSize: 0xDC }
  - { offset: 0x25F0B0, size: 0x8, addend: 0x0, symName: _ggml_xielu, symObjAddr: 0x5328, symBinAddr: 0x9A054, symSize: 0xC0 }
  - { offset: 0x25F10C, size: 0x8, addend: 0x0, symName: _ggml_xielu, symObjAddr: 0x5328, symBinAddr: 0x9A054, symSize: 0xC0 }
  - { offset: 0x25F328, size: 0x8, addend: 0x0, symName: _ggml_silu_back, symObjAddr: 0x53E8, symBinAddr: 0x9A114, symSize: 0x44 }
  - { offset: 0x25F3F0, size: 0x8, addend: 0x0, symName: _ggml_hardswish, symObjAddr: 0x542C, symBinAddr: 0x9A158, symSize: 0xA8 }
  - { offset: 0x25F55F, size: 0x8, addend: 0x0, symName: _ggml_hardsigmoid, symObjAddr: 0x54D4, symBinAddr: 0x9A200, symSize: 0xA8 }
  - { offset: 0x25F573, size: 0x8, addend: 0x0, symName: _ggml_hardsigmoid, symObjAddr: 0x54D4, symBinAddr: 0x9A200, symSize: 0xA8 }
  - { offset: 0x25F6E2, size: 0x8, addend: 0x0, symName: _ggml_exp, symObjAddr: 0x557C, symBinAddr: 0x9A2A8, symSize: 0xA8 }
  - { offset: 0x25F6F6, size: 0x8, addend: 0x0, symName: _ggml_exp, symObjAddr: 0x557C, symBinAddr: 0x9A2A8, symSize: 0xA8 }
  - { offset: 0x25F865, size: 0x8, addend: 0x0, symName: _ggml_exp_inplace, symObjAddr: 0x5624, symBinAddr: 0x9A350, symSize: 0xDC }
  - { offset: 0x25F879, size: 0x8, addend: 0x0, symName: _ggml_exp_inplace, symObjAddr: 0x5624, symBinAddr: 0x9A350, symSize: 0xDC }
  - { offset: 0x25F9E8, size: 0x8, addend: 0x0, symName: _ggml_floor, symObjAddr: 0x5700, symBinAddr: 0x9A42C, symSize: 0xA8 }
  - { offset: 0x25F9FC, size: 0x8, addend: 0x0, symName: _ggml_floor, symObjAddr: 0x5700, symBinAddr: 0x9A42C, symSize: 0xA8 }
  - { offset: 0x25FB6B, size: 0x8, addend: 0x0, symName: _ggml_floor_inplace, symObjAddr: 0x57A8, symBinAddr: 0x9A4D4, symSize: 0xDC }
  - { offset: 0x25FB7F, size: 0x8, addend: 0x0, symName: _ggml_floor_inplace, symObjAddr: 0x57A8, symBinAddr: 0x9A4D4, symSize: 0xDC }
  - { offset: 0x25FCEE, size: 0x8, addend: 0x0, symName: _ggml_ceil, symObjAddr: 0x5884, symBinAddr: 0x9A5B0, symSize: 0xA8 }
  - { offset: 0x25FD02, size: 0x8, addend: 0x0, symName: _ggml_ceil, symObjAddr: 0x5884, symBinAddr: 0x9A5B0, symSize: 0xA8 }
  - { offset: 0x25FE71, size: 0x8, addend: 0x0, symName: _ggml_ceil_inplace, symObjAddr: 0x592C, symBinAddr: 0x9A658, symSize: 0xDC }
  - { offset: 0x25FE85, size: 0x8, addend: 0x0, symName: _ggml_ceil_inplace, symObjAddr: 0x592C, symBinAddr: 0x9A658, symSize: 0xDC }
  - { offset: 0x25FFF4, size: 0x8, addend: 0x0, symName: _ggml_round, symObjAddr: 0x5A08, symBinAddr: 0x9A734, symSize: 0xA8 }
  - { offset: 0x260008, size: 0x8, addend: 0x0, symName: _ggml_round, symObjAddr: 0x5A08, symBinAddr: 0x9A734, symSize: 0xA8 }
  - { offset: 0x260177, size: 0x8, addend: 0x0, symName: _ggml_round_inplace, symObjAddr: 0x5AB0, symBinAddr: 0x9A7DC, symSize: 0xDC }
  - { offset: 0x26018B, size: 0x8, addend: 0x0, symName: _ggml_round_inplace, symObjAddr: 0x5AB0, symBinAddr: 0x9A7DC, symSize: 0xDC }
  - { offset: 0x2602FA, size: 0x8, addend: 0x0, symName: _ggml_trunc, symObjAddr: 0x5B8C, symBinAddr: 0x9A8B8, symSize: 0xA8 }
  - { offset: 0x26030E, size: 0x8, addend: 0x0, symName: _ggml_trunc, symObjAddr: 0x5B8C, symBinAddr: 0x9A8B8, symSize: 0xA8 }
  - { offset: 0x26047D, size: 0x8, addend: 0x0, symName: _ggml_trunc_inplace, symObjAddr: 0x5C34, symBinAddr: 0x9A960, symSize: 0xDC }
  - { offset: 0x260491, size: 0x8, addend: 0x0, symName: _ggml_trunc_inplace, symObjAddr: 0x5C34, symBinAddr: 0x9A960, symSize: 0xDC }
  - { offset: 0x260600, size: 0x8, addend: 0x0, symName: _ggml_glu, symObjAddr: 0x5D10, symBinAddr: 0x9AA3C, symSize: 0x144 }
  - { offset: 0x2606AA, size: 0x8, addend: 0x0, symName: _ggml_glu, symObjAddr: 0x5D10, symBinAddr: 0x9AA3C, symSize: 0x144 }
  - { offset: 0x26084B, size: 0x8, addend: 0x0, symName: _ggml_glu_impl, symObjAddr: 0x5E54, symBinAddr: 0x9AB80, symSize: 0x254 }
  - { offset: 0x260A95, size: 0x8, addend: 0x0, symName: _ggml_glu_split, symObjAddr: 0x60A8, symBinAddr: 0x9ADD4, symSize: 0x8 }
  - { offset: 0x260AA9, size: 0x8, addend: 0x0, symName: _ggml_glu_split, symObjAddr: 0x60A8, symBinAddr: 0x9ADD4, symSize: 0x8 }
  - { offset: 0x260B36, size: 0x8, addend: 0x0, symName: _ggml_reglu, symObjAddr: 0x60B0, symBinAddr: 0x9ADDC, symSize: 0x138 }
  - { offset: 0x260CD7, size: 0x8, addend: 0x0, symName: _ggml_reglu_swapped, symObjAddr: 0x61E8, symBinAddr: 0x9AF14, symSize: 0x13C }
  - { offset: 0x260E78, size: 0x8, addend: 0x0, symName: _ggml_reglu_split, symObjAddr: 0x6324, symBinAddr: 0x9B050, symSize: 0xC }
  - { offset: 0x260EF4, size: 0x8, addend: 0x0, symName: _ggml_geglu, symObjAddr: 0x6330, symBinAddr: 0x9B05C, symSize: 0x138 }
  - { offset: 0x261095, size: 0x8, addend: 0x0, symName: _ggml_geglu_swapped, symObjAddr: 0x6468, symBinAddr: 0x9B194, symSize: 0x13C }
  - { offset: 0x261236, size: 0x8, addend: 0x0, symName: _ggml_geglu_split, symObjAddr: 0x65A4, symBinAddr: 0x9B2D0, symSize: 0xC }
  - { offset: 0x2612B2, size: 0x8, addend: 0x0, symName: _ggml_swiglu, symObjAddr: 0x65B0, symBinAddr: 0x9B2DC, symSize: 0x138 }
  - { offset: 0x261453, size: 0x8, addend: 0x0, symName: _ggml_swiglu_swapped, symObjAddr: 0x66E8, symBinAddr: 0x9B414, symSize: 0x13C }
  - { offset: 0x2615F4, size: 0x8, addend: 0x0, symName: _ggml_swiglu_split, symObjAddr: 0x6824, symBinAddr: 0x9B550, symSize: 0xC }
  - { offset: 0x261670, size: 0x8, addend: 0x0, symName: _ggml_geglu_erf, symObjAddr: 0x6830, symBinAddr: 0x9B55C, symSize: 0x138 }
  - { offset: 0x261811, size: 0x8, addend: 0x0, symName: _ggml_geglu_erf_swapped, symObjAddr: 0x6968, symBinAddr: 0x9B694, symSize: 0x13C }
  - { offset: 0x2619B2, size: 0x8, addend: 0x0, symName: _ggml_geglu_erf_split, symObjAddr: 0x6AA4, symBinAddr: 0x9B7D0, symSize: 0xC }
  - { offset: 0x261A2E, size: 0x8, addend: 0x0, symName: _ggml_geglu_quick, symObjAddr: 0x6AB0, symBinAddr: 0x9B7DC, symSize: 0x138 }
  - { offset: 0x261BCF, size: 0x8, addend: 0x0, symName: _ggml_geglu_quick_swapped, symObjAddr: 0x6BE8, symBinAddr: 0x9B914, symSize: 0x13C }
  - { offset: 0x261D70, size: 0x8, addend: 0x0, symName: _ggml_geglu_quick_split, symObjAddr: 0x6D24, symBinAddr: 0x9BA50, symSize: 0xC }
  - { offset: 0x261DEC, size: 0x8, addend: 0x0, symName: _ggml_swiglu_oai, symObjAddr: 0x6D30, symBinAddr: 0x9BA5C, symSize: 0x30 }
  - { offset: 0x261F20, size: 0x8, addend: 0x0, symName: _ggml_norm, symObjAddr: 0x6D60, symBinAddr: 0x9BA8C, symSize: 0x80 }
  - { offset: 0x262058, size: 0x8, addend: 0x0, symName: _ggml_norm_inplace, symObjAddr: 0x6DE0, symBinAddr: 0x9BB0C, symSize: 0x8C }
  - { offset: 0x26206C, size: 0x8, addend: 0x0, symName: _ggml_norm_inplace, symObjAddr: 0x6DE0, symBinAddr: 0x9BB0C, symSize: 0x8C }
  - { offset: 0x262201, size: 0x8, addend: 0x0, symName: _ggml_rms_norm, symObjAddr: 0x6E6C, symBinAddr: 0x9BB98, symSize: 0x80 }
  - { offset: 0x262339, size: 0x8, addend: 0x0, symName: _ggml_rms_norm_inplace, symObjAddr: 0x6EEC, symBinAddr: 0x9BC18, symSize: 0x8C }
  - { offset: 0x26234D, size: 0x8, addend: 0x0, symName: _ggml_rms_norm_inplace, symObjAddr: 0x6EEC, symBinAddr: 0x9BC18, symSize: 0x8C }
  - { offset: 0x262492, size: 0x8, addend: 0x0, symName: _ggml_rms_norm_back, symObjAddr: 0x6F78, symBinAddr: 0x9BCA4, symSize: 0x84 }
  - { offset: 0x262582, size: 0x8, addend: 0x0, symName: _ggml_group_norm, symObjAddr: 0x6FFC, symBinAddr: 0x9BD28, symSize: 0x54 }
  - { offset: 0x2625F3, size: 0x8, addend: 0x0, symName: _ggml_group_norm, symObjAddr: 0x6FFC, symBinAddr: 0x9BD28, symSize: 0x54 }
  - { offset: 0x262772, size: 0x8, addend: 0x0, symName: _ggml_group_norm_inplace, symObjAddr: 0x7050, symBinAddr: 0x9BD7C, symSize: 0x90 }
  - { offset: 0x262947, size: 0x8, addend: 0x0, symName: _ggml_l2_norm, symObjAddr: 0x70E0, symBinAddr: 0x9BE0C, symSize: 0x50 }
  - { offset: 0x262A8F, size: 0x8, addend: 0x0, symName: _ggml_l2_norm_inplace, symObjAddr: 0x7130, symBinAddr: 0x9BE5C, symSize: 0x8C }
  - { offset: 0x262C22, size: 0x8, addend: 0x0, symName: _ggml_mul_mat, symObjAddr: 0x71BC, symBinAddr: 0x9BEE8, symSize: 0x114 }
  - { offset: 0x262D71, size: 0x8, addend: 0x0, symName: _ggml_mul_mat_set_prec, symObjAddr: 0x72D0, symBinAddr: 0x9BFFC, symSize: 0x44 }
  - { offset: 0x262DED, size: 0x8, addend: 0x0, symName: _ggml_mul_mat_set_hint, symObjAddr: 0x7314, symBinAddr: 0x9C040, symSize: 0x44 }
  - { offset: 0x262E01, size: 0x8, addend: 0x0, symName: _ggml_mul_mat_set_hint, symObjAddr: 0x7314, symBinAddr: 0x9C040, symSize: 0x44 }
  - { offset: 0x262E7D, size: 0x8, addend: 0x0, symName: _ggml_mul_mat_id, symObjAddr: 0x7358, symBinAddr: 0x9C084, symSize: 0x234 }
  - { offset: 0x262E91, size: 0x8, addend: 0x0, symName: _ggml_mul_mat_id, symObjAddr: 0x7358, symBinAddr: 0x9C084, symSize: 0x234 }
  - { offset: 0x263079, size: 0x8, addend: 0x0, symName: _ggml_out_prod, symObjAddr: 0x758C, symBinAddr: 0x9C2B8, symSize: 0x114 }
  - { offset: 0x2631C8, size: 0x8, addend: 0x0, symName: _ggml_scale, symObjAddr: 0x76A0, symBinAddr: 0x9C3CC, symSize: 0xC }
  - { offset: 0x263225, size: 0x8, addend: 0x0, symName: _ggml_scale_impl, symObjAddr: 0x76AC, symBinAddr: 0x9C3D8, symSize: 0x13C }
  - { offset: 0x263413, size: 0x8, addend: 0x0, symName: _ggml_scale_inplace, symObjAddr: 0x77E8, symBinAddr: 0x9C514, symSize: 0xC }
  - { offset: 0x263427, size: 0x8, addend: 0x0, symName: _ggml_scale_inplace, symObjAddr: 0x77E8, symBinAddr: 0x9C514, symSize: 0xC }
  - { offset: 0x2634A0, size: 0x8, addend: 0x0, symName: _ggml_scale_bias, symObjAddr: 0x77F4, symBinAddr: 0x9C520, symSize: 0x8 }
  - { offset: 0x263533, size: 0x8, addend: 0x0, symName: _ggml_scale_bias_inplace, symObjAddr: 0x77FC, symBinAddr: 0x9C528, symSize: 0x8 }
  - { offset: 0x2635C6, size: 0x8, addend: 0x0, symName: _ggml_set, symObjAddr: 0x7804, symBinAddr: 0x9C530, symSize: 0x8 }
  - { offset: 0x263698, size: 0x8, addend: 0x0, symName: _ggml_set_impl, symObjAddr: 0x780C, symBinAddr: 0x9C538, symSize: 0x174 }
  - { offset: 0x2638C9, size: 0x8, addend: 0x0, symName: _ggml_set_inplace, symObjAddr: 0x7980, symBinAddr: 0x9C6AC, symSize: 0x8 }
  - { offset: 0x2638DD, size: 0x8, addend: 0x0, symName: _ggml_set_inplace, symObjAddr: 0x7980, symBinAddr: 0x9C6AC, symSize: 0x8 }
  - { offset: 0x2639AF, size: 0x8, addend: 0x0, symName: _ggml_set_1d, symObjAddr: 0x7988, symBinAddr: 0x9C6B4, symSize: 0x14 }
  - { offset: 0x263A3E, size: 0x8, addend: 0x0, symName: _ggml_set_1d_inplace, symObjAddr: 0x799C, symBinAddr: 0x9C6C8, symSize: 0x14 }
  - { offset: 0x263ACD, size: 0x8, addend: 0x0, symName: _ggml_set_2d, symObjAddr: 0x79B0, symBinAddr: 0x9C6DC, symSize: 0x10 }
  - { offset: 0x263B73, size: 0x8, addend: 0x0, symName: _ggml_set_2d_inplace, symObjAddr: 0x79C0, symBinAddr: 0x9C6EC, symSize: 0x10 }
  - { offset: 0x263C5C, size: 0x8, addend: 0x0, symName: _ggml_cpy, symObjAddr: 0x79D0, symBinAddr: 0x9C6FC, symSize: 0x10C }
  - { offset: 0x263DAF, size: 0x8, addend: 0x0, symName: _ggml_cast, symObjAddr: 0x7ADC, symBinAddr: 0x9C808, symSize: 0x5C }
  - { offset: 0x263DC3, size: 0x8, addend: 0x0, symName: _ggml_cast, symObjAddr: 0x7ADC, symBinAddr: 0x9C808, symSize: 0x5C }
  - { offset: 0x263EC8, size: 0x8, addend: 0x0, symName: _ggml_cont, symObjAddr: 0x7B38, symBinAddr: 0x9C864, symSize: 0x5C }
  - { offset: 0x264021, size: 0x8, addend: 0x0, symName: _ggml_cont_1d, symObjAddr: 0x7B94, symBinAddr: 0x9C8C0, symSize: 0xDC }
  - { offset: 0x2641AE, size: 0x8, addend: 0x0, symName: _ggml_cont_4d, symObjAddr: 0x7C70, symBinAddr: 0x9C99C, symSize: 0xDC }
  - { offset: 0x264305, size: 0x8, addend: 0x0, symName: _ggml_cont_2d, symObjAddr: 0x7D4C, symBinAddr: 0x9CA78, symSize: 0xDC }
  - { offset: 0x2644A6, size: 0x8, addend: 0x0, symName: _ggml_cont_3d, symObjAddr: 0x7E28, symBinAddr: 0x9CB54, symSize: 0xDC }
  - { offset: 0x26465B, size: 0x8, addend: 0x0, symName: _ggml_reshape, symObjAddr: 0x7F04, symBinAddr: 0x9CC30, symSize: 0x158 }
  - { offset: 0x2647FF, size: 0x8, addend: 0x0, symName: _ggml_reshape_1d, symObjAddr: 0x805C, symBinAddr: 0x9CD88, symSize: 0x170 }
  - { offset: 0x264813, size: 0x8, addend: 0x0, symName: _ggml_reshape_1d, symObjAddr: 0x805C, symBinAddr: 0x9CD88, symSize: 0x170 }
  - { offset: 0x2649CC, size: 0x8, addend: 0x0, symName: _ggml_reshape_2d, symObjAddr: 0x81CC, symBinAddr: 0x9CEF8, symSize: 0x174 }
  - { offset: 0x264B96, size: 0x8, addend: 0x0, symName: _ggml_reshape_3d, symObjAddr: 0x8340, symBinAddr: 0x9D06C, symSize: 0x17C }
  - { offset: 0x264D71, size: 0x8, addend: 0x0, symName: _ggml_reshape_4d, symObjAddr: 0x84BC, symBinAddr: 0x9D1E8, symSize: 0x180 }
  - { offset: 0x264FBA, size: 0x8, addend: 0x0, symName: _ggml_view_1d, symObjAddr: 0x863C, symBinAddr: 0x9D368, symSize: 0x90 }
  - { offset: 0x2650D6, size: 0x8, addend: 0x0, symName: _ggml_view_2d, symObjAddr: 0x86CC, symBinAddr: 0x9D3F8, symSize: 0xD4 }
  - { offset: 0x2650EA, size: 0x8, addend: 0x0, symName: _ggml_view_2d, symObjAddr: 0x86CC, symBinAddr: 0x9D3F8, symSize: 0xD4 }
  - { offset: 0x265253, size: 0x8, addend: 0x0, symName: _ggml_view_3d, symObjAddr: 0x87A0, symBinAddr: 0x9D4CC, symSize: 0xE8 }
  - { offset: 0x2653DE, size: 0x8, addend: 0x0, symName: _ggml_view_4d, symObjAddr: 0x8888, symBinAddr: 0x9D5B4, symSize: 0xDC }
  - { offset: 0x26552D, size: 0x8, addend: 0x0, symName: _ggml_permute, symObjAddr: 0x8964, symBinAddr: 0x9D690, symSize: 0x2F8 }
  - { offset: 0x26578E, size: 0x8, addend: 0x0, symName: _ggml_transpose, symObjAddr: 0x8C5C, symBinAddr: 0x9D988, symSize: 0xAC }
  - { offset: 0x26585A, size: 0x8, addend: 0x0, symName: _ggml_get_rows, symObjAddr: 0x8D08, symBinAddr: 0x9DA34, symSize: 0x158 }
  - { offset: 0x265A4D, size: 0x8, addend: 0x0, symName: _ggml_get_rows_back, symObjAddr: 0x8E60, symBinAddr: 0x9DB8C, symSize: 0x138 }
  - { offset: 0x265BED, size: 0x8, addend: 0x0, symName: _ggml_set_rows, symObjAddr: 0x8F98, symBinAddr: 0x9DCC4, symSize: 0x2E8 }
  - { offset: 0x265E2D, size: 0x8, addend: 0x0, symName: _ggml_diag, symObjAddr: 0x9280, symBinAddr: 0x9DFAC, symSize: 0xB4 }
  - { offset: 0x265E41, size: 0x8, addend: 0x0, symName: _ggml_diag, symObjAddr: 0x9280, symBinAddr: 0x9DFAC, symSize: 0xB4 }
  - { offset: 0x265F86, size: 0x8, addend: 0x0, symName: _ggml_diag_mask_inf, symObjAddr: 0x9334, symBinAddr: 0x9E060, symSize: 0x74 }
  - { offset: 0x2660BE, size: 0x8, addend: 0x0, symName: _ggml_diag_mask_inf_inplace, symObjAddr: 0x93A8, symBinAddr: 0x9E0D4, symSize: 0x80 }
  - { offset: 0x2660D2, size: 0x8, addend: 0x0, symName: _ggml_diag_mask_inf_inplace, symObjAddr: 0x93A8, symBinAddr: 0x9E0D4, symSize: 0x80 }
  - { offset: 0x26627D, size: 0x8, addend: 0x0, symName: _ggml_diag_mask_zero, symObjAddr: 0x9428, symBinAddr: 0x9E154, symSize: 0x74 }
  - { offset: 0x2663B5, size: 0x8, addend: 0x0, symName: _ggml_diag_mask_zero_inplace, symObjAddr: 0x949C, symBinAddr: 0x9E1C8, symSize: 0x80 }
  - { offset: 0x2663C9, size: 0x8, addend: 0x0, symName: _ggml_diag_mask_zero_inplace, symObjAddr: 0x949C, symBinAddr: 0x9E1C8, symSize: 0x80 }
  - { offset: 0x266517, size: 0x8, addend: 0x0, symName: _ggml_soft_max, symObjAddr: 0x951C, symBinAddr: 0x9E248, symSize: 0x14 }
  - { offset: 0x26657C, size: 0x8, addend: 0x0, symName: _ggml_soft_max_impl, symObjAddr: 0x9530, symBinAddr: 0x9E25C, symSize: 0x340 }
  - { offset: 0x26694F, size: 0x8, addend: 0x0, symName: _ggml_soft_max_inplace, symObjAddr: 0x9870, symBinAddr: 0x9E59C, symSize: 0x14 }
  - { offset: 0x266963, size: 0x8, addend: 0x0, symName: _ggml_soft_max_inplace, symObjAddr: 0x9870, symBinAddr: 0x9E59C, symSize: 0x14 }
  - { offset: 0x2669C8, size: 0x8, addend: 0x0, symName: _ggml_soft_max_ext, symObjAddr: 0x9884, symBinAddr: 0x9E5B0, symSize: 0x8 }
  - { offset: 0x266A72, size: 0x8, addend: 0x0, symName: _ggml_soft_max_ext_inplace, symObjAddr: 0x988C, symBinAddr: 0x9E5B8, symSize: 0x8 }
  - { offset: 0x266B1C, size: 0x8, addend: 0x0, symName: _ggml_soft_max_add_sinks, symObjAddr: 0x9894, symBinAddr: 0x9E5C0, symSize: 0xF0 }
  - { offset: 0x266B9E, size: 0x8, addend: 0x0, symName: _ggml_soft_max_ext_back, symObjAddr: 0x9984, symBinAddr: 0x9E6B0, symSize: 0x58 }
  - { offset: 0x266C1C, size: 0x8, addend: 0x0, symName: _ggml_soft_max_ext_back, symObjAddr: 0x9984, symBinAddr: 0x9E6B0, symSize: 0x58 }
  - { offset: 0x266D44, size: 0x8, addend: 0x0, symName: _ggml_soft_max_ext_back_inplace, symObjAddr: 0x99DC, symBinAddr: 0x9E708, symSize: 0x94 }
  - { offset: 0x266E96, size: 0x8, addend: 0x0, symName: _ggml_rope, symObjAddr: 0x9A70, symBinAddr: 0x9E79C, symSize: 0x54 }
  - { offset: 0x266F50, size: 0x8, addend: 0x0, symName: _ggml_rope_impl, symObjAddr: 0x9AC4, symBinAddr: 0x9E7F0, symSize: 0x2FC }
  - { offset: 0x267258, size: 0x8, addend: 0x0, symName: _ggml_rope_multi, symObjAddr: 0x9DC0, symBinAddr: 0x9EAEC, symSize: 0x20 }
  - { offset: 0x26726C, size: 0x8, addend: 0x0, symName: _ggml_rope_multi, symObjAddr: 0x9DC0, symBinAddr: 0x9EAEC, symSize: 0x20 }
  - { offset: 0x267398, size: 0x8, addend: 0x0, symName: _ggml_rope_multi_inplace, symObjAddr: 0x9DE0, symBinAddr: 0x9EB0C, symSize: 0x24 }
  - { offset: 0x26752D, size: 0x8, addend: 0x0, symName: _ggml_rope_inplace, symObjAddr: 0x9E04, symBinAddr: 0x9EB30, symSize: 0x58 }
  - { offset: 0x2675E7, size: 0x8, addend: 0x0, symName: _ggml_rope_ext, symObjAddr: 0x9E5C, symBinAddr: 0x9EB88, symSize: 0x2C }
  - { offset: 0x267707, size: 0x8, addend: 0x0, symName: _ggml_rope_ext_inplace, symObjAddr: 0x9E88, symBinAddr: 0x9EBB4, symSize: 0x30 }
  - { offset: 0x267889, size: 0x8, addend: 0x0, symName: _ggml_rope_custom, symObjAddr: 0x9EB8, symBinAddr: 0x9EBE4, symSize: 0x34 }
  - { offset: 0x2679F8, size: 0x8, addend: 0x0, symName: _ggml_rope_custom_inplace, symObjAddr: 0x9EEC, symBinAddr: 0x9EC18, symSize: 0x38 }
  - { offset: 0x267BAA, size: 0x8, addend: 0x0, symName: _ggml_rope_yarn_corr_dims, symObjAddr: 0x9F24, symBinAddr: 0x9EC50, symSize: 0xB8 }
  - { offset: 0x267D67, size: 0x8, addend: 0x0, symName: _ggml_rope_ext_back, symObjAddr: 0x9FDC, symBinAddr: 0x9ED08, symSize: 0x34 }
  - { offset: 0x267FEF, size: 0x8, addend: 0x0, symName: _ggml_rope_multi_back, symObjAddr: 0xA010, symBinAddr: 0x9ED3C, symSize: 0x28 }
  - { offset: 0x2681C8, size: 0x8, addend: 0x0, symName: _ggml_clamp, symObjAddr: 0xA038, symBinAddr: 0x9ED64, symSize: 0x90 }
  - { offset: 0x26834B, size: 0x8, addend: 0x0, symName: _ggml_im2col, symObjAddr: 0xA0C8, symBinAddr: 0x9EDF4, symSize: 0x27C }
  - { offset: 0x2685AE, size: 0x8, addend: 0x0, symName: _ggml_im2col_back, symObjAddr: 0xA344, symBinAddr: 0x9F070, symSize: 0xA4 }
  - { offset: 0x2685C2, size: 0x8, addend: 0x0, symName: _ggml_im2col_back, symObjAddr: 0xA344, symBinAddr: 0x9F070, symSize: 0xA4 }
  - { offset: 0x2686E2, size: 0x8, addend: 0x0, symName: _ggml_conv_1d, symObjAddr: 0xA3E8, symBinAddr: 0x9F114, symSize: 0xAC }
  - { offset: 0x2686F6, size: 0x8, addend: 0x0, symName: _ggml_conv_1d, symObjAddr: 0xA3E8, symBinAddr: 0x9F114, symSize: 0xAC }
  - { offset: 0x268882, size: 0x8, addend: 0x0, symName: _ggml_conv_1d_ph, symObjAddr: 0xA494, symBinAddr: 0x9F1C0, symSize: 0xB4 }
  - { offset: 0x268A02, size: 0x8, addend: 0x0, symName: _ggml_conv_1d_dw, symObjAddr: 0xA548, symBinAddr: 0x9F274, symSize: 0xB4 }
  - { offset: 0x268B8A, size: 0x8, addend: 0x0, symName: _ggml_conv_1d_dw_ph, symObjAddr: 0xA5FC, symBinAddr: 0x9F328, symSize: 0xBC }
  - { offset: 0x268D01, size: 0x8, addend: 0x0, symName: _ggml_col2im_1d, symObjAddr: 0xA6B8, symBinAddr: 0x9F3E4, symSize: 0x2A0 }
  - { offset: 0x268FFD, size: 0x8, addend: 0x0, symName: _ggml_conv_transpose_1d, symObjAddr: 0xA958, symBinAddr: 0x9F684, symSize: 0x1D0 }
  - { offset: 0x269061, size: 0x8, addend: 0x0, symName: _ggml_conv_transpose_1d, symObjAddr: 0xA958, symBinAddr: 0x9F684, symSize: 0x1D0 }
  - { offset: 0x2692A8, size: 0x8, addend: 0x0, symName: _ggml_conv_2d, symObjAddr: 0xAB28, symBinAddr: 0x9F854, symSize: 0x110 }
  - { offset: 0x26954B, size: 0x8, addend: 0x0, symName: _ggml_im2col_3d, symObjAddr: 0xAC38, symBinAddr: 0x9F964, symSize: 0x220 }
  - { offset: 0x269850, size: 0x8, addend: 0x0, symName: _ggml_conv_3d, symObjAddr: 0xAE58, symBinAddr: 0x9FB84, symSize: 0x164 }
  - { offset: 0x269B92, size: 0x8, addend: 0x0, symName: _ggml_conv_2d_sk_p0, symObjAddr: 0xAFBC, symBinAddr: 0x9FCE8, symSize: 0x38 }
  - { offset: 0x269C1A, size: 0x8, addend: 0x0, symName: _ggml_conv_2d_s1_ph, symObjAddr: 0xAFF4, symBinAddr: 0x9FD20, symSize: 0x44 }
  - { offset: 0x269CA2, size: 0x8, addend: 0x0, symName: _ggml_conv_2d_dw, symObjAddr: 0xB038, symBinAddr: 0x9FD64, symSize: 0x128 }
  - { offset: 0x269EA9, size: 0x8, addend: 0x0, symName: _ggml_conv_2d_dw_direct, symObjAddr: 0xB160, symBinAddr: 0x9FE8C, symSize: 0x23C }
  - { offset: 0x26A125, size: 0x8, addend: 0x0, symName: _ggml_conv_2d_direct, symObjAddr: 0xB39C, symBinAddr: 0xA00C8, symSize: 0x150 }
  - { offset: 0x26A139, size: 0x8, addend: 0x0, symName: _ggml_conv_2d_direct, symObjAddr: 0xB39C, symBinAddr: 0xA00C8, symSize: 0x150 }
  - { offset: 0x26A3A5, size: 0x8, addend: 0x0, symName: _ggml_conv_3d_direct, symObjAddr: 0xB4EC, symBinAddr: 0xA0218, symSize: 0x1FC }
  - { offset: 0x26A799, size: 0x8, addend: 0x0, symName: _ggml_conv_transpose_2d_p0, symObjAddr: 0xB6E8, symBinAddr: 0xA0414, symSize: 0xE4 }
  - { offset: 0x26A96E, size: 0x8, addend: 0x0, symName: _ggml_pool_1d, symObjAddr: 0xB7CC, symBinAddr: 0xA04F8, symSize: 0x134 }
  - { offset: 0x26AB11, size: 0x8, addend: 0x0, symName: _ggml_pool_2d, symObjAddr: 0xB900, symBinAddr: 0xA062C, symSize: 0x194 }
  - { offset: 0x26AD35, size: 0x8, addend: 0x0, symName: _ggml_pool_2d_back, symObjAddr: 0xBA94, symBinAddr: 0xA07C0, symSize: 0xC4 }
  - { offset: 0x26AE41, size: 0x8, addend: 0x0, symName: _ggml_upscale, symObjAddr: 0xBB58, symBinAddr: 0xA0884, symSize: 0x14C }
  - { offset: 0x26AECC, size: 0x8, addend: 0x0, symName: _ggml_upscale, symObjAddr: 0xBB58, symBinAddr: 0xA0884, symSize: 0x14C }
  - { offset: 0x26B0AD, size: 0x8, addend: 0x0, symName: _ggml_upscale_ext, symObjAddr: 0xBCA4, symBinAddr: 0xA09D0, symSize: 0x11C }
  - { offset: 0x26B2B6, size: 0x8, addend: 0x0, symName: _ggml_interpolate, symObjAddr: 0xBDC0, symBinAddr: 0xA0AEC, symSize: 0x10C }
  - { offset: 0x26B53D, size: 0x8, addend: 0x0, symName: _ggml_pad, symObjAddr: 0xBECC, symBinAddr: 0xA0BF8, symSize: 0xC8 }
  - { offset: 0x26B77C, size: 0x8, addend: 0x0, symName: _ggml_pad_ext, symObjAddr: 0xBF94, symBinAddr: 0xA0CC0, symSize: 0xFC }
  - { offset: 0x26BA21, size: 0x8, addend: 0x0, symName: _ggml_pad_circular, symObjAddr: 0xC090, symBinAddr: 0xA0DBC, symSize: 0xCC }
  - { offset: 0x26BCCF, size: 0x8, addend: 0x0, symName: _ggml_pad_ext_circular, symObjAddr: 0xC15C, symBinAddr: 0xA0E88, symSize: 0x100 }
  - { offset: 0x26BF39, size: 0x8, addend: 0x0, symName: _ggml_pad_reflect_1d, symObjAddr: 0xC25C, symBinAddr: 0xA0F88, symSize: 0x248 }
  - { offset: 0x26C1F8, size: 0x8, addend: 0x0, symName: _ggml_roll, symObjAddr: 0xC4A4, symBinAddr: 0xA11D0, symSize: 0x194 }
  - { offset: 0x26C411, size: 0x8, addend: 0x0, symName: _ggml_timestep_embedding, symObjAddr: 0xC638, symBinAddr: 0xA1364, symSize: 0x94 }
  - { offset: 0x26C425, size: 0x8, addend: 0x0, symName: _ggml_timestep_embedding, symObjAddr: 0xC638, symBinAddr: 0xA1364, symSize: 0x94 }
  - { offset: 0x26C561, size: 0x8, addend: 0x0, symName: _ggml_tri, symObjAddr: 0xC6CC, symBinAddr: 0xA13F8, symSize: 0x134 }
  - { offset: 0x26C729, size: 0x8, addend: 0x0, symName: _ggml_fill, symObjAddr: 0xC800, symBinAddr: 0xA152C, symSize: 0x8 }
  - { offset: 0x26C73D, size: 0x8, addend: 0x0, symName: _ggml_fill, symObjAddr: 0xC800, symBinAddr: 0xA152C, symSize: 0x8 }
  - { offset: 0x26C7B6, size: 0x8, addend: 0x0, symName: _ggml_fill_impl, symObjAddr: 0xC808, symBinAddr: 0xA1534, symSize: 0x17C }
  - { offset: 0x26CA03, size: 0x8, addend: 0x0, symName: _ggml_fill_inplace, symObjAddr: 0xC984, symBinAddr: 0xA16B0, symSize: 0x8 }
  - { offset: 0x26CA17, size: 0x8, addend: 0x0, symName: _ggml_fill_inplace, symObjAddr: 0xC984, symBinAddr: 0xA16B0, symSize: 0x8 }
  - { offset: 0x26CA90, size: 0x8, addend: 0x0, symName: _ggml_argsort, symObjAddr: 0xC98C, symBinAddr: 0xA16B8, symSize: 0x80 }
  - { offset: 0x26CB5E, size: 0x8, addend: 0x0, symName: _ggml_argsort_top_k, symObjAddr: 0xCA0C, symBinAddr: 0xA1738, symSize: 0x180 }
  - { offset: 0x26CC60, size: 0x8, addend: 0x0, symName: _ggml_argsort_top_k, symObjAddr: 0xCA0C, symBinAddr: 0xA1738, symSize: 0x180 }
  - { offset: 0x26CEB8, size: 0x8, addend: 0x0, symName: _ggml_top_k, symObjAddr: 0xCB8C, symBinAddr: 0xA18B8, symSize: 0xBC }
  - { offset: 0x26CFD3, size: 0x8, addend: 0x0, symName: _ggml_arange, symObjAddr: 0xCC48, symBinAddr: 0xA1974, symSize: 0x98 }
  - { offset: 0x26D14A, size: 0x8, addend: 0x0, symName: _ggml_flash_attn_ext, symObjAddr: 0xCCE0, symBinAddr: 0xA1A0C, symSize: 0x2F0 }
  - { offset: 0x26D15E, size: 0x8, addend: 0x0, symName: _ggml_flash_attn_ext, symObjAddr: 0xCCE0, symBinAddr: 0xA1A0C, symSize: 0x2F0 }
  - { offset: 0x26D429, size: 0x8, addend: 0x0, symName: _ggml_flash_attn_ext_set_prec, symObjAddr: 0xCFD0, symBinAddr: 0xA1CFC, symSize: 0x44 }
  - { offset: 0x26D43D, size: 0x8, addend: 0x0, symName: _ggml_flash_attn_ext_set_prec, symObjAddr: 0xCFD0, symBinAddr: 0xA1CFC, symSize: 0x44 }
  - { offset: 0x26D4B9, size: 0x8, addend: 0x0, symName: _ggml_flash_attn_ext_get_prec, symObjAddr: 0xD014, symBinAddr: 0xA1D40, symSize: 0x44 }
  - { offset: 0x26D4CD, size: 0x8, addend: 0x0, symName: _ggml_flash_attn_ext_get_prec, symObjAddr: 0xD014, symBinAddr: 0xA1D40, symSize: 0x44 }
  - { offset: 0x26D534, size: 0x8, addend: 0x0, symName: _ggml_flash_attn_ext_add_sinks, symObjAddr: 0xD058, symBinAddr: 0xA1D84, symSize: 0xF0 }
  - { offset: 0x26D548, size: 0x8, addend: 0x0, symName: _ggml_flash_attn_ext_add_sinks, symObjAddr: 0xD058, symBinAddr: 0xA1D84, symSize: 0xF0 }
  - { offset: 0x26D5CA, size: 0x8, addend: 0x0, symName: _ggml_flash_attn_back, symObjAddr: 0xD148, symBinAddr: 0xA1E74, symSize: 0x20 }
  - { offset: 0x26D5DE, size: 0x8, addend: 0x0, symName: _ggml_flash_attn_back, symObjAddr: 0xD148, symBinAddr: 0xA1E74, symSize: 0x20 }
  - { offset: 0x26D666, size: 0x8, addend: 0x0, symName: _ggml_ssm_conv, symObjAddr: 0xD168, symBinAddr: 0xA1E94, symSize: 0x160 }
  - { offset: 0x26D701, size: 0x8, addend: 0x0, symName: _ggml_ssm_conv, symObjAddr: 0xD168, symBinAddr: 0xA1E94, symSize: 0x160 }
  - { offset: 0x26D8F5, size: 0x8, addend: 0x0, symName: _ggml_ssm_scan, symObjAddr: 0xD2C8, symBinAddr: 0xA1FF4, symSize: 0x734 }
  - { offset: 0x26DFA8, size: 0x8, addend: 0x0, symName: _ggml_win_part, symObjAddr: 0xD9FC, symBinAddr: 0xA2728, symSize: 0x164 }
  - { offset: 0x26DFBC, size: 0x8, addend: 0x0, symName: _ggml_win_part, symObjAddr: 0xD9FC, symBinAddr: 0xA2728, symSize: 0x164 }
  - { offset: 0x26E15F, size: 0x8, addend: 0x0, symName: _ggml_win_unpart, symObjAddr: 0xDB60, symBinAddr: 0xA288C, symSize: 0xE4 }
  - { offset: 0x26E2B8, size: 0x8, addend: 0x0, symName: _ggml_get_rel_pos, symObjAddr: 0xDC44, symBinAddr: 0xA2970, symSize: 0xEC }
  - { offset: 0x26E3CE, size: 0x8, addend: 0x0, symName: _ggml_add_rel_pos, symObjAddr: 0xDD30, symBinAddr: 0xA2A5C, symSize: 0x8 }
  - { offset: 0x26E45B, size: 0x8, addend: 0x0, symName: _ggml_add_rel_pos_impl, symObjAddr: 0xDD38, symBinAddr: 0xA2A64, symSize: 0x3C4 }
  - { offset: 0x26E919, size: 0x8, addend: 0x0, symName: _ggml_add_rel_pos_inplace, symObjAddr: 0xE0FC, symBinAddr: 0xA2E28, symSize: 0x8 }
  - { offset: 0x26E92D, size: 0x8, addend: 0x0, symName: _ggml_add_rel_pos_inplace, symObjAddr: 0xE0FC, symBinAddr: 0xA2E28, symSize: 0x8 }
  - { offset: 0x26E9BA, size: 0x8, addend: 0x0, symName: _ggml_rwkv_wkv6, symObjAddr: 0xE104, symBinAddr: 0xA2E30, symSize: 0x5B0 }
  - { offset: 0x26F050, size: 0x8, addend: 0x0, symName: _ggml_gated_linear_attn, symObjAddr: 0xE6B4, symBinAddr: 0xA33E0, symSize: 0x50C }
  - { offset: 0x26F649, size: 0x8, addend: 0x0, symName: _ggml_rwkv_wkv7, symObjAddr: 0xEBC0, symBinAddr: 0xA38EC, symSize: 0x6A4 }
  - { offset: 0x26FEB3, size: 0x8, addend: 0x0, symName: _ggml_map_custom1, symObjAddr: 0xF264, symBinAddr: 0xA3F90, symSize: 0xC8 }
  - { offset: 0x27003D, size: 0x8, addend: 0x0, symName: _ggml_map_custom1_inplace, symObjAddr: 0xF32C, symBinAddr: 0xA4058, symSize: 0xD4 }
  - { offset: 0x270051, size: 0x8, addend: 0x0, symName: _ggml_map_custom1_inplace, symObjAddr: 0xF32C, symBinAddr: 0xA4058, symSize: 0xD4 }
  - { offset: 0x2701CC, size: 0x8, addend: 0x0, symName: _ggml_map_custom2, symObjAddr: 0xF400, symBinAddr: 0xA412C, symSize: 0xD4 }
  - { offset: 0x2702D5, size: 0x8, addend: 0x0, symName: _ggml_map_custom2, symObjAddr: 0xF400, symBinAddr: 0xA412C, symSize: 0xD4 }
  - { offset: 0x27047A, size: 0x8, addend: 0x0, symName: _ggml_map_custom2_inplace, symObjAddr: 0xF4D4, symBinAddr: 0xA4200, symSize: 0xE0 }
  - { offset: 0x27048E, size: 0x8, addend: 0x0, symName: _ggml_map_custom2_inplace, symObjAddr: 0xF4D4, symBinAddr: 0xA4200, symSize: 0xE0 }
  - { offset: 0x270624, size: 0x8, addend: 0x0, symName: _ggml_map_custom3, symObjAddr: 0xF5B4, symBinAddr: 0xA42E0, symSize: 0xDC }
  - { offset: 0x270740, size: 0x8, addend: 0x0, symName: _ggml_map_custom3, symObjAddr: 0xF5B4, symBinAddr: 0xA42E0, symSize: 0xDC }
  - { offset: 0x270900, size: 0x8, addend: 0x0, symName: _ggml_map_custom3_inplace, symObjAddr: 0xF690, symBinAddr: 0xA43BC, symSize: 0xE8 }
  - { offset: 0x270914, size: 0x8, addend: 0x0, symName: _ggml_map_custom3_inplace, symObjAddr: 0xF690, symBinAddr: 0xA43BC, symSize: 0xE8 }
  - { offset: 0x270AC5, size: 0x8, addend: 0x0, symName: _ggml_custom_4d, symObjAddr: 0xF778, symBinAddr: 0xA44A4, symSize: 0x104 }
  - { offset: 0x270AD9, size: 0x8, addend: 0x0, symName: _ggml_custom_4d, symObjAddr: 0xF778, symBinAddr: 0xA44A4, symSize: 0x104 }
  - { offset: 0x270CF8, size: 0x8, addend: 0x0, symName: _ggml_custom_inplace, symObjAddr: 0xF87C, symBinAddr: 0xA45A8, symSize: 0x15C }
  - { offset: 0x270E79, size: 0x8, addend: 0x0, symName: _ggml_cross_entropy_loss, symObjAddr: 0xF9D8, symBinAddr: 0xA4704, symSize: 0xB8 }
  - { offset: 0x270E8D, size: 0x8, addend: 0x0, symName: _ggml_cross_entropy_loss, symObjAddr: 0xF9D8, symBinAddr: 0xA4704, symSize: 0xB8 }
  - { offset: 0x270FB3, size: 0x8, addend: 0x0, symName: _ggml_cross_entropy_loss_back, symObjAddr: 0xFA90, symBinAddr: 0xA47BC, symSize: 0x114 }
  - { offset: 0x270FC7, size: 0x8, addend: 0x0, symName: _ggml_cross_entropy_loss_back, symObjAddr: 0xFA90, symBinAddr: 0xA47BC, symSize: 0x114 }
  - { offset: 0x271120, size: 0x8, addend: 0x0, symName: _ggml_opt_step_adamw, symObjAddr: 0xFBA4, symBinAddr: 0xA48D0, symSize: 0x248 }
  - { offset: 0x271134, size: 0x8, addend: 0x0, symName: _ggml_opt_step_adamw, symObjAddr: 0xFBA4, symBinAddr: 0xA48D0, symSize: 0x248 }
  - { offset: 0x27134D, size: 0x8, addend: 0x0, symName: _ggml_opt_step_sgd, symObjAddr: 0xFDEC, symBinAddr: 0xA4B18, symSize: 0x18C }
  - { offset: 0x271361, size: 0x8, addend: 0x0, symName: _ggml_opt_step_sgd, symObjAddr: 0xFDEC, symBinAddr: 0xA4B18, symSize: 0x18C }
  - { offset: 0x2714DC, size: 0x8, addend: 0x0, symName: _ggml_solve_tri, symObjAddr: 0xFF78, symBinAddr: 0xA4CA4, symSize: 0x2D4 }
  - { offset: 0x2714F0, size: 0x8, addend: 0x0, symName: _ggml_solve_tri, symObjAddr: 0xFF78, symBinAddr: 0xA4CA4, symSize: 0x2D4 }
  - { offset: 0x271802, size: 0x8, addend: 0x0, symName: _ggml_gated_delta_net, symObjAddr: 0x1024C, symBinAddr: 0xA4F78, symSize: 0x604 }
  - { offset: 0x271E76, size: 0x8, addend: 0x0, symName: _ggml_hash_set_new, symObjAddr: 0x10850, symBinAddr: 0xA557C, symSize: 0x178 }
  - { offset: 0x271F2D, size: 0x8, addend: 0x0, symName: _ggml_hash_set_new, symObjAddr: 0x10850, symBinAddr: 0xA557C, symSize: 0x178 }
  - { offset: 0x2720B3, size: 0x8, addend: 0x0, symName: _ggml_hash_size, symObjAddr: 0x109C8, symBinAddr: 0xA56F4, symSize: 0x48 }
  - { offset: 0x2720C7, size: 0x8, addend: 0x0, symName: _ggml_hash_set_reset, symObjAddr: 0x10A10, symBinAddr: 0xA573C, symSize: 0x18 }
  - { offset: 0x272105, size: 0x8, addend: 0x0, symName: _ggml_hash_set_free, symObjAddr: 0x10A28, symBinAddr: 0xA5754, symSize: 0x28 }
  - { offset: 0x2721A3, size: 0x8, addend: 0x0, symName: _ggml_build_forward_select, symObjAddr: 0x10A50, symBinAddr: 0xA577C, symSize: 0x100 }
  - { offset: 0x2722A5, size: 0x8, addend: 0x0, symName: _ggml_build_forward_expand, symObjAddr: 0x10B50, symBinAddr: 0xA587C, symSize: 0x80 }
  - { offset: 0x2722B9, size: 0x8, addend: 0x0, symName: _ggml_visit_parents_graph, symObjAddr: 0x156CC, symBinAddr: 0xAA3F8, symSize: 0x540 }
  - { offset: 0x272699, size: 0x8, addend: 0x0, symName: _ggml_add_or_set, symObjAddr: 0x15C0C, symBinAddr: 0xAA938, symSize: 0x114 }
  - { offset: 0x2726AD, size: 0x8, addend: 0x0, symName: _ggml_build_forward_expand, symObjAddr: 0x10B50, symBinAddr: 0xA587C, symSize: 0x80 }
  - { offset: 0x272749, size: 0x8, addend: 0x0, symName: _ggml_build_backward_expand, symObjAddr: 0x10BD0, symBinAddr: 0xA58FC, symSize: 0x2324 }
  - { offset: 0x27330E, size: 0x8, addend: 0x0, symName: _ggml_build_backward_expand, symObjAddr: 0x10BD0, symBinAddr: 0xA58FC, symSize: 0x2324 }
  - { offset: 0x2765C1, size: 0x8, addend: 0x0, symName: _ggml_graph_overhead_custom, symObjAddr: 0x12EF4, symBinAddr: 0xA7C20, symSize: 0x98 }
  - { offset: 0x2765D5, size: 0x8, addend: 0x0, symName: _ggml_add_or_set, symObjAddr: 0x15C0C, symBinAddr: 0xAA938, symSize: 0x114 }
  - { offset: 0x276709, size: 0x8, addend: 0x0, symName: _ggml_sub_or_set, symObjAddr: 0x15D20, symBinAddr: 0xAAA4C, symSize: 0x19C }
  - { offset: 0x27671D, size: 0x8, addend: 0x0, symName: _ggml_sub_or_set, symObjAddr: 0x15D20, symBinAddr: 0xAAA4C, symSize: 0x19C }
  - { offset: 0x2769C2, size: 0x8, addend: 0x0, symName: _ggml_add1_or_set, symObjAddr: 0x15EBC, symBinAddr: 0xAABE8, symSize: 0x11C }
  - { offset: 0x2769D6, size: 0x8, addend: 0x0, symName: _ggml_add1_or_set, symObjAddr: 0x15EBC, symBinAddr: 0xAABE8, symSize: 0x11C }
  - { offset: 0x276BC7, size: 0x8, addend: 0x0, symName: _ggml_graph_overhead_custom, symObjAddr: 0x12EF4, symBinAddr: 0xA7C20, symSize: 0x98 }
  - { offset: 0x276D27, size: 0x8, addend: 0x0, symName: _ggml_graph_overhead, symObjAddr: 0x12F8C, symBinAddr: 0xA7CB8, symSize: 0x70 }
  - { offset: 0x276E78, size: 0x8, addend: 0x0, symName: _ggml_new_graph_custom, symObjAddr: 0x12FFC, symBinAddr: 0xA7D28, symSize: 0x19C }
  - { offset: 0x2771EA, size: 0x8, addend: 0x0, symName: _ggml_new_graph, symObjAddr: 0x13198, symBinAddr: 0xA7EC4, symSize: 0xC }
  - { offset: 0x27723A, size: 0x8, addend: 0x0, symName: _ggml_graph_view, symObjAddr: 0x131A4, symBinAddr: 0xA7ED0, symSize: 0x50 }
  - { offset: 0x2772F8, size: 0x8, addend: 0x0, symName: _ggml_graph_cpy, symObjAddr: 0x131F4, symBinAddr: 0xA7F20, symSize: 0x434 }
  - { offset: 0x2776D4, size: 0x8, addend: 0x0, symName: _ggml_graph_dup, symObjAddr: 0x13628, symBinAddr: 0xA8354, symSize: 0x44 }
  - { offset: 0x2776E8, size: 0x8, addend: 0x0, symName: _ggml_graph_dup, symObjAddr: 0x13628, symBinAddr: 0xA8354, symSize: 0x44 }
  - { offset: 0x27777C, size: 0x8, addend: 0x0, symName: _ggml_set_zero, symObjAddr: 0x1366C, symBinAddr: 0xA8398, symSize: 0x1B0 }
  - { offset: 0x277911, size: 0x8, addend: 0x0, symName: _ggml_graph_reset, symObjAddr: 0x1381C, symBinAddr: 0xA8548, symSize: 0x214 }
  - { offset: 0x27797C, size: 0x8, addend: 0x0, symName: _ggml_graph_reset, symObjAddr: 0x1381C, symBinAddr: 0xA8548, symSize: 0x214 }
  - { offset: 0x277B74, size: 0x8, addend: 0x0, symName: _ggml_graph_get_grad_acc, symObjAddr: 0x13A30, symBinAddr: 0xA875C, symSize: 0x70 }
  - { offset: 0x277BA9, size: 0x8, addend: 0x0, symName: _ggml_graph_get_grad_acc, symObjAddr: 0x13A30, symBinAddr: 0xA875C, symSize: 0x70 }
  - { offset: 0x277BDD, size: 0x8, addend: 0x0, symName: _ggml_graph_get_grad_acc, symObjAddr: 0x13A30, symBinAddr: 0xA875C, symSize: 0x70 }
  - { offset: 0x277C19, size: 0x8, addend: 0x0, symName: _ggml_graph_get_grad_acc, symObjAddr: 0x13A30, symBinAddr: 0xA875C, symSize: 0x70 }
  - { offset: 0x277C5D, size: 0x8, addend: 0x0, symName: _ggml_graph_clear, symObjAddr: 0x13AA0, symBinAddr: 0xA87CC, symSize: 0x1C }
  - { offset: 0x277CC6, size: 0x8, addend: 0x0, symName: _ggml_graph_size, symObjAddr: 0x13ABC, symBinAddr: 0xA87E8, symSize: 0x8 }
  - { offset: 0x277CF3, size: 0x8, addend: 0x0, symName: _ggml_graph_node, symObjAddr: 0x13AC4, symBinAddr: 0xA87F0, symSize: 0x80 }
  - { offset: 0x277D4B, size: 0x8, addend: 0x0, symName: _ggml_graph_nodes, symObjAddr: 0x13B44, symBinAddr: 0xA8870, symSize: 0x8 }
  - { offset: 0x277D5F, size: 0x8, addend: 0x0, symName: _ggml_graph_nodes, symObjAddr: 0x13B44, symBinAddr: 0xA8870, symSize: 0x8 }
  - { offset: 0x277D8C, size: 0x8, addend: 0x0, symName: _ggml_graph_n_nodes, symObjAddr: 0x13B4C, symBinAddr: 0xA8878, symSize: 0x8 }
  - { offset: 0x277DB9, size: 0x8, addend: 0x0, symName: _ggml_graph_add_node, symObjAddr: 0x13B54, symBinAddr: 0xA8880, symSize: 0x54 }
  - { offset: 0x277DF6, size: 0x8, addend: 0x0, symName: _ggml_graph_get_tensor, symObjAddr: 0x13BA8, symBinAddr: 0xA88D4, symSize: 0xB4 }
  - { offset: 0x277E0A, size: 0x8, addend: 0x0, symName: _ggml_graph_get_tensor, symObjAddr: 0x13BA8, symBinAddr: 0xA88D4, symSize: 0xB4 }
  - { offset: 0x277F04, size: 0x8, addend: 0x0, symName: _ggml_graph_get_grad, symObjAddr: 0x13C5C, symBinAddr: 0xA8988, symSize: 0x70 }
  - { offset: 0x277F38, size: 0x8, addend: 0x0, symName: _ggml_graph_get_grad, symObjAddr: 0x13C5C, symBinAddr: 0xA8988, symSize: 0x70 }
  - { offset: 0x277F74, size: 0x8, addend: 0x0, symName: _ggml_graph_get_grad, symObjAddr: 0x13C5C, symBinAddr: 0xA8988, symSize: 0x70 }
  - { offset: 0x277FD4, size: 0x8, addend: 0x0, symName: _ggml_graph_print, symObjAddr: 0x13CCC, symBinAddr: 0xA89F8, symSize: 0x1DC }
  - { offset: 0x278296, size: 0x8, addend: 0x0, symName: _ggml_can_fuse_subgraph_ext, symObjAddr: 0x13EA8, symBinAddr: 0xA8BD4, symSize: 0x274 }
  - { offset: 0x278563, size: 0x8, addend: 0x0, symName: _ggml_graph_dump_dot, symObjAddr: 0x1411C, symBinAddr: 0xA8E48, symSize: 0xA94 }
  - { offset: 0x27870C, size: 0x8, addend: 0x0, symName: _ggml_graph_dump_dot, symObjAddr: 0x1411C, symBinAddr: 0xA8E48, symSize: 0xA94 }
  - { offset: 0x279141, size: 0x8, addend: 0x0, symName: _ggml_set_input, symObjAddr: 0x14BB0, symBinAddr: 0xA98DC, symSize: 0x10 }
  - { offset: 0x279168, size: 0x8, addend: 0x0, symName: _ggml_set_output, symObjAddr: 0x14BC0, symBinAddr: 0xA98EC, symSize: 0x10 }
  - { offset: 0x27918F, size: 0x8, addend: 0x0, symName: _ggml_set_param, symObjAddr: 0x14BD0, symBinAddr: 0xA98FC, symSize: 0x48 }
  - { offset: 0x2791BB, size: 0x8, addend: 0x0, symName: _ggml_set_loss, symObjAddr: 0x14C18, symBinAddr: 0xA9944, symSize: 0xA4 }
  - { offset: 0x2791CF, size: 0x8, addend: 0x0, symName: _ggml_set_loss, symObjAddr: 0x14C18, symBinAddr: 0xA9944, symSize: 0xA4 }
  - { offset: 0x279231, size: 0x8, addend: 0x0, symName: _ggml_quantize_init, symObjAddr: 0x14CBC, symBinAddr: 0xA99E8, symSize: 0x7C }
  - { offset: 0x279245, size: 0x8, addend: 0x0, symName: _ggml_quantize_init, symObjAddr: 0x14CBC, symBinAddr: 0xA99E8, symSize: 0x7C }
  - { offset: 0x2792FE, size: 0x8, addend: 0x0, symName: _ggml_quantize_free, symObjAddr: 0x14D38, symBinAddr: 0xA9A64, symSize: 0x4C }
  - { offset: 0x2793E7, size: 0x8, addend: 0x0, symName: _ggml_quantize_requires_imatrix, symObjAddr: 0x14D84, symBinAddr: 0xA9AB0, symSize: 0x14 }
  - { offset: 0x2794BB, size: 0x8, addend: 0x0, symName: _ggml_quantize_chunk, symObjAddr: 0x14D98, symBinAddr: 0xA9AC4, symSize: 0x7D0 }
  - { offset: 0x279C0D, size: 0x8, addend: 0x0, symName: _ggml_log_get, symObjAddr: 0x15568, symBinAddr: 0xAA294, symSize: 0x1C }
  - { offset: 0x27A029, size: 0x8, addend: 0x0, symName: _ggml_log_get, symObjAddr: 0x15568, symBinAddr: 0xAA294, symSize: 0x1C }
  - { offset: 0x27A05F, size: 0x8, addend: 0x0, symName: _ggml_log_set, symObjAddr: 0x15584, symBinAddr: 0xAA2B0, symSize: 0x24 }
  - { offset: 0x27A095, size: 0x8, addend: 0x0, symName: _ggml_threadpool_params_init, symObjAddr: 0x155A8, symBinAddr: 0xAA2D4, symSize: 0x5C }
  - { offset: 0x27A159, size: 0x8, addend: 0x0, symName: _ggml_threadpool_params_default, symObjAddr: 0x15604, symBinAddr: 0xAA330, symSize: 0x60 }
  - { offset: 0x27A197, size: 0x8, addend: 0x0, symName: _ggml_threadpool_params_default, symObjAddr: 0x15604, symBinAddr: 0xAA330, symSize: 0x60 }
  - { offset: 0x27A1BB, size: 0x8, addend: 0x0, symName: _ggml_threadpool_params_match, symObjAddr: 0x15664, symBinAddr: 0xAA390, symSize: 0x68 }
  - { offset: 0x27A446, size: 0x8, addend: 0x0, symName: __ZL26previous_terminate_handler, symObjAddr: 0x6288, symBinAddr: 0x22E850, symSize: 0x0 }
  - { offset: 0x27B17A, size: 0x8, addend: 0x0, symName: __ZL23ggml_uncaught_exceptionv, symObjAddr: 0x0, symBinAddr: 0xAAD04, symSize: 0x20 }
  - { offset: 0x27B1B2, size: 0x8, addend: 0x0, symName: __GLOBAL__sub_I_ggml.cpp, symObjAddr: 0x20, symBinAddr: 0xAAD24, symSize: 0x7C }
  - { offset: 0x27B23B, size: 0x8, addend: 0x0, symName: __GLOBAL__sub_I_ggml.cpp, symObjAddr: 0x20, symBinAddr: 0xAAD24, symSize: 0x7C }
  - { offset: 0x27D226, size: 0x8, addend: 0x0, symName: __MergedGlobals, symObjAddr: 0x195D60, symBinAddr: 0x22E858, symSize: 0x0 }
  - { offset: 0x299E21, size: 0x8, addend: 0x0, symName: __ZNSt3__134__uninitialized_allocator_relocateB8ne190102INS_9allocatorI7gguf_kvEES2_EEvRT_PT0_S7_S7_, symObjAddr: 0xA708, symBinAddr: 0xB52EC, symSize: 0x11C }
  - { offset: 0x299E80, size: 0x8, addend: 0x0, symName: __ZNSt3__134__uninitialized_allocator_relocateB8ne190102INS_9allocatorI7gguf_kvEES2_EEvRT_PT0_S7_S7_, symObjAddr: 0xA708, symBinAddr: 0xB52EC, symSize: 0x11C }
  - { offset: 0x29E0BB, size: 0x8, addend: 0x0, symName: __MergedGlobals, symObjAddr: 0x195D60, symBinAddr: 0x22E858, symSize: 0x0 }
  - { offset: 0x2A03F5, size: 0x8, addend: 0x0, symName: __ZNSt3__13mapI9gguf_typemNS_4lessIS1_EENS_9allocatorINS_4pairIKS1_mEEEEED1B8ne190102Ev, symObjAddr: 0x0, symBinAddr: 0xAADA0, symSize: 0x28 }
  - { offset: 0x2A04B3, size: 0x8, addend: 0x0, symName: __ZNSt3__16__treeINS_12__value_typeI9gguf_typemEENS_19__map_value_compareIS2_S3_NS_4lessIS2_EELb1EEENS_9allocatorIS3_EEE7destroyEPNS_11__tree_nodeIS3_PvEE, symObjAddr: 0x116AC, symBinAddr: 0xBB9BC, symSize: 0x44 }
  - { offset: 0x2A0678, size: 0x8, addend: 0x0, symName: __ZNSt3__13mapI9gguf_typePKcNS_4lessIS1_EENS_9allocatorINS_4pairIKS1_S3_EEEEED1B8ne190102Ev, symObjAddr: 0x28, symBinAddr: 0xAADC8, symSize: 0x28 }
  - { offset: 0x2A0736, size: 0x8, addend: 0x0, symName: __ZNSt3__16__treeINS_12__value_typeI9gguf_typePKcEENS_19__map_value_compareIS2_S5_NS_4lessIS2_EELb1EEENS_9allocatorIS5_EEE7destroyEPNS_11__tree_nodeIS5_PvEE, symObjAddr: 0x11994, symBinAddr: 0xBBCA4, symSize: 0x44 }
  - { offset: 0x2A09BA, size: 0x8, addend: 0x0, symName: __Z14gguf_type_size9gguf_type, symObjAddr: 0x50, symBinAddr: 0xAADF0, symSize: 0x54 }
  - { offset: 0x2A09E6, size: 0x8, addend: 0x0, symName: __Z14gguf_type_size9gguf_type, symObjAddr: 0x50, symBinAddr: 0xAADF0, symSize: 0x54 }
  - { offset: 0x2A09FB, size: 0x8, addend: 0x0, symName: __Z14gguf_type_size9gguf_type, symObjAddr: 0x50, symBinAddr: 0xAADF0, symSize: 0x54 }
  - { offset: 0x2A0A1B, size: 0x8, addend: 0x0, symName: __Z14gguf_type_size9gguf_type, symObjAddr: 0x50, symBinAddr: 0xAADF0, symSize: 0x54 }
  - { offset: 0x2A0BCF, size: 0x8, addend: 0x0, symName: _gguf_init_empty, symObjAddr: 0xA4, symBinAddr: 0xAAE44, symSize: 0x3C }
  - { offset: 0x2A126A, size: 0x8, addend: 0x0, symName: _gguf_init_from_callback, symObjAddr: 0xE0, symBinAddr: 0xAAE80, symSize: 0x40 }
  - { offset: 0x2A138B, size: 0x8, addend: 0x0, symName: __ZL21gguf_init_from_readerRK11gguf_reader16gguf_init_params, symObjAddr: 0x120, symBinAddr: 0xAAEC0, symSize: 0x1D08 }
  - { offset: 0x2A4C06, size: 0x8, addend: 0x0, symName: __ZNK11gguf_reader4readIcEEbRNSt3__16vectorIT_NS1_9allocatorIS3_EEEEm, symObjAddr: 0x7A60, symBinAddr: 0xB2780, symSize: 0x1F4 }
  - { offset: 0x2A529E, size: 0x8, addend: 0x0, symName: __ZNK11gguf_reader4readERNSt3__112basic_stringIcNS0_11char_traitsIcEENS0_9allocatorIcEEEE, symObjAddr: 0x7C54, symBinAddr: 0xB2974, symSize: 0x21C }
  - { offset: 0x2A52E5, size: 0x8, addend: 0x0, symName: __ZNSt3__16vectorI7gguf_kvNS_9allocatorIS1_EEE7__clearB8ne190102Ev, symObjAddr: 0x10438, symBinAddr: 0xBA8FC, symSize: 0xB8 }
  - { offset: 0x2A58E6, size: 0x8, addend: 0x0, symName: __ZNK11gguf_reader4readERNSt3__112basic_stringIcNS0_11char_traitsIcEENS0_9allocatorIcEEEE, symObjAddr: 0x7C54, symBinAddr: 0xB2974, symSize: 0x21C }
  - { offset: 0x2A5BA2, size: 0x8, addend: 0x0, symName: __Z24gguf_read_emplace_helperIhEbRK11gguf_readerRNSt3__16vectorI7gguf_kvNS3_9allocatorIS5_EEEERKNS3_12basic_stringIcNS3_11char_traitsIcEENS6_IcEEEEbm, symObjAddr: 0x7E70, symBinAddr: 0xB2B90, symSize: 0x2BC }
  - { offset: 0x2A5BD2, size: 0x8, addend: 0x0, symName: __Z24gguf_read_emplace_helperItEbRK11gguf_readerRNSt3__16vectorI7gguf_kvNS3_9allocatorIS5_EEEERKNS3_12basic_stringIcNS3_11char_traitsIcEENS6_IcEEEEbm, symObjAddr: 0x83E8, symBinAddr: 0xB3108, symSize: 0x2D0 }
  - { offset: 0x2A652A, size: 0x8, addend: 0x0, symName: __Z24gguf_read_emplace_helperINSt3__112basic_stringIcNS0_11char_traitsIcEENS0_9allocatorIcEEEEEbRK11gguf_readerRNS0_6vectorI7gguf_kvNS4_ISB_EEEERKS6_bm, symObjAddr: 0x94C8, symBinAddr: 0xB41E8, symSize: 0x29C }
  - { offset: 0x2A708D, size: 0x8, addend: 0x0, symName: __Z24gguf_read_emplace_helperIiEbRK11gguf_readerRNSt3__16vectorI7gguf_kvNS3_9allocatorIS5_EEEERKNS3_12basic_stringIcNS3_11char_traitsIcEENS6_IcEEEEbm, symObjAddr: 0x8C58, symBinAddr: 0xB3978, symSize: 0x2D0 }
  - { offset: 0x2A79ED, size: 0x8, addend: 0x0, symName: __Z24gguf_read_emplace_helperIdEbRK11gguf_readerRNSt3__16vectorI7gguf_kvNS3_9allocatorIS5_EEEERKNS3_12basic_stringIcNS3_11char_traitsIcEENS6_IcEEEEbm, symObjAddr: 0x9D04, symBinAddr: 0xB4A24, symSize: 0x2D0 }
  - { offset: 0x2A834E, size: 0x8, addend: 0x0, symName: __Z24gguf_read_emplace_helperIhEbRK11gguf_readerRNSt3__16vectorI7gguf_kvNS3_9allocatorIS5_EEEERKNS3_12basic_stringIcNS3_11char_traitsIcEENS6_IcEEEEbm, symObjAddr: 0x7E70, symBinAddr: 0xB2B90, symSize: 0x2BC }
  - { offset: 0x2A8CAD, size: 0x8, addend: 0x0, symName: __Z24gguf_read_emplace_helperIfEbRK11gguf_readerRNSt3__16vectorI7gguf_kvNS3_9allocatorIS5_EEEERKNS3_12basic_stringIcNS3_11char_traitsIcEENS6_IcEEEEbm, symObjAddr: 0x8F28, symBinAddr: 0xB3C48, symSize: 0x2D0 }
  - { offset: 0x2A960E, size: 0x8, addend: 0x0, symName: __Z24gguf_read_emplace_helperIsEbRK11gguf_readerRNSt3__16vectorI7gguf_kvNS3_9allocatorIS5_EEEERKNS3_12basic_stringIcNS3_11char_traitsIcEENS6_IcEEEEbm, symObjAddr: 0x86B8, symBinAddr: 0xB33D8, symSize: 0x2D0 }
  - { offset: 0x2A9F66, size: 0x8, addend: 0x0, symName: __Z24gguf_read_emplace_helperIyEbRK11gguf_readerRNSt3__16vectorI7gguf_kvNS3_9allocatorIS5_EEEERKNS3_12basic_stringIcNS3_11char_traitsIcEENS6_IcEEEEbm, symObjAddr: 0x9764, symBinAddr: 0xB4484, symSize: 0x2D0 }
  - { offset: 0x2AA8C6, size: 0x8, addend: 0x0, symName: __Z24gguf_read_emplace_helperIaEbRK11gguf_readerRNSt3__16vectorI7gguf_kvNS3_9allocatorIS5_EEEERKNS3_12basic_stringIcNS3_11char_traitsIcEENS6_IcEEEEbm, symObjAddr: 0x812C, symBinAddr: 0xB2E4C, symSize: 0x2BC }
  - { offset: 0x2AB225, size: 0x8, addend: 0x0, symName: __Z24gguf_read_emplace_helperIbEbRK11gguf_readerRNSt3__16vectorI7gguf_kvNS3_9allocatorIS5_EEEERKNS3_12basic_stringIcNS3_11char_traitsIcEENS6_IcEEEEbm, symObjAddr: 0x91F8, symBinAddr: 0xB3F18, symSize: 0x2D0 }
  - { offset: 0x2ABB1D, size: 0x8, addend: 0x0, symName: __Z24gguf_read_emplace_helperIjEbRK11gguf_readerRNSt3__16vectorI7gguf_kvNS3_9allocatorIS5_EEEERKNS3_12basic_stringIcNS3_11char_traitsIcEENS6_IcEEEEbm, symObjAddr: 0x8988, symBinAddr: 0xB36A8, symSize: 0x2D0 }
  - { offset: 0x2AC47D, size: 0x8, addend: 0x0, symName: __Z24gguf_read_emplace_helperIxEbRK11gguf_readerRNSt3__16vectorI7gguf_kvNS3_9allocatorIS5_EEEERKNS3_12basic_stringIcNS3_11char_traitsIcEENS6_IcEEEEbm, symObjAddr: 0x9A34, symBinAddr: 0xB4754, symSize: 0x2D0 }
  - { offset: 0x2ACE50, size: 0x8, addend: 0x0, symName: _gguf_get_val_u32, symObjAddr: 0x2EF8, symBinAddr: 0xADC98, symSize: 0x1AC }
  - { offset: 0x2AD0EE, size: 0x8, addend: 0x0, symName: _gguf_get_val_i32, symObjAddr: 0x30A4, symBinAddr: 0xADE44, symSize: 0x1AC }
  - { offset: 0x2AD170, size: 0x8, addend: 0x0, symName: __ZNK11gguf_reader4readEPvm, symObjAddr: 0x9FD4, symBinAddr: 0xB4CF4, symSize: 0x110 }
  - { offset: 0x2AD302, size: 0x8, addend: 0x0, symName: _gguf_free, symObjAddr: 0x217C, symBinAddr: 0xACF1C, symSize: 0x54 }
  - { offset: 0x2AD5C8, size: 0x8, addend: 0x0, symName: __ZNKSt3__16vectorI16gguf_tensor_infoNS_9allocatorIS1_EEE20__throw_length_errorB8ne190102Ev, symObjAddr: 0x119D8, symBinAddr: 0xBBCE8, symSize: 0x14 }
  - { offset: 0x2AD5F2, size: 0x8, addend: 0x0, symName: __ZNKSt3__111__move_implINS_17_ClassicAlgPolicyEEclB8ne190102IP7gguf_kvS5_S5_EENS_4pairIT_T1_EES7_T0_S8_, symObjAddr: 0x119EC, symBinAddr: 0xBBCFC, symSize: 0x12C }
  - { offset: 0x2AD629, size: 0x8, addend: 0x0, symName: _gguf_init_from_file_ptr, symObjAddr: 0x1E28, symBinAddr: 0xACBC8, symSize: 0xF0 }
  - { offset: 0x2AD86A, size: 0x8, addend: 0x0, symName: __ZL25gguf_file_reader_callbackPvS_ym, symObjAddr: 0x1F18, symBinAddr: 0xACCB8, symSize: 0xD0 }
  - { offset: 0x2AD91D, size: 0x8, addend: 0x0, symName: _gguf_init_from_buffer, symObjAddr: 0x1FE8, symBinAddr: 0xACD88, symSize: 0x5C }
  - { offset: 0x2AD952, size: 0x8, addend: 0x0, symName: _gguf_init_from_buffer, symObjAddr: 0x1FE8, symBinAddr: 0xACD88, symSize: 0x5C }
  - { offset: 0x2ADA79, size: 0x8, addend: 0x0, symName: __ZL27gguf_buffer_reader_callbackPvS_ym, symObjAddr: 0x2044, symBinAddr: 0xACDE4, symSize: 0x90 }
  - { offset: 0x2ADB13, size: 0x8, addend: 0x0, symName: _gguf_init_from_file, symObjAddr: 0x20D4, symBinAddr: 0xACE74, symSize: 0xA8 }
  - { offset: 0x2ADB27, size: 0x8, addend: 0x0, symName: _gguf_init_from_file, symObjAddr: 0x20D4, symBinAddr: 0xACE74, symSize: 0xA8 }
  - { offset: 0x2ADD4D, size: 0x8, addend: 0x0, symName: _gguf_type_name, symObjAddr: 0x21D0, symBinAddr: 0xACF70, symSize: 0x54 }
  - { offset: 0x2ADD8E, size: 0x8, addend: 0x0, symName: _gguf_type_name, symObjAddr: 0x21D0, symBinAddr: 0xACF70, symSize: 0x54 }
  - { offset: 0x2ADDA4, size: 0x8, addend: 0x0, symName: _gguf_type_name, symObjAddr: 0x21D0, symBinAddr: 0xACF70, symSize: 0x54 }
  - { offset: 0x2ADDC4, size: 0x8, addend: 0x0, symName: _gguf_type_name, symObjAddr: 0x21D0, symBinAddr: 0xACF70, symSize: 0x54 }
  - { offset: 0x2ADE86, size: 0x8, addend: 0x0, symName: _gguf_get_version, symObjAddr: 0x2224, symBinAddr: 0xACFC4, symSize: 0x8 }
  - { offset: 0x2ADEB3, size: 0x8, addend: 0x0, symName: _gguf_get_alignment, symObjAddr: 0x222C, symBinAddr: 0xACFCC, symSize: 0x8 }
  - { offset: 0x2ADEE0, size: 0x8, addend: 0x0, symName: _gguf_get_data_offset, symObjAddr: 0x2234, symBinAddr: 0xACFD4, symSize: 0x8 }
  - { offset: 0x2ADF0D, size: 0x8, addend: 0x0, symName: _gguf_get_n_kv, symObjAddr: 0x223C, symBinAddr: 0xACFDC, symSize: 0x1C }
  - { offset: 0x2ADF2F, size: 0x8, addend: 0x0, symName: _gguf_get_n_kv, symObjAddr: 0x223C, symBinAddr: 0xACFDC, symSize: 0x1C }
  - { offset: 0x2ADF4D, size: 0x8, addend: 0x0, symName: _gguf_find_key, symObjAddr: 0x2258, symBinAddr: 0xACFF8, symSize: 0x84 }
  - { offset: 0x2AE0E7, size: 0x8, addend: 0x0, symName: _gguf_get_key, symObjAddr: 0x22DC, symBinAddr: 0xAD07C, symSize: 0x70 }
  - { offset: 0x2AE1FB, size: 0x8, addend: 0x0, symName: _gguf_get_kv_type, symObjAddr: 0x234C, symBinAddr: 0xAD0EC, symSize: 0x74 }
  - { offset: 0x2AE20F, size: 0x8, addend: 0x0, symName: _gguf_get_kv_type, symObjAddr: 0x234C, symBinAddr: 0xAD0EC, symSize: 0x74 }
  - { offset: 0x2AE2AF, size: 0x8, addend: 0x0, symName: _gguf_get_arr_type, symObjAddr: 0x23C0, symBinAddr: 0xAD160, symSize: 0x98 }
  - { offset: 0x2AE2C3, size: 0x8, addend: 0x0, symName: _gguf_get_arr_type, symObjAddr: 0x23C0, symBinAddr: 0xAD160, symSize: 0x98 }
  - { offset: 0x2AE37A, size: 0x8, addend: 0x0, symName: _gguf_get_arr_data, symObjAddr: 0x2458, symBinAddr: 0xAD1F8, symSize: 0x9C }
  - { offset: 0x2AE3AA, size: 0x8, addend: 0x0, symName: _gguf_get_arr_data, symObjAddr: 0x2458, symBinAddr: 0xAD1F8, symSize: 0x9C }
  - { offset: 0x2AE482, size: 0x8, addend: 0x0, symName: _gguf_get_arr_str, symObjAddr: 0x24F4, symBinAddr: 0xAD294, symSize: 0xBC }
  - { offset: 0x2AE4C0, size: 0x8, addend: 0x0, symName: _gguf_get_arr_str, symObjAddr: 0x24F4, symBinAddr: 0xAD294, symSize: 0xBC }
  - { offset: 0x2AE63A, size: 0x8, addend: 0x0, symName: _gguf_get_arr_n, symObjAddr: 0x25B0, symBinAddr: 0xAD350, symSize: 0x130 }
  - { offset: 0x2AE6A2, size: 0x8, addend: 0x0, symName: _gguf_get_arr_n, symObjAddr: 0x25B0, symBinAddr: 0xAD350, symSize: 0x130 }
  - { offset: 0x2AE8C1, size: 0x8, addend: 0x0, symName: _gguf_get_val_u8, symObjAddr: 0x26E0, symBinAddr: 0xAD480, symSize: 0xC0 }
  - { offset: 0x2AE8D5, size: 0x8, addend: 0x0, symName: _gguf_get_val_u8, symObjAddr: 0x26E0, symBinAddr: 0xAD480, symSize: 0xC0 }
  - { offset: 0x2AE9E2, size: 0x8, addend: 0x0, symName: __ZNK7gguf_kv6get_neEv, symObjAddr: 0x27A0, symBinAddr: 0xAD540, symSize: 0x140 }
  - { offset: 0x2AE9F6, size: 0x8, addend: 0x0, symName: __ZNK7gguf_kv6get_neEv, symObjAddr: 0x27A0, symBinAddr: 0xAD540, symSize: 0x140 }
  - { offset: 0x2AEBE1, size: 0x8, addend: 0x0, symName: __ZNK7gguf_kv7get_valIhEERKT_m, symObjAddr: 0x28E0, symBinAddr: 0xAD680, symSize: 0x114 }
  - { offset: 0x2AEBF5, size: 0x8, addend: 0x0, symName: __ZNK7gguf_kv7get_valIhEERKT_m, symObjAddr: 0x28E0, symBinAddr: 0xAD680, symSize: 0x114 }
  - { offset: 0x2AED5F, size: 0x8, addend: 0x0, symName: _gguf_get_val_i8, symObjAddr: 0x29F4, symBinAddr: 0xAD794, symSize: 0x1AC }
  - { offset: 0x2AEDB2, size: 0x8, addend: 0x0, symName: _gguf_get_val_i8, symObjAddr: 0x29F4, symBinAddr: 0xAD794, symSize: 0x1AC }
  - { offset: 0x2AF050, size: 0x8, addend: 0x0, symName: _gguf_get_val_u16, symObjAddr: 0x2BA0, symBinAddr: 0xAD940, symSize: 0x1AC }
  - { offset: 0x2AF09A, size: 0x8, addend: 0x0, symName: _gguf_get_val_u16, symObjAddr: 0x2BA0, symBinAddr: 0xAD940, symSize: 0x1AC }
  - { offset: 0x2AF338, size: 0x8, addend: 0x0, symName: _gguf_get_val_i16, symObjAddr: 0x2D4C, symBinAddr: 0xADAEC, symSize: 0x1AC }
  - { offset: 0x2AF382, size: 0x8, addend: 0x0, symName: _gguf_get_val_i16, symObjAddr: 0x2D4C, symBinAddr: 0xADAEC, symSize: 0x1AC }
  - { offset: 0x2AF620, size: 0x8, addend: 0x0, symName: _gguf_get_val_u32, symObjAddr: 0x2EF8, symBinAddr: 0xADC98, symSize: 0x1AC }
  - { offset: 0x2AF6A0, size: 0x8, addend: 0x0, symName: _gguf_get_val_i32, symObjAddr: 0x30A4, symBinAddr: 0xADE44, symSize: 0x1AC }
  - { offset: 0x2AF93E, size: 0x8, addend: 0x0, symName: _gguf_get_val_f32, symObjAddr: 0x3250, symBinAddr: 0xADFF0, symSize: 0x1AC }
  - { offset: 0x2AF988, size: 0x8, addend: 0x0, symName: _gguf_get_val_f32, symObjAddr: 0x3250, symBinAddr: 0xADFF0, symSize: 0x1AC }
  - { offset: 0x2AFC26, size: 0x8, addend: 0x0, symName: _gguf_get_val_u64, symObjAddr: 0x33FC, symBinAddr: 0xAE19C, symSize: 0x1AC }
  - { offset: 0x2AFC70, size: 0x8, addend: 0x0, symName: _gguf_get_val_u64, symObjAddr: 0x33FC, symBinAddr: 0xAE19C, symSize: 0x1AC }
  - { offset: 0x2AFF0E, size: 0x8, addend: 0x0, symName: _gguf_get_val_i64, symObjAddr: 0x35A8, symBinAddr: 0xAE348, symSize: 0x1AC }
  - { offset: 0x2AFF58, size: 0x8, addend: 0x0, symName: _gguf_get_val_i64, symObjAddr: 0x35A8, symBinAddr: 0xAE348, symSize: 0x1AC }
  - { offset: 0x2B01F6, size: 0x8, addend: 0x0, symName: _gguf_get_val_f64, symObjAddr: 0x3754, symBinAddr: 0xAE4F4, symSize: 0x1AC }
  - { offset: 0x2B0240, size: 0x8, addend: 0x0, symName: _gguf_get_val_f64, symObjAddr: 0x3754, symBinAddr: 0xAE4F4, symSize: 0x1AC }
  - { offset: 0x2B04DE, size: 0x8, addend: 0x0, symName: _gguf_get_val_bool, symObjAddr: 0x3900, symBinAddr: 0xAE6A0, symSize: 0x1AC }
  - { offset: 0x2B0528, size: 0x8, addend: 0x0, symName: _gguf_get_val_bool, symObjAddr: 0x3900, symBinAddr: 0xAE6A0, symSize: 0x1AC }
  - { offset: 0x2B07C6, size: 0x8, addend: 0x0, symName: __ZNK7gguf_kv7get_valIbEERKT_m, symObjAddr: 0x3AAC, symBinAddr: 0xAE84C, symSize: 0x114 }
  - { offset: 0x2B07DA, size: 0x8, addend: 0x0, symName: __ZNK7gguf_kv7get_valIbEERKT_m, symObjAddr: 0x3AAC, symBinAddr: 0xAE84C, symSize: 0x114 }
  - { offset: 0x2B0976, size: 0x8, addend: 0x0, symName: _gguf_get_val_str, symObjAddr: 0x3BC0, symBinAddr: 0xAE960, symSize: 0x130 }
  - { offset: 0x2B09B4, size: 0x8, addend: 0x0, symName: _gguf_get_val_str, symObjAddr: 0x3BC0, symBinAddr: 0xAE960, symSize: 0x130 }
  - { offset: 0x2B0BA6, size: 0x8, addend: 0x0, symName: _gguf_get_val_data, symObjAddr: 0x3CF0, symBinAddr: 0xAEA90, symSize: 0xE8 }
  - { offset: 0x2B0BBA, size: 0x8, addend: 0x0, symName: _gguf_get_val_data, symObjAddr: 0x3CF0, symBinAddr: 0xAEA90, symSize: 0xE8 }
  - { offset: 0x2B0CEA, size: 0x8, addend: 0x0, symName: _gguf_get_n_tensors, symObjAddr: 0x3DD8, symBinAddr: 0xAEB78, symSize: 0x24 }
  - { offset: 0x2B0CFE, size: 0x8, addend: 0x0, symName: _gguf_get_n_tensors, symObjAddr: 0x3DD8, symBinAddr: 0xAEB78, symSize: 0x24 }
  - { offset: 0x2B0D20, size: 0x8, addend: 0x0, symName: _gguf_get_n_tensors, symObjAddr: 0x3DD8, symBinAddr: 0xAEB78, symSize: 0x24 }
  - { offset: 0x2B0D59, size: 0x8, addend: 0x0, symName: _gguf_find_tensor, symObjAddr: 0x3DFC, symBinAddr: 0xAEB9C, symSize: 0x84 }
  - { offset: 0x2B0DF4, size: 0x8, addend: 0x0, symName: _gguf_get_tensor_name, symObjAddr: 0x3E80, symBinAddr: 0xAEC20, symSize: 0x6C }
  - { offset: 0x2B0E75, size: 0x8, addend: 0x0, symName: _gguf_get_tensor_offset, symObjAddr: 0x3EEC, symBinAddr: 0xAEC8C, symSize: 0x6C }
  - { offset: 0x2B0E89, size: 0x8, addend: 0x0, symName: _gguf_get_tensor_offset, symObjAddr: 0x3EEC, symBinAddr: 0xAEC8C, symSize: 0x6C }
  - { offset: 0x2B0F0A, size: 0x8, addend: 0x0, symName: _gguf_get_tensor_type, symObjAddr: 0x3F58, symBinAddr: 0xAECF8, symSize: 0x6C }
  - { offset: 0x2B0F42, size: 0x8, addend: 0x0, symName: _gguf_get_tensor_type, symObjAddr: 0x3F58, symBinAddr: 0xAECF8, symSize: 0x6C }
  - { offset: 0x2B0FE2, size: 0x8, addend: 0x0, symName: _gguf_get_tensor_size, symObjAddr: 0x3FC4, symBinAddr: 0xAED64, symSize: 0x68 }
  - { offset: 0x2B0FF6, size: 0x8, addend: 0x0, symName: _gguf_get_tensor_size, symObjAddr: 0x3FC4, symBinAddr: 0xAED64, symSize: 0x68 }
  - { offset: 0x2B10A4, size: 0x8, addend: 0x0, symName: _gguf_remove_key, symObjAddr: 0x402C, symBinAddr: 0xAEDCC, symSize: 0x140 }
  - { offset: 0x2B143B, size: 0x8, addend: 0x0, symName: _gguf_remove_key, symObjAddr: 0x402C, symBinAddr: 0xAEDCC, symSize: 0x140 }
  - { offset: 0x2B1D4E, size: 0x8, addend: 0x0, symName: __ZNKSt3__111__move_implINS_17_ClassicAlgPolicyEEclB8ne190102IP7gguf_kvS5_S5_EENS_4pairIT_T1_EES7_T0_S8_, symObjAddr: 0x119EC, symBinAddr: 0xBBCFC, symSize: 0x12C }
  - { offset: 0x2B2765, size: 0x8, addend: 0x0, symName: _gguf_set_val_u8, symObjAddr: 0x416C, symBinAddr: 0xAEF0C, symSize: 0x1E4 }
  - { offset: 0x2B2EBF, size: 0x8, addend: 0x0, symName: __ZNSt3__19allocatorI7gguf_kvE9constructB8ne190102IS1_JRPKcRhEEEvPT_DpOT0_, symObjAddr: 0x11C58, symBinAddr: 0xBBF68, symSize: 0x104 }
  - { offset: 0x2B347E, size: 0x8, addend: 0x0, symName: __ZNSt3__16vectorI7gguf_kvNS_9allocatorIS1_EEE24__emplace_back_slow_pathIJRPKcRhEEEPS1_DpOT_, symObjAddr: 0x11B18, symBinAddr: 0xBBE28, symSize: 0x140 }
  - { offset: 0x2B390E, size: 0x8, addend: 0x0, symName: __ZNKSt3__16vectorIaNS_9allocatorIaEEE20__throw_length_errorB8ne190102Ev, symObjAddr: 0xA6B0, symBinAddr: 0xB5294, symSize: 0x14 }
  - { offset: 0x2B3A36, size: 0x8, addend: 0x0, symName: _gguf_set_val_i8, symObjAddr: 0x4350, symBinAddr: 0xAF0F0, symSize: 0x1E4 }
  - { offset: 0x2B417E, size: 0x8, addend: 0x0, symName: __ZNSt3__19allocatorI7gguf_kvE9constructB8ne190102IS1_JRPKcRaEEEvPT_DpOT0_, symObjAddr: 0x11E9C, symBinAddr: 0xBC1AC, symSize: 0x104 }
  - { offset: 0x2B473D, size: 0x8, addend: 0x0, symName: __ZNSt3__16vectorI7gguf_kvNS_9allocatorIS1_EEE24__emplace_back_slow_pathIJRPKcRaEEEPS1_DpOT_, symObjAddr: 0x11D5C, symBinAddr: 0xBC06C, symSize: 0x140 }
  - { offset: 0x2B4CD2, size: 0x8, addend: 0x0, symName: _gguf_set_val_u16, symObjAddr: 0x4534, symBinAddr: 0xAF2D4, symSize: 0x1E4 }
  - { offset: 0x2B541A, size: 0x8, addend: 0x0, symName: __ZNSt3__19allocatorI7gguf_kvE9constructB8ne190102IS1_JRPKcRtEEEvPT_DpOT0_, symObjAddr: 0x120E0, symBinAddr: 0xBC3F0, symSize: 0x104 }
  - { offset: 0x2B59D9, size: 0x8, addend: 0x0, symName: __ZNSt3__16vectorI7gguf_kvNS_9allocatorIS1_EEE24__emplace_back_slow_pathIJRPKcRtEEEPS1_DpOT_, symObjAddr: 0x11FA0, symBinAddr: 0xBC2B0, symSize: 0x140 }
  - { offset: 0x2B5F6E, size: 0x8, addend: 0x0, symName: _gguf_set_val_i16, symObjAddr: 0x4718, symBinAddr: 0xAF4B8, symSize: 0x1E4 }
  - { offset: 0x2B66B6, size: 0x8, addend: 0x0, symName: __ZNSt3__19allocatorI7gguf_kvE9constructB8ne190102IS1_JRPKcRsEEEvPT_DpOT0_, symObjAddr: 0x12324, symBinAddr: 0xBC634, symSize: 0x104 }
  - { offset: 0x2B6C75, size: 0x8, addend: 0x0, symName: __ZNSt3__16vectorI7gguf_kvNS_9allocatorIS1_EEE24__emplace_back_slow_pathIJRPKcRsEEEPS1_DpOT_, symObjAddr: 0x121E4, symBinAddr: 0xBC4F4, symSize: 0x140 }
  - { offset: 0x2B720A, size: 0x8, addend: 0x0, symName: _gguf_set_val_u32, symObjAddr: 0x48FC, symBinAddr: 0xAF69C, symSize: 0x1E8 }
  - { offset: 0x2B7969, size: 0x8, addend: 0x0, symName: __ZNSt3__19allocatorI7gguf_kvE9constructB8ne190102IS1_JRPKcRjEEEvPT_DpOT0_, symObjAddr: 0x12568, symBinAddr: 0xBC878, symSize: 0x104 }
  - { offset: 0x2B7F30, size: 0x8, addend: 0x0, symName: __ZNSt3__16vectorI7gguf_kvNS_9allocatorIS1_EEE24__emplace_back_slow_pathIJRPKcRjEEEPS1_DpOT_, symObjAddr: 0x12428, symBinAddr: 0xBC738, symSize: 0x140 }
  - { offset: 0x2B84C5, size: 0x8, addend: 0x0, symName: _gguf_set_val_i32, symObjAddr: 0x4AE4, symBinAddr: 0xAF884, symSize: 0x1E4 }
  - { offset: 0x2B8C0D, size: 0x8, addend: 0x0, symName: __ZNSt3__19allocatorI7gguf_kvE9constructB8ne190102IS1_JRPKcRiEEEvPT_DpOT0_, symObjAddr: 0x127AC, symBinAddr: 0xBCABC, symSize: 0x104 }
  - { offset: 0x2B91D4, size: 0x8, addend: 0x0, symName: __ZNSt3__16vectorI7gguf_kvNS_9allocatorIS1_EEE24__emplace_back_slow_pathIJRPKcRiEEEPS1_DpOT_, symObjAddr: 0x1266C, symBinAddr: 0xBC97C, symSize: 0x140 }
  - { offset: 0x2B9769, size: 0x8, addend: 0x0, symName: _gguf_set_val_f32, symObjAddr: 0x4CC8, symBinAddr: 0xAFA68, symSize: 0x1E4 }
  - { offset: 0x2B9EB1, size: 0x8, addend: 0x0, symName: __ZNSt3__19allocatorI7gguf_kvE9constructB8ne190102IS1_JRPKcRfEEEvPT_DpOT0_, symObjAddr: 0x129F0, symBinAddr: 0xBCD00, symSize: 0x104 }
  - { offset: 0x2BA479, size: 0x8, addend: 0x0, symName: __ZNSt3__16vectorI7gguf_kvNS_9allocatorIS1_EEE24__emplace_back_slow_pathIJRPKcRfEEEPS1_DpOT_, symObjAddr: 0x128B0, symBinAddr: 0xBCBC0, symSize: 0x140 }
  - { offset: 0x2BAA0E, size: 0x8, addend: 0x0, symName: _gguf_set_val_u64, symObjAddr: 0x4EAC, symBinAddr: 0xAFC4C, symSize: 0x1E0 }
  - { offset: 0x2BB156, size: 0x8, addend: 0x0, symName: __ZNSt3__19allocatorI7gguf_kvE9constructB8ne190102IS1_JRPKcRyEEEvPT_DpOT0_, symObjAddr: 0x12C34, symBinAddr: 0xBCF44, symSize: 0x104 }
  - { offset: 0x2BB71D, size: 0x8, addend: 0x0, symName: __ZNSt3__16vectorI7gguf_kvNS_9allocatorIS1_EEE24__emplace_back_slow_pathIJRPKcRyEEEPS1_DpOT_, symObjAddr: 0x12AF4, symBinAddr: 0xBCE04, symSize: 0x140 }
  - { offset: 0x2BBCB2, size: 0x8, addend: 0x0, symName: _gguf_set_val_i64, symObjAddr: 0x508C, symBinAddr: 0xAFE2C, symSize: 0x1E0 }
  - { offset: 0x2BC3FA, size: 0x8, addend: 0x0, symName: __ZNSt3__19allocatorI7gguf_kvE9constructB8ne190102IS1_JRPKcRxEEEvPT_DpOT0_, symObjAddr: 0x12E78, symBinAddr: 0xBD188, symSize: 0x104 }
  - { offset: 0x2BC9C1, size: 0x8, addend: 0x0, symName: __ZNSt3__16vectorI7gguf_kvNS_9allocatorIS1_EEE24__emplace_back_slow_pathIJRPKcRxEEEPS1_DpOT_, symObjAddr: 0x12D38, symBinAddr: 0xBD048, symSize: 0x140 }
  - { offset: 0x2BCF56, size: 0x8, addend: 0x0, symName: _gguf_set_val_f64, symObjAddr: 0x526C, symBinAddr: 0xB000C, symSize: 0x1E4 }
  - { offset: 0x2BD69E, size: 0x8, addend: 0x0, symName: __ZNSt3__19allocatorI7gguf_kvE9constructB8ne190102IS1_JRPKcRdEEEvPT_DpOT0_, symObjAddr: 0x130BC, symBinAddr: 0xBD3CC, symSize: 0x104 }
  - { offset: 0x2BDC66, size: 0x8, addend: 0x0, symName: __ZNSt3__16vectorI7gguf_kvNS_9allocatorIS1_EEE24__emplace_back_slow_pathIJRPKcRdEEEPS1_DpOT_, symObjAddr: 0x12F7C, symBinAddr: 0xBD28C, symSize: 0x140 }
  - { offset: 0x2BE1FB, size: 0x8, addend: 0x0, symName: _gguf_set_val_bool, symObjAddr: 0x5450, symBinAddr: 0xB01F0, symSize: 0x1E4 }
  - { offset: 0x2BE943, size: 0x8, addend: 0x0, symName: __ZNSt3__19allocatorI7gguf_kvE9constructB8ne190102IS1_JRPKcRbEEEvPT_DpOT0_, symObjAddr: 0x13300, symBinAddr: 0xBD610, symSize: 0x104 }
  - { offset: 0x2BEF02, size: 0x8, addend: 0x0, symName: __ZNSt3__16vectorI7gguf_kvNS_9allocatorIS1_EEE24__emplace_back_slow_pathIJRPKcRbEEEPS1_DpOT_, symObjAddr: 0x131C0, symBinAddr: 0xBD4D0, symSize: 0x140 }
  - { offset: 0x2BF49D, size: 0x8, addend: 0x0, symName: _gguf_set_val_str, symObjAddr: 0x5634, symBinAddr: 0xB03D4, symSize: 0x290 }
  - { offset: 0x2BFFE8, size: 0x8, addend: 0x0, symName: __ZNSt3__19allocatorI7gguf_kvE9constructB8ne190102IS1_JRPKcNS_12basic_stringIcNS_11char_traitsIcEENS0_IcEEEEEEEvPT_DpOT0_, symObjAddr: 0x13544, symBinAddr: 0xBD854, symSize: 0x104 }
  - { offset: 0x2C05B6, size: 0x8, addend: 0x0, symName: __ZNSt3__16vectorI7gguf_kvNS_9allocatorIS1_EEE24__emplace_back_slow_pathIJRPKcNS_12basic_stringIcNS_11char_traitsIcEENS2_IcEEEEEEEPS1_DpOT_, symObjAddr: 0x13404, symBinAddr: 0xBD714, symSize: 0x140 }
  - { offset: 0x2C0D30, size: 0x8, addend: 0x0, symName: _gguf_set_arr_data, symObjAddr: 0x58C4, symBinAddr: 0xB0664, symSize: 0x3A4 }
  - { offset: 0x2C1A73, size: 0x8, addend: 0x0, symName: __ZNSt3__16vectorI7gguf_kvNS_9allocatorIS1_EEE24__emplace_back_slow_pathIJRPKcRNS0_IaNS2_IaEEEEEEEPS1_DpOT_, symObjAddr: 0x13648, symBinAddr: 0xBD958, symSize: 0x140 }
  - { offset: 0x2C1EEB, size: 0x8, addend: 0x0, symName: __ZNSt3__19allocatorI7gguf_kvE9constructB8ne190102IS1_JRPKcRNS_6vectorIaNS0_IaEEEEEEEvPT_DpOT0_, symObjAddr: 0x13788, symBinAddr: 0xBDA98, symSize: 0x104 }
  - { offset: 0x2C24B9, size: 0x8, addend: 0x0, symName: __ZNKSt3__16vectorIaNS_9allocatorIaEEE20__throw_length_errorB8ne190102Ev, symObjAddr: 0xA6B0, symBinAddr: 0xB5294, symSize: 0x14 }
  - { offset: 0x2C24E3, size: 0x8, addend: 0x0, symName: __ZNSt3__114__split_bufferI7gguf_kvRNS_9allocatorIS1_EEED1Ev, symObjAddr: 0xA6C4, symBinAddr: 0xB52A8, symSize: 0x30 }
  - { offset: 0x2C2854, size: 0x8, addend: 0x0, symName: _gguf_set_arr_str, symObjAddr: 0x5C68, symBinAddr: 0xB0A08, symSize: 0x330 }
  - { offset: 0x2C35D6, size: 0x8, addend: 0x0, symName: __ZNSt3__19allocatorI7gguf_kvE9constructB8ne190102IS1_JRPKcRNS_6vectorINS_12basic_stringIcNS_11char_traitsIcEENS0_IcEEEENS0_ISC_EEEEEEEvPT_DpOT0_, symObjAddr: 0x13A4C, symBinAddr: 0xBDCDC, symSize: 0x104 }
  - { offset: 0x2C3BA4, size: 0x8, addend: 0x0, symName: __ZNSt3__16vectorI7gguf_kvNS_9allocatorIS1_EEE24__emplace_back_slow_pathIJRPKcRNS0_INS_12basic_stringIcNS_11char_traitsIcEENS2_IcEEEENS2_ISD_EEEEEEEPS1_DpOT_, symObjAddr: 0x1390C, symBinAddr: 0xBDB9C, symSize: 0x140 }
  - { offset: 0x2C4034, size: 0x8, addend: 0x0, symName: __ZNSt3__16vectorI7gguf_kvNS_9allocatorIS1_EEE24__emplace_back_slow_pathIJRKNS_12basic_stringIcNS_11char_traitsIcEENS2_IcEEEERNS0_ISA_NS2_ISA_EEEEEEEPS1_DpOT_, symObjAddr: 0xE464, symBinAddr: 0xB8C28, symSize: 0x140 }
  - { offset: 0x2C4605, size: 0x8, addend: 0x0, symName: _gguf_set_kv, symObjAddr: 0x6008, symBinAddr: 0xB0D38, symSize: 0x990 }
  - { offset: 0x2C63E8, size: 0x8, addend: 0x0, symName: __ZNKSt3__16vectorIPKcNS_9allocatorIS2_EEE20__throw_length_errorB8ne190102Ev, symObjAddr: 0x13B50, symBinAddr: 0xBDDE0, symSize: 0x14 }
  - { offset: 0x2C6412, size: 0x8, addend: 0x0, symName: __ZN16gguf_writer_base5writeERK7gguf_kv, symObjAddr: 0x13B64, symBinAddr: 0xBDDF4, symSize: 0x314 }
  - { offset: 0x2C6484, size: 0x8, addend: 0x0, symName: _gguf_add_tensor, symObjAddr: 0x6998, symBinAddr: 0xB16C8, symSize: 0x26C }
  - { offset: 0x2C692A, size: 0x8, addend: 0x0, symName: _gguf_set_tensor_type, symObjAddr: 0x6C04, symBinAddr: 0xB1934, symSize: 0x190 }
  - { offset: 0x2C6959, size: 0x8, addend: 0x0, symName: _gguf_set_tensor_type, symObjAddr: 0x6C04, symBinAddr: 0xB1934, symSize: 0x190 }
  - { offset: 0x2C6B81, size: 0x8, addend: 0x0, symName: _gguf_set_tensor_data, symObjAddr: 0x6D94, symBinAddr: 0xB1AC4, symSize: 0xA0 }
  - { offset: 0x2C6B95, size: 0x8, addend: 0x0, symName: _gguf_set_tensor_data, symObjAddr: 0x6D94, symBinAddr: 0xB1AC4, symSize: 0xA0 }
  - { offset: 0x2C73D7, size: 0x8, addend: 0x0, symName: __Z17gguf_write_to_bufPK12gguf_contextRNSt3__16vectorIaNS2_9allocatorIaEEEEb, symObjAddr: 0x6E34, symBinAddr: 0xB1B64, symSize: 0x6A8 }
  - { offset: 0x2C8F40, size: 0x8, addend: 0x0, symName: _gguf_write_to_file_ptr, symObjAddr: 0x74DC, symBinAddr: 0xB220C, symSize: 0x3D0 }
  - { offset: 0x2C8F53, size: 0x8, addend: 0x0, symName: __ZN15gguf_writer_buf5writeEa, symObjAddr: 0x104F0, symBinAddr: 0xBA9B4, symSize: 0xE4 }
  - { offset: 0x2C938A, size: 0x8, addend: 0x0, symName: __ZN15gguf_writer_buf5writeERKNSt3__16vectorIaNS0_9allocatorIaEEEE, symObjAddr: 0x105D4, symBinAddr: 0xBAA98, symSize: 0x48 }
  - { offset: 0x2C939D, size: 0x8, addend: 0x0, symName: __ZN16gguf_writer_base5writeERK7gguf_kv, symObjAddr: 0x13B64, symBinAddr: 0xBDDF4, symSize: 0x314 }
  - { offset: 0x2C97B3, size: 0x8, addend: 0x0, symName: __ZN16gguf_writer_base17write_tensor_metaERK16gguf_tensor_info, symObjAddr: 0x13E78, symBinAddr: 0xBE108, symSize: 0x234 }
  - { offset: 0x2C97C7, size: 0x8, addend: 0x0, symName: __ZN16gguf_writer_base17write_tensor_metaERK16gguf_tensor_info, symObjAddr: 0x13E78, symBinAddr: 0xBE108, symSize: 0x234 }
  - { offset: 0x2C9B44, size: 0x8, addend: 0x0, symName: __ZN15gguf_writer_buf17write_tensor_dataERK16gguf_tensor_infomm, symObjAddr: 0x1061C, symBinAddr: 0xBAAE0, symSize: 0x268 }
  - { offset: 0x2CA23C, size: 0x8, addend: 0x0, symName: __ZNSt3__16vectorIaNS_9allocatorIaEEE18__insert_with_sizeB8ne190102INS_11__wrap_iterIPKaEES8_EENS5_IPaEES8_T_T0_l, symObjAddr: 0x10884, symBinAddr: 0xBAD48, symSize: 0x30C }
  - { offset: 0x2CA3FD, size: 0x8, addend: 0x0, symName: _gguf_write_to_file_ptr, symObjAddr: 0x74DC, symBinAddr: 0xB220C, symSize: 0x3D0 }
  - { offset: 0x2CAA45, size: 0x8, addend: 0x0, symName: __ZN16gguf_writer_file5writeEa, symObjAddr: 0x10B90, symBinAddr: 0xBB054, symSize: 0x278 }
  - { offset: 0x2CB419, size: 0x8, addend: 0x0, symName: __ZN16gguf_writer_file17write_tensor_dataERK16gguf_tensor_infomm, symObjAddr: 0x11094, symBinAddr: 0xBB558, symSize: 0x1C0 }
  - { offset: 0x2CB8D8, size: 0x8, addend: 0x0, symName: _gguf_write_to_file, symObjAddr: 0x78BC, symBinAddr: 0xB25DC, symSize: 0xC4 }
  - { offset: 0x2CB9F7, size: 0x8, addend: 0x0, symName: _gguf_get_meta_size, symObjAddr: 0x7980, symBinAddr: 0xB26A0, symSize: 0x68 }
  - { offset: 0x2CBD81, size: 0x8, addend: 0x0, symName: _gguf_get_meta_data, symObjAddr: 0x79E8, symBinAddr: 0xB2708, symSize: 0x78 }
  - { offset: 0x2CCA04, size: 0x8, addend: 0x0, symName: __ZNK11gguf_reader4readIhEEbRNSt3__16vectorIT_NS1_9allocatorIS3_EEEEm, symObjAddr: 0xA180, symBinAddr: 0xB4E04, symSize: 0x1F4 }
  - { offset: 0x2CD09C, size: 0x8, addend: 0x0, symName: __ZNSt3__16vectorI7gguf_kvNS_9allocatorIS1_EEE24__emplace_back_slow_pathIJRKNS_12basic_stringIcNS_11char_traitsIcEENS2_IcEEEERNS0_IhNS2_IhEEEEEEEPS1_DpOT_, symObjAddr: 0xA374, symBinAddr: 0xB4FF8, symSize: 0x140 }
  - { offset: 0x2CD0B9, size: 0x8, addend: 0x0, symName: __ZN7gguf_kvC2IhEERKNSt3__112basic_stringIcNS1_11char_traitsIcEENS1_9allocatorIcEEEERKNS1_6vectorIT_NS5_ISB_EEEE, symObjAddr: 0xA4B4, symBinAddr: 0xB5138, symSize: 0x15C }
  - { offset: 0x2CD66F, size: 0x8, addend: 0x0, symName: __ZN7gguf_kvC2IhEERKNSt3__112basic_stringIcNS1_11char_traitsIcEENS1_9allocatorIcEEEET_, symObjAddr: 0xAA20, symBinAddr: 0xB5604, symSize: 0xF8 }
  - { offset: 0x2CDB65, size: 0x8, addend: 0x0, symName: __ZNSt3__16vectorI7gguf_kvNS_9allocatorIS1_EEE24__emplace_back_slow_pathIJRKNS_12basic_stringIcNS_11char_traitsIcEENS2_IcEEEERNS0_IhNS2_IhEEEEEEEPS1_DpOT_, symObjAddr: 0xA374, symBinAddr: 0xB4FF8, symSize: 0x140 }
  - { offset: 0x2CE02C, size: 0x8, addend: 0x0, symName: __ZNSt3__16vectorI7gguf_kvNS_9allocatorIS1_EEE24__emplace_back_slow_pathIJRKNS_12basic_stringIcNS_11char_traitsIcEENS2_IcEEEERhEEEPS1_DpOT_, symObjAddr: 0xA8E0, symBinAddr: 0xB54C4, symSize: 0x140 }
  - { offset: 0x2CE80F, size: 0x8, addend: 0x0, symName: __ZNK11gguf_reader4readIaEEbRNSt3__16vectorIT_NS1_9allocatorIS3_EEEEm, symObjAddr: 0xAB18, symBinAddr: 0xB56FC, symSize: 0x1F4 }
  - { offset: 0x2CEEA7, size: 0x8, addend: 0x0, symName: __ZNSt3__16vectorI7gguf_kvNS_9allocatorIS1_EEE24__emplace_back_slow_pathIJRKNS_12basic_stringIcNS_11char_traitsIcEENS2_IcEEEERNS0_IaNS2_IaEEEEEEEPS1_DpOT_, symObjAddr: 0xAD0C, symBinAddr: 0xB58F0, symSize: 0x140 }
  - { offset: 0x2CEEC4, size: 0x8, addend: 0x0, symName: __ZN7gguf_kvC2IaEERKNSt3__112basic_stringIcNS1_11char_traitsIcEENS1_9allocatorIcEEEERKNS1_6vectorIT_NS5_ISB_EEEE, symObjAddr: 0xAE4C, symBinAddr: 0xB5A30, symSize: 0x15C }
  - { offset: 0x2CF4CF, size: 0x8, addend: 0x0, symName: __ZN7gguf_kvC2IaEERKNSt3__112basic_stringIcNS1_11char_traitsIcEENS1_9allocatorIcEEEET_, symObjAddr: 0xB0E8, symBinAddr: 0xB5CCC, symSize: 0xFC }
  - { offset: 0x2CF99D, size: 0x8, addend: 0x0, symName: __ZNSt3__16vectorI7gguf_kvNS_9allocatorIS1_EEE24__emplace_back_slow_pathIJRKNS_12basic_stringIcNS_11char_traitsIcEENS2_IcEEEERNS0_IaNS2_IaEEEEEEEPS1_DpOT_, symObjAddr: 0xAD0C, symBinAddr: 0xB58F0, symSize: 0x140 }
  - { offset: 0x2CFE64, size: 0x8, addend: 0x0, symName: __ZNSt3__16vectorI7gguf_kvNS_9allocatorIS1_EEE24__emplace_back_slow_pathIJRKNS_12basic_stringIcNS_11char_traitsIcEENS2_IcEEEERaEEEPS1_DpOT_, symObjAddr: 0xAFA8, symBinAddr: 0xB5B8C, symSize: 0x140 }
  - { offset: 0x2D0774, size: 0x8, addend: 0x0, symName: __ZNK11gguf_reader4readItEEbRNSt3__16vectorIT_NS1_9allocatorIS3_EEEEm, symObjAddr: 0xB1E4, symBinAddr: 0xB5DC8, symSize: 0x170 }
  - { offset: 0x2D099B, size: 0x8, addend: 0x0, symName: __ZNSt3__16vectorItNS_9allocatorItEEE8__appendEm, symObjAddr: 0xB354, symBinAddr: 0xB5F38, symSize: 0x118 }
  - { offset: 0x2D09B8, size: 0x8, addend: 0x0, symName: __ZN7gguf_kvC2ItEERKNSt3__112basic_stringIcNS1_11char_traitsIcEENS1_9allocatorIcEEEERKNS1_6vectorIT_NS5_ISB_EEEE, symObjAddr: 0xB5C0, symBinAddr: 0xB61A4, symSize: 0x160 }
  - { offset: 0x2D0FC3, size: 0x8, addend: 0x0, symName: __ZN7gguf_kvC2ItEERKNSt3__112basic_stringIcNS1_11char_traitsIcEENS1_9allocatorIcEEEET_, symObjAddr: 0xB860, symBinAddr: 0xB6444, symSize: 0xFC }
  - { offset: 0x2D1491, size: 0x8, addend: 0x0, symName: __ZNSt3__16vectorI7gguf_kvNS_9allocatorIS1_EEE24__emplace_back_slow_pathIJRKNS_12basic_stringIcNS_11char_traitsIcEENS2_IcEEEERNS0_ItNS2_ItEEEEEEEPS1_DpOT_, symObjAddr: 0xB480, symBinAddr: 0xB6064, symSize: 0x140 }
  - { offset: 0x2D1958, size: 0x8, addend: 0x0, symName: __ZNSt3__16vectorI7gguf_kvNS_9allocatorIS1_EEE24__emplace_back_slow_pathIJRKNS_12basic_stringIcNS_11char_traitsIcEENS2_IcEEEERtEEEPS1_DpOT_, symObjAddr: 0xB720, symBinAddr: 0xB6304, symSize: 0x140 }
  - { offset: 0x2D2268, size: 0x8, addend: 0x0, symName: __ZNK11gguf_reader4readIsEEbRNSt3__16vectorIT_NS1_9allocatorIS3_EEEEm, symObjAddr: 0xB95C, symBinAddr: 0xB6540, symSize: 0x170 }
  - { offset: 0x2D248F, size: 0x8, addend: 0x0, symName: __ZNSt3__16vectorIsNS_9allocatorIsEEE8__appendEm, symObjAddr: 0xBACC, symBinAddr: 0xB66B0, symSize: 0x118 }
  - { offset: 0x2D24AC, size: 0x8, addend: 0x0, symName: __ZN7gguf_kvC2IsEERKNSt3__112basic_stringIcNS1_11char_traitsIcEENS1_9allocatorIcEEEERKNS1_6vectorIT_NS5_ISB_EEEE, symObjAddr: 0xBD38, symBinAddr: 0xB691C, symSize: 0x160 }
  - { offset: 0x2D2AB7, size: 0x8, addend: 0x0, symName: __ZN7gguf_kvC2IsEERKNSt3__112basic_stringIcNS1_11char_traitsIcEENS1_9allocatorIcEEEET_, symObjAddr: 0xBFD8, symBinAddr: 0xB6BBC, symSize: 0xFC }
  - { offset: 0x2D2F85, size: 0x8, addend: 0x0, symName: __ZNSt3__16vectorI7gguf_kvNS_9allocatorIS1_EEE24__emplace_back_slow_pathIJRKNS_12basic_stringIcNS_11char_traitsIcEENS2_IcEEEERNS0_IsNS2_IsEEEEEEEPS1_DpOT_, symObjAddr: 0xBBF8, symBinAddr: 0xB67DC, symSize: 0x140 }
  - { offset: 0x2D344C, size: 0x8, addend: 0x0, symName: __ZNSt3__16vectorI7gguf_kvNS_9allocatorIS1_EEE24__emplace_back_slow_pathIJRKNS_12basic_stringIcNS_11char_traitsIcEENS2_IcEEEERsEEEPS1_DpOT_, symObjAddr: 0xBE98, symBinAddr: 0xB6A7C, symSize: 0x140 }
  - { offset: 0x2D3D24, size: 0x8, addend: 0x0, symName: __ZNK11gguf_reader4readIjEEbRNSt3__16vectorIT_NS1_9allocatorIS3_EEEEm, symObjAddr: 0xC0D4, symBinAddr: 0xB6CB8, symSize: 0x170 }
  - { offset: 0x2D3F68, size: 0x8, addend: 0x0, symName: __ZN7gguf_kvC2IjEERKNSt3__112basic_stringIcNS1_11char_traitsIcEENS1_9allocatorIcEEEERKNS1_6vectorIT_NS5_ISB_EEEE, symObjAddr: 0xC4BC, symBinAddr: 0xB6F68, symSize: 0x160 }
  - { offset: 0x2D4573, size: 0x8, addend: 0x0, symName: __ZN7gguf_kvC2IjEERKNSt3__112basic_stringIcNS1_11char_traitsIcEENS1_9allocatorIcEEEET_, symObjAddr: 0xC75C, symBinAddr: 0xB7208, symSize: 0xFC }
  - { offset: 0x2D4A41, size: 0x8, addend: 0x0, symName: __ZNSt3__16vectorI7gguf_kvNS_9allocatorIS1_EEE24__emplace_back_slow_pathIJRKNS_12basic_stringIcNS_11char_traitsIcEENS2_IcEEEERNS0_IjNS2_IjEEEEEEEPS1_DpOT_, symObjAddr: 0xC37C, symBinAddr: 0xB6E28, symSize: 0x140 }
  - { offset: 0x2D4F08, size: 0x8, addend: 0x0, symName: __ZNSt3__16vectorI7gguf_kvNS_9allocatorIS1_EEE24__emplace_back_slow_pathIJRKNS_12basic_stringIcNS_11char_traitsIcEENS2_IcEEEERjEEEPS1_DpOT_, symObjAddr: 0xC61C, symBinAddr: 0xB70C8, symSize: 0x140 }
  - { offset: 0x2D57E8, size: 0x8, addend: 0x0, symName: __ZNK11gguf_reader4readIiEEbRNSt3__16vectorIT_NS1_9allocatorIS3_EEEEm, symObjAddr: 0xC858, symBinAddr: 0xB7304, symSize: 0x170 }
  - { offset: 0x2D5A2C, size: 0x8, addend: 0x0, symName: __ZN7gguf_kvC2IiEERKNSt3__112basic_stringIcNS1_11char_traitsIcEENS1_9allocatorIcEEEERKNS1_6vectorIT_NS5_ISB_EEEE, symObjAddr: 0xCC40, symBinAddr: 0xB75B4, symSize: 0x160 }
  - { offset: 0x2D6037, size: 0x8, addend: 0x0, symName: __ZN7gguf_kvC2IiEERKNSt3__112basic_stringIcNS1_11char_traitsIcEENS1_9allocatorIcEEEET_, symObjAddr: 0xCEE0, symBinAddr: 0xB7854, symSize: 0xFC }
  - { offset: 0x2D6505, size: 0x8, addend: 0x0, symName: __ZNSt3__16vectorI7gguf_kvNS_9allocatorIS1_EEE24__emplace_back_slow_pathIJRKNS_12basic_stringIcNS_11char_traitsIcEENS2_IcEEEERNS0_IiNS2_IiEEEEEEEPS1_DpOT_, symObjAddr: 0xCB00, symBinAddr: 0xB7474, symSize: 0x140 }
  - { offset: 0x2D69CC, size: 0x8, addend: 0x0, symName: __ZNSt3__16vectorI7gguf_kvNS_9allocatorIS1_EEE24__emplace_back_slow_pathIJRKNS_12basic_stringIcNS_11char_traitsIcEENS2_IcEEEERiEEEPS1_DpOT_, symObjAddr: 0xCDA0, symBinAddr: 0xB7714, symSize: 0x140 }
  - { offset: 0x2D72E4, size: 0x8, addend: 0x0, symName: __ZNK11gguf_reader4readIfEEbRNSt3__16vectorIT_NS1_9allocatorIS3_EEEEm, symObjAddr: 0xCFDC, symBinAddr: 0xB7950, symSize: 0x170 }
  - { offset: 0x2D7528, size: 0x8, addend: 0x0, symName: __ZN7gguf_kvC2IfEERKNSt3__112basic_stringIcNS1_11char_traitsIcEENS1_9allocatorIcEEEERKNS1_6vectorIT_NS5_ISB_EEEE, symObjAddr: 0xD3C4, symBinAddr: 0xB7C00, symSize: 0x160 }
  - { offset: 0x2D7B33, size: 0x8, addend: 0x0, symName: __ZN7gguf_kvC2IfEERKNSt3__112basic_stringIcNS1_11char_traitsIcEENS1_9allocatorIcEEEET_, symObjAddr: 0xD664, symBinAddr: 0xB7EA0, symSize: 0x104 }
  - { offset: 0x2D8001, size: 0x8, addend: 0x0, symName: __ZNSt3__16vectorI7gguf_kvNS_9allocatorIS1_EEE24__emplace_back_slow_pathIJRKNS_12basic_stringIcNS_11char_traitsIcEENS2_IcEEEERNS0_IfNS2_IfEEEEEEEPS1_DpOT_, symObjAddr: 0xD284, symBinAddr: 0xB7AC0, symSize: 0x140 }
  - { offset: 0x2D84C8, size: 0x8, addend: 0x0, symName: __ZNSt3__16vectorI7gguf_kvNS_9allocatorIS1_EEE24__emplace_back_slow_pathIJRKNS_12basic_stringIcNS_11char_traitsIcEENS2_IcEEEERfEEEPS1_DpOT_, symObjAddr: 0xD524, symBinAddr: 0xB7D60, symSize: 0x140 }
  - { offset: 0x2D8D93, size: 0x8, addend: 0x0, symName: __ZNK11gguf_reader4readIbEEbRNSt3__16vectorIT_NS1_9allocatorIS3_EEEEm, symObjAddr: 0xD768, symBinAddr: 0xB7FA4, symSize: 0x178 }
  - { offset: 0x2D8FC7, size: 0x8, addend: 0x0, symName: __ZNSt3__16vectorIbNS_9allocatorIbEEE6resizeEmb, symObjAddr: 0xD8E0, symBinAddr: 0xB811C, symSize: 0x268 }
  - { offset: 0x2D8FE4, size: 0x8, addend: 0x0, symName: __ZN7gguf_kvC2IbEERKNSt3__112basic_stringIcNS1_11char_traitsIcEENS1_9allocatorIcEEEERKNS1_6vectorIT_NS5_ISB_EEEE, symObjAddr: 0xDD9C, symBinAddr: 0xB85D8, symSize: 0x160 }
  - { offset: 0x2D9655, size: 0x8, addend: 0x0, symName: __ZN7gguf_kvC2IbEERKNSt3__112basic_stringIcNS1_11char_traitsIcEENS1_9allocatorIcEEEET_, symObjAddr: 0xE03C, symBinAddr: 0xB8878, symSize: 0xFC }
  - { offset: 0x2D9B23, size: 0x8, addend: 0x0, symName: __ZNSt3__16vectorI7gguf_kvNS_9allocatorIS1_EEE24__emplace_back_slow_pathIJRKNS_12basic_stringIcNS_11char_traitsIcEENS2_IcEEEERNS0_IbNS2_IbEEEEEEEPS1_DpOT_, symObjAddr: 0xDC5C, symBinAddr: 0xB8498, symSize: 0x140 }
  - { offset: 0x2D9FEA, size: 0x8, addend: 0x0, symName: __ZNSt3__16vectorI7gguf_kvNS_9allocatorIS1_EEE24__emplace_back_slow_pathIJRKNS_12basic_stringIcNS_11char_traitsIcEENS2_IcEEEERbEEEPS1_DpOT_, symObjAddr: 0xDEFC, symBinAddr: 0xB8738, symSize: 0x140 }
  - { offset: 0x2DA7B7, size: 0x8, addend: 0x0, symName: __ZNK11gguf_reader4readINSt3__112basic_stringIcNS1_11char_traitsIcEENS1_9allocatorIcEEEEEEbRNS1_6vectorIT_NS5_IS9_EEEEm, symObjAddr: 0xE138, symBinAddr: 0xB8974, symSize: 0x130 }
  - { offset: 0x2DAA69, size: 0x8, addend: 0x0, symName: __ZN7gguf_kvC2ERKNSt3__112basic_stringIcNS0_11char_traitsIcEENS0_9allocatorIcEEEERKNS0_6vectorIS6_NS4_IS6_EEEE, symObjAddr: 0xE5A4, symBinAddr: 0xB8D68, symSize: 0x120 }
  - { offset: 0x2DAE4B, size: 0x8, addend: 0x0, symName: __ZN7gguf_kvC2ERKNSt3__112basic_stringIcNS0_11char_traitsIcEENS0_9allocatorIcEEEES8_, symObjAddr: 0xEB54, symBinAddr: 0xB92BC, symSize: 0xF8 }
  - { offset: 0x2DB1A5, size: 0x8, addend: 0x0, symName: __ZNSt3__16vectorI7gguf_kvNS_9allocatorIS1_EEE24__emplace_back_slow_pathIJRKNS_12basic_stringIcNS_11char_traitsIcEENS2_IcEEEERNS0_ISA_NS2_ISA_EEEEEEEPS1_DpOT_, symObjAddr: 0xE464, symBinAddr: 0xB8C28, symSize: 0x140 }
  - { offset: 0x2DB66C, size: 0x8, addend: 0x0, symName: __ZNSt3__16vectorI7gguf_kvNS_9allocatorIS1_EEE24__emplace_back_slow_pathIJRKNS_12basic_stringIcNS_11char_traitsIcEENS2_IcEEEERSA_EEEPS1_DpOT_, symObjAddr: 0xEA14, symBinAddr: 0xB917C, symSize: 0x140 }
  - { offset: 0x2DBF4C, size: 0x8, addend: 0x0, symName: __ZNK11gguf_reader4readIyEEbRNSt3__16vectorIT_NS1_9allocatorIS3_EEEEm, symObjAddr: 0xEDA4, symBinAddr: 0xB93B4, symSize: 0x170 }
  - { offset: 0x2DC173, size: 0x8, addend: 0x0, symName: __ZNSt3__16vectorIyNS_9allocatorIyEEE8__appendEm, symObjAddr: 0xEF14, symBinAddr: 0xB9524, symSize: 0x124 }
  - { offset: 0x2DC190, size: 0x8, addend: 0x0, symName: __ZN7gguf_kvC2IyEERKNSt3__112basic_stringIcNS1_11char_traitsIcEENS1_9allocatorIcEEEERKNS1_6vectorIT_NS5_ISB_EEEE, symObjAddr: 0xF18C, symBinAddr: 0xB979C, symSize: 0x160 }
  - { offset: 0x2DC79B, size: 0x8, addend: 0x0, symName: __ZN7gguf_kvC2IyEERKNSt3__112basic_stringIcNS1_11char_traitsIcEENS1_9allocatorIcEEEET_, symObjAddr: 0xF42C, symBinAddr: 0xB9A3C, symSize: 0xFC }
  - { offset: 0x2DCC69, size: 0x8, addend: 0x0, symName: __ZNSt3__16vectorI7gguf_kvNS_9allocatorIS1_EEE24__emplace_back_slow_pathIJRKNS_12basic_stringIcNS_11char_traitsIcEENS2_IcEEEERNS0_IyNS2_IyEEEEEEEPS1_DpOT_, symObjAddr: 0xF04C, symBinAddr: 0xB965C, symSize: 0x140 }
  - { offset: 0x2DD130, size: 0x8, addend: 0x0, symName: __ZNSt3__16vectorI7gguf_kvNS_9allocatorIS1_EEE24__emplace_back_slow_pathIJRKNS_12basic_stringIcNS_11char_traitsIcEENS2_IcEEEERyEEEPS1_DpOT_, symObjAddr: 0xF2EC, symBinAddr: 0xB98FC, symSize: 0x140 }
  - { offset: 0x2DDA10, size: 0x8, addend: 0x0, symName: __ZNK11gguf_reader4readIxEEbRNSt3__16vectorIT_NS1_9allocatorIS3_EEEEm, symObjAddr: 0xF528, symBinAddr: 0xB9B38, symSize: 0x170 }
  - { offset: 0x2DDC54, size: 0x8, addend: 0x0, symName: __ZN7gguf_kvC2IxEERKNSt3__112basic_stringIcNS1_11char_traitsIcEENS1_9allocatorIcEEEERKNS1_6vectorIT_NS5_ISB_EEEE, symObjAddr: 0xF910, symBinAddr: 0xB9DE8, symSize: 0x160 }
  - { offset: 0x2DE25F, size: 0x8, addend: 0x0, symName: __ZN7gguf_kvC2IxEERKNSt3__112basic_stringIcNS1_11char_traitsIcEENS1_9allocatorIcEEEET_, symObjAddr: 0xFBB0, symBinAddr: 0xBA088, symSize: 0xFC }
  - { offset: 0x2DE72D, size: 0x8, addend: 0x0, symName: __ZNSt3__16vectorI7gguf_kvNS_9allocatorIS1_EEE24__emplace_back_slow_pathIJRKNS_12basic_stringIcNS_11char_traitsIcEENS2_IcEEEERNS0_IxNS2_IxEEEEEEEPS1_DpOT_, symObjAddr: 0xF7D0, symBinAddr: 0xB9CA8, symSize: 0x140 }
  - { offset: 0x2DEBF4, size: 0x8, addend: 0x0, symName: __ZNSt3__16vectorI7gguf_kvNS_9allocatorIS1_EEE24__emplace_back_slow_pathIJRKNS_12basic_stringIcNS_11char_traitsIcEENS2_IcEEEERxEEEPS1_DpOT_, symObjAddr: 0xFA70, symBinAddr: 0xB9F48, symSize: 0x140 }
  - { offset: 0x2DF50C, size: 0x8, addend: 0x0, symName: __ZNK11gguf_reader4readIdEEbRNSt3__16vectorIT_NS1_9allocatorIS3_EEEEm, symObjAddr: 0xFCAC, symBinAddr: 0xBA184, symSize: 0x170 }
  - { offset: 0x2DF733, size: 0x8, addend: 0x0, symName: __ZNSt3__16vectorIdNS_9allocatorIdEEE8__appendEm, symObjAddr: 0xFE1C, symBinAddr: 0xBA2F4, symSize: 0x124 }
  - { offset: 0x2DF750, size: 0x8, addend: 0x0, symName: __ZN7gguf_kvC2IdEERKNSt3__112basic_stringIcNS1_11char_traitsIcEENS1_9allocatorIcEEEERKNS1_6vectorIT_NS5_ISB_EEEE, symObjAddr: 0x10094, symBinAddr: 0xBA558, symSize: 0x160 }
  - { offset: 0x2DFD5B, size: 0x8, addend: 0x0, symName: __ZN7gguf_kvC2IdEERKNSt3__112basic_stringIcNS1_11char_traitsIcEENS1_9allocatorIcEEEET_, symObjAddr: 0x10334, symBinAddr: 0xBA7F8, symSize: 0x104 }
  - { offset: 0x2E0229, size: 0x8, addend: 0x0, symName: __ZNSt3__16vectorI7gguf_kvNS_9allocatorIS1_EEE24__emplace_back_slow_pathIJRKNS_12basic_stringIcNS_11char_traitsIcEENS2_IcEEEERNS0_IdNS2_IdEEEEEEEPS1_DpOT_, symObjAddr: 0xFF54, symBinAddr: 0xBA418, symSize: 0x140 }
  - { offset: 0x2E06F0, size: 0x8, addend: 0x0, symName: __ZNSt3__16vectorI7gguf_kvNS_9allocatorIS1_EEE24__emplace_back_slow_pathIJRKNS_12basic_stringIcNS_11char_traitsIcEENS2_IcEEEERdEEEPS1_DpOT_, symObjAddr: 0x101F4, symBinAddr: 0xBA6B8, symSize: 0x140 }
  - { offset: 0x2E1299, size: 0x8, addend: 0x0, symName: __ZNKSt3__16vectorI7gguf_kvNS_9allocatorIS1_EEE20__throw_length_errorB8ne190102Ev, symObjAddr: 0xA6F4, symBinAddr: 0xB52D8, symSize: 0x14 }
  - { offset: 0x2E12C3, size: 0x8, addend: 0x0, symName: __ZNSt3__134__uninitialized_allocator_relocateB8ne190102INS_9allocatorI7gguf_kvEES2_EEvRT_PT0_S7_S7_, symObjAddr: 0xA708, symBinAddr: 0xB52EC, symSize: 0x11C }
  - { offset: 0x2E12CE, size: 0x8, addend: 0x0, symName: __ZNSt3__114__split_bufferI7gguf_kvRNS_9allocatorIS1_EEED1Ev, symObjAddr: 0xA6C4, symBinAddr: 0xB52A8, symSize: 0x30 }
  - { offset: 0x2E160A, size: 0x8, addend: 0x0, symName: __ZN7gguf_kvC2IhEERKNSt3__112basic_stringIcNS1_11char_traitsIcEENS1_9allocatorIcEEEERKNS1_6vectorIT_NS5_ISB_EEEE.cold.1, symObjAddr: 0x142C8, symBinAddr: 0x1650FC, symSize: 0x10 }
  - { offset: 0x2E1626, size: 0x8, addend: 0x0, symName: __ZN7gguf_kvC2IhEERKNSt3__112basic_stringIcNS1_11char_traitsIcEENS1_9allocatorIcEEEERKNS1_6vectorIT_NS5_ISB_EEEE.cold.1, symObjAddr: 0x142C8, symBinAddr: 0x1650FC, symSize: 0x10 }
  - { offset: 0x2E163B, size: 0x8, addend: 0x0, symName: __ZN7gguf_kvC2IhEERKNSt3__112basic_stringIcNS1_11char_traitsIcEENS1_9allocatorIcEEEERKNS1_6vectorIT_NS5_ISB_EEEE.cold.1, symObjAddr: 0x142C8, symBinAddr: 0x1650FC, symSize: 0x10 }
  - { offset: 0x2E1651, size: 0x8, addend: 0x0, symName: __ZN7gguf_kvC2IhEERKNSt3__112basic_stringIcNS1_11char_traitsIcEENS1_9allocatorIcEEEERKNS1_6vectorIT_NS5_ISB_EEEE.cold.1, symObjAddr: 0x142C8, symBinAddr: 0x1650FC, symSize: 0x10 }
  - { offset: 0x2E1666, size: 0x8, addend: 0x0, symName: __ZNSt3__114__split_bufferI7gguf_kvRNS_9allocatorIS1_EEE5clearB8ne190102Ev, symObjAddr: 0xA824, symBinAddr: 0xB5408, symSize: 0xBC }
  - { offset: 0x2E1E84, size: 0x8, addend: 0x0, symName: __ZN7gguf_kvC2IhEERKNSt3__112basic_stringIcNS1_11char_traitsIcEENS1_9allocatorIcEEEET_.cold.1, symObjAddr: 0x142D8, symBinAddr: 0x16510C, symSize: 0x10 }
  - { offset: 0x2E1EA0, size: 0x8, addend: 0x0, symName: __ZN7gguf_kvC2IhEERKNSt3__112basic_stringIcNS1_11char_traitsIcEENS1_9allocatorIcEEEET_.cold.1, symObjAddr: 0x142D8, symBinAddr: 0x16510C, symSize: 0x10 }
  - { offset: 0x2E1EB5, size: 0x8, addend: 0x0, symName: __ZN7gguf_kvC2IhEERKNSt3__112basic_stringIcNS1_11char_traitsIcEENS1_9allocatorIcEEEET_.cold.1, symObjAddr: 0x142D8, symBinAddr: 0x16510C, symSize: 0x10 }
  - { offset: 0x2E1ECB, size: 0x8, addend: 0x0, symName: __ZN7gguf_kvC2IhEERKNSt3__112basic_stringIcNS1_11char_traitsIcEENS1_9allocatorIcEEEET_.cold.1, symObjAddr: 0x142D8, symBinAddr: 0x16510C, symSize: 0x10 }
  - { offset: 0x2E1FFD, size: 0x8, addend: 0x0, symName: __ZN7gguf_kvC2IaEERKNSt3__112basic_stringIcNS1_11char_traitsIcEENS1_9allocatorIcEEEERKNS1_6vectorIT_NS5_ISB_EEEE.cold.1, symObjAddr: 0x142E8, symBinAddr: 0x16511C, symSize: 0x10 }
  - { offset: 0x2E2019, size: 0x8, addend: 0x0, symName: __ZN7gguf_kvC2IaEERKNSt3__112basic_stringIcNS1_11char_traitsIcEENS1_9allocatorIcEEEERKNS1_6vectorIT_NS5_ISB_EEEE.cold.1, symObjAddr: 0x142E8, symBinAddr: 0x16511C, symSize: 0x10 }
  - { offset: 0x2E202E, size: 0x8, addend: 0x0, symName: __ZN7gguf_kvC2IaEERKNSt3__112basic_stringIcNS1_11char_traitsIcEENS1_9allocatorIcEEEERKNS1_6vectorIT_NS5_ISB_EEEE.cold.1, symObjAddr: 0x142E8, symBinAddr: 0x16511C, symSize: 0x10 }
  - { offset: 0x2E2044, size: 0x8, addend: 0x0, symName: __ZN7gguf_kvC2IaEERKNSt3__112basic_stringIcNS1_11char_traitsIcEENS1_9allocatorIcEEEERKNS1_6vectorIT_NS5_ISB_EEEE.cold.1, symObjAddr: 0x142E8, symBinAddr: 0x16511C, symSize: 0x10 }
  - { offset: 0x2E2059, size: 0x8, addend: 0x0, symName: __ZN7gguf_kvC2IaEERKNSt3__112basic_stringIcNS1_11char_traitsIcEENS1_9allocatorIcEEEET_.cold.1, symObjAddr: 0x142F8, symBinAddr: 0x16512C, symSize: 0x10 }
  - { offset: 0x2E2075, size: 0x8, addend: 0x0, symName: __ZN7gguf_kvC2IaEERKNSt3__112basic_stringIcNS1_11char_traitsIcEENS1_9allocatorIcEEEET_.cold.1, symObjAddr: 0x142F8, symBinAddr: 0x16512C, symSize: 0x10 }
  - { offset: 0x2E208A, size: 0x8, addend: 0x0, symName: __ZN7gguf_kvC2IaEERKNSt3__112basic_stringIcNS1_11char_traitsIcEENS1_9allocatorIcEEEET_.cold.1, symObjAddr: 0x142F8, symBinAddr: 0x16512C, symSize: 0x10 }
  - { offset: 0x2E20A0, size: 0x8, addend: 0x0, symName: __ZN7gguf_kvC2IaEERKNSt3__112basic_stringIcNS1_11char_traitsIcEENS1_9allocatorIcEEEET_.cold.1, symObjAddr: 0x142F8, symBinAddr: 0x16512C, symSize: 0x10 }
  - { offset: 0x2E212F, size: 0x8, addend: 0x0, symName: __ZNSt3__16vectorItNS_9allocatorItEEE8__appendEm, symObjAddr: 0xB354, symBinAddr: 0xB5F38, symSize: 0x118 }
  - { offset: 0x2E2571, size: 0x8, addend: 0x0, symName: __ZNKSt3__16vectorItNS_9allocatorItEEE20__throw_length_errorB8ne190102Ev, symObjAddr: 0xB46C, symBinAddr: 0xB6050, symSize: 0x14 }
  - { offset: 0x2E2822, size: 0x8, addend: 0x0, symName: __ZNKSt3__16vectorItNS_9allocatorItEEE20__throw_length_errorB8ne190102Ev, symObjAddr: 0xB46C, symBinAddr: 0xB6050, symSize: 0x14 }
  - { offset: 0x2E284C, size: 0x8, addend: 0x0, symName: __ZNSt3__16vectorI7gguf_kvNS_9allocatorIS1_EEE24__emplace_back_slow_pathIJRKNS_12basic_stringIcNS_11char_traitsIcEENS2_IcEEEERNS0_ItNS2_ItEEEEEEEPS1_DpOT_, symObjAddr: 0xB480, symBinAddr: 0xB6064, symSize: 0x140 }
  - { offset: 0x2E2857, size: 0x8, addend: 0x0, symName: __ZN7gguf_kvC2ItEERKNSt3__112basic_stringIcNS1_11char_traitsIcEENS1_9allocatorIcEEEERKNS1_6vectorIT_NS5_ISB_EEEE.cold.1, symObjAddr: 0x14308, symBinAddr: 0x16513C, symSize: 0x10 }
  - { offset: 0x2E2873, size: 0x8, addend: 0x0, symName: __ZN7gguf_kvC2ItEERKNSt3__112basic_stringIcNS1_11char_traitsIcEENS1_9allocatorIcEEEERKNS1_6vectorIT_NS5_ISB_EEEE.cold.1, symObjAddr: 0x14308, symBinAddr: 0x16513C, symSize: 0x10 }
  - { offset: 0x2E2888, size: 0x8, addend: 0x0, symName: __ZN7gguf_kvC2ItEERKNSt3__112basic_stringIcNS1_11char_traitsIcEENS1_9allocatorIcEEEERKNS1_6vectorIT_NS5_ISB_EEEE.cold.1, symObjAddr: 0x14308, symBinAddr: 0x16513C, symSize: 0x10 }
  - { offset: 0x2E289E, size: 0x8, addend: 0x0, symName: __ZN7gguf_kvC2ItEERKNSt3__112basic_stringIcNS1_11char_traitsIcEENS1_9allocatorIcEEEERKNS1_6vectorIT_NS5_ISB_EEEE.cold.1, symObjAddr: 0x14308, symBinAddr: 0x16513C, symSize: 0x10 }
  - { offset: 0x2E28B3, size: 0x8, addend: 0x0, symName: __ZN7gguf_kvC2ItEERKNSt3__112basic_stringIcNS1_11char_traitsIcEENS1_9allocatorIcEEEET_.cold.1, symObjAddr: 0x14318, symBinAddr: 0x16514C, symSize: 0x10 }
  - { offset: 0x2E28CF, size: 0x8, addend: 0x0, symName: __ZN7gguf_kvC2ItEERKNSt3__112basic_stringIcNS1_11char_traitsIcEENS1_9allocatorIcEEEET_.cold.1, symObjAddr: 0x14318, symBinAddr: 0x16514C, symSize: 0x10 }
  - { offset: 0x2E28E4, size: 0x8, addend: 0x0, symName: __ZN7gguf_kvC2ItEERKNSt3__112basic_stringIcNS1_11char_traitsIcEENS1_9allocatorIcEEEET_.cold.1, symObjAddr: 0x14318, symBinAddr: 0x16514C, symSize: 0x10 }
  - { offset: 0x2E28FA, size: 0x8, addend: 0x0, symName: __ZN7gguf_kvC2ItEERKNSt3__112basic_stringIcNS1_11char_traitsIcEENS1_9allocatorIcEEEET_.cold.1, symObjAddr: 0x14318, symBinAddr: 0x16514C, symSize: 0x10 }
  - { offset: 0x2E2989, size: 0x8, addend: 0x0, symName: __ZNSt3__16vectorIsNS_9allocatorIsEEE8__appendEm, symObjAddr: 0xBACC, symBinAddr: 0xB66B0, symSize: 0x118 }
  - { offset: 0x2E2DCB, size: 0x8, addend: 0x0, symName: __ZNKSt3__16vectorIsNS_9allocatorIsEEE20__throw_length_errorB8ne190102Ev, symObjAddr: 0xBBE4, symBinAddr: 0xB67C8, symSize: 0x14 }
  - { offset: 0x2E307C, size: 0x8, addend: 0x0, symName: __ZNKSt3__16vectorIsNS_9allocatorIsEEE20__throw_length_errorB8ne190102Ev, symObjAddr: 0xBBE4, symBinAddr: 0xB67C8, symSize: 0x14 }
  - { offset: 0x2E30A6, size: 0x8, addend: 0x0, symName: __ZNSt3__16vectorI7gguf_kvNS_9allocatorIS1_EEE24__emplace_back_slow_pathIJRKNS_12basic_stringIcNS_11char_traitsIcEENS2_IcEEEERNS0_IsNS2_IsEEEEEEEPS1_DpOT_, symObjAddr: 0xBBF8, symBinAddr: 0xB67DC, symSize: 0x140 }
  - { offset: 0x2E30B1, size: 0x8, addend: 0x0, symName: __ZN7gguf_kvC2IsEERKNSt3__112basic_stringIcNS1_11char_traitsIcEENS1_9allocatorIcEEEERKNS1_6vectorIT_NS5_ISB_EEEE.cold.1, symObjAddr: 0x14328, symBinAddr: 0x16515C, symSize: 0x10 }
  - { offset: 0x2E30CD, size: 0x8, addend: 0x0, symName: __ZN7gguf_kvC2IsEERKNSt3__112basic_stringIcNS1_11char_traitsIcEENS1_9allocatorIcEEEERKNS1_6vectorIT_NS5_ISB_EEEE.cold.1, symObjAddr: 0x14328, symBinAddr: 0x16515C, symSize: 0x10 }
  - { offset: 0x2E30E2, size: 0x8, addend: 0x0, symName: __ZN7gguf_kvC2IsEERKNSt3__112basic_stringIcNS1_11char_traitsIcEENS1_9allocatorIcEEEERKNS1_6vectorIT_NS5_ISB_EEEE.cold.1, symObjAddr: 0x14328, symBinAddr: 0x16515C, symSize: 0x10 }
  - { offset: 0x2E30F8, size: 0x8, addend: 0x0, symName: __ZN7gguf_kvC2IsEERKNSt3__112basic_stringIcNS1_11char_traitsIcEENS1_9allocatorIcEEEERKNS1_6vectorIT_NS5_ISB_EEEE.cold.1, symObjAddr: 0x14328, symBinAddr: 0x16515C, symSize: 0x10 }
  - { offset: 0x2E310D, size: 0x8, addend: 0x0, symName: __ZN7gguf_kvC2IsEERKNSt3__112basic_stringIcNS1_11char_traitsIcEENS1_9allocatorIcEEEET_.cold.1, symObjAddr: 0x14338, symBinAddr: 0x16516C, symSize: 0x10 }
  - { offset: 0x2E3129, size: 0x8, addend: 0x0, symName: __ZN7gguf_kvC2IsEERKNSt3__112basic_stringIcNS1_11char_traitsIcEENS1_9allocatorIcEEEET_.cold.1, symObjAddr: 0x14338, symBinAddr: 0x16516C, symSize: 0x10 }
  - { offset: 0x2E313E, size: 0x8, addend: 0x0, symName: __ZN7gguf_kvC2IsEERKNSt3__112basic_stringIcNS1_11char_traitsIcEENS1_9allocatorIcEEEET_.cold.1, symObjAddr: 0x14338, symBinAddr: 0x16516C, symSize: 0x10 }
  - { offset: 0x2E3154, size: 0x8, addend: 0x0, symName: __ZN7gguf_kvC2IsEERKNSt3__112basic_stringIcNS1_11char_traitsIcEENS1_9allocatorIcEEEET_.cold.1, symObjAddr: 0x14338, symBinAddr: 0x16516C, symSize: 0x10 }
  - { offset: 0x2E370F, size: 0x8, addend: 0x0, symName: __ZNSt3__16vectorI7gguf_kvNS_9allocatorIS1_EEE24__emplace_back_slow_pathIJRKNS_12basic_stringIcNS_11char_traitsIcEENS2_IcEEEERNS0_IjNS2_IjEEEEEEEPS1_DpOT_, symObjAddr: 0xC37C, symBinAddr: 0xB6E28, symSize: 0x140 }
  - { offset: 0x2E371A, size: 0x8, addend: 0x0, symName: __ZN7gguf_kvC2IjEERKNSt3__112basic_stringIcNS1_11char_traitsIcEENS1_9allocatorIcEEEERKNS1_6vectorIT_NS5_ISB_EEEE.cold.1, symObjAddr: 0x14348, symBinAddr: 0x16517C, symSize: 0x10 }
  - { offset: 0x2E3736, size: 0x8, addend: 0x0, symName: __ZN7gguf_kvC2IjEERKNSt3__112basic_stringIcNS1_11char_traitsIcEENS1_9allocatorIcEEEERKNS1_6vectorIT_NS5_ISB_EEEE.cold.1, symObjAddr: 0x14348, symBinAddr: 0x16517C, symSize: 0x10 }
  - { offset: 0x2E374B, size: 0x8, addend: 0x0, symName: __ZN7gguf_kvC2IjEERKNSt3__112basic_stringIcNS1_11char_traitsIcEENS1_9allocatorIcEEEERKNS1_6vectorIT_NS5_ISB_EEEE.cold.1, symObjAddr: 0x14348, symBinAddr: 0x16517C, symSize: 0x10 }
  - { offset: 0x2E3761, size: 0x8, addend: 0x0, symName: __ZN7gguf_kvC2IjEERKNSt3__112basic_stringIcNS1_11char_traitsIcEENS1_9allocatorIcEEEERKNS1_6vectorIT_NS5_ISB_EEEE.cold.1, symObjAddr: 0x14348, symBinAddr: 0x16517C, symSize: 0x10 }
  - { offset: 0x2E3776, size: 0x8, addend: 0x0, symName: __ZN7gguf_kvC2IjEERKNSt3__112basic_stringIcNS1_11char_traitsIcEENS1_9allocatorIcEEEET_.cold.1, symObjAddr: 0x14358, symBinAddr: 0x16518C, symSize: 0x10 }
  - { offset: 0x2E3792, size: 0x8, addend: 0x0, symName: __ZN7gguf_kvC2IjEERKNSt3__112basic_stringIcNS1_11char_traitsIcEENS1_9allocatorIcEEEET_.cold.1, symObjAddr: 0x14358, symBinAddr: 0x16518C, symSize: 0x10 }
  - { offset: 0x2E37A7, size: 0x8, addend: 0x0, symName: __ZN7gguf_kvC2IjEERKNSt3__112basic_stringIcNS1_11char_traitsIcEENS1_9allocatorIcEEEET_.cold.1, symObjAddr: 0x14358, symBinAddr: 0x16518C, symSize: 0x10 }
  - { offset: 0x2E37BD, size: 0x8, addend: 0x0, symName: __ZN7gguf_kvC2IjEERKNSt3__112basic_stringIcNS1_11char_traitsIcEENS1_9allocatorIcEEEET_.cold.1, symObjAddr: 0x14358, symBinAddr: 0x16518C, symSize: 0x10 }
  - { offset: 0x2E3D78, size: 0x8, addend: 0x0, symName: __ZNSt3__16vectorI7gguf_kvNS_9allocatorIS1_EEE24__emplace_back_slow_pathIJRKNS_12basic_stringIcNS_11char_traitsIcEENS2_IcEEEERNS0_IiNS2_IiEEEEEEEPS1_DpOT_, symObjAddr: 0xCB00, symBinAddr: 0xB7474, symSize: 0x140 }
  - { offset: 0x2E3D83, size: 0x8, addend: 0x0, symName: __ZN7gguf_kvC2IiEERKNSt3__112basic_stringIcNS1_11char_traitsIcEENS1_9allocatorIcEEEERKNS1_6vectorIT_NS5_ISB_EEEE.cold.1, symObjAddr: 0x14368, symBinAddr: 0x16519C, symSize: 0x10 }
  - { offset: 0x2E3D9F, size: 0x8, addend: 0x0, symName: __ZN7gguf_kvC2IiEERKNSt3__112basic_stringIcNS1_11char_traitsIcEENS1_9allocatorIcEEEERKNS1_6vectorIT_NS5_ISB_EEEE.cold.1, symObjAddr: 0x14368, symBinAddr: 0x16519C, symSize: 0x10 }
  - { offset: 0x2E3DB4, size: 0x8, addend: 0x0, symName: __ZN7gguf_kvC2IiEERKNSt3__112basic_stringIcNS1_11char_traitsIcEENS1_9allocatorIcEEEERKNS1_6vectorIT_NS5_ISB_EEEE.cold.1, symObjAddr: 0x14368, symBinAddr: 0x16519C, symSize: 0x10 }
  - { offset: 0x2E3DCA, size: 0x8, addend: 0x0, symName: __ZN7gguf_kvC2IiEERKNSt3__112basic_stringIcNS1_11char_traitsIcEENS1_9allocatorIcEEEERKNS1_6vectorIT_NS5_ISB_EEEE.cold.1, symObjAddr: 0x14368, symBinAddr: 0x16519C, symSize: 0x10 }
  - { offset: 0x2E3DDF, size: 0x8, addend: 0x0, symName: __ZN7gguf_kvC2IiEERKNSt3__112basic_stringIcNS1_11char_traitsIcEENS1_9allocatorIcEEEET_.cold.1, symObjAddr: 0x14378, symBinAddr: 0x1651AC, symSize: 0x10 }
  - { offset: 0x2E3DFB, size: 0x8, addend: 0x0, symName: __ZN7gguf_kvC2IiEERKNSt3__112basic_stringIcNS1_11char_traitsIcEENS1_9allocatorIcEEEET_.cold.1, symObjAddr: 0x14378, symBinAddr: 0x1651AC, symSize: 0x10 }
  - { offset: 0x2E3E10, size: 0x8, addend: 0x0, symName: __ZN7gguf_kvC2IiEERKNSt3__112basic_stringIcNS1_11char_traitsIcEENS1_9allocatorIcEEEET_.cold.1, symObjAddr: 0x14378, symBinAddr: 0x1651AC, symSize: 0x10 }
  - { offset: 0x2E3E26, size: 0x8, addend: 0x0, symName: __ZN7gguf_kvC2IiEERKNSt3__112basic_stringIcNS1_11char_traitsIcEENS1_9allocatorIcEEEET_.cold.1, symObjAddr: 0x14378, symBinAddr: 0x1651AC, symSize: 0x10 }
  - { offset: 0x2E43ED, size: 0x8, addend: 0x0, symName: __ZNSt3__16vectorI7gguf_kvNS_9allocatorIS1_EEE24__emplace_back_slow_pathIJRKNS_12basic_stringIcNS_11char_traitsIcEENS2_IcEEEERNS0_IfNS2_IfEEEEEEEPS1_DpOT_, symObjAddr: 0xD284, symBinAddr: 0xB7AC0, symSize: 0x140 }
  - { offset: 0x2E43F8, size: 0x8, addend: 0x0, symName: __ZN7gguf_kvC2IfEERKNSt3__112basic_stringIcNS1_11char_traitsIcEENS1_9allocatorIcEEEERKNS1_6vectorIT_NS5_ISB_EEEE.cold.1, symObjAddr: 0x14388, symBinAddr: 0x1651BC, symSize: 0x10 }
  - { offset: 0x2E4414, size: 0x8, addend: 0x0, symName: __ZN7gguf_kvC2IfEERKNSt3__112basic_stringIcNS1_11char_traitsIcEENS1_9allocatorIcEEEERKNS1_6vectorIT_NS5_ISB_EEEE.cold.1, symObjAddr: 0x14388, symBinAddr: 0x1651BC, symSize: 0x10 }
  - { offset: 0x2E4429, size: 0x8, addend: 0x0, symName: __ZN7gguf_kvC2IfEERKNSt3__112basic_stringIcNS1_11char_traitsIcEENS1_9allocatorIcEEEERKNS1_6vectorIT_NS5_ISB_EEEE.cold.1, symObjAddr: 0x14388, symBinAddr: 0x1651BC, symSize: 0x10 }
  - { offset: 0x2E443F, size: 0x8, addend: 0x0, symName: __ZN7gguf_kvC2IfEERKNSt3__112basic_stringIcNS1_11char_traitsIcEENS1_9allocatorIcEEEERKNS1_6vectorIT_NS5_ISB_EEEE.cold.1, symObjAddr: 0x14388, symBinAddr: 0x1651BC, symSize: 0x10 }
  - { offset: 0x2E4454, size: 0x8, addend: 0x0, symName: __ZN7gguf_kvC2IfEERKNSt3__112basic_stringIcNS1_11char_traitsIcEENS1_9allocatorIcEEEET_.cold.1, symObjAddr: 0x14398, symBinAddr: 0x1651CC, symSize: 0x10 }
  - { offset: 0x2E4470, size: 0x8, addend: 0x0, symName: __ZN7gguf_kvC2IfEERKNSt3__112basic_stringIcNS1_11char_traitsIcEENS1_9allocatorIcEEEET_.cold.1, symObjAddr: 0x14398, symBinAddr: 0x1651CC, symSize: 0x10 }
  - { offset: 0x2E4485, size: 0x8, addend: 0x0, symName: __ZN7gguf_kvC2IfEERKNSt3__112basic_stringIcNS1_11char_traitsIcEENS1_9allocatorIcEEEET_.cold.1, symObjAddr: 0x14398, symBinAddr: 0x1651CC, symSize: 0x10 }
  - { offset: 0x2E449B, size: 0x8, addend: 0x0, symName: __ZN7gguf_kvC2IfEERKNSt3__112basic_stringIcNS1_11char_traitsIcEENS1_9allocatorIcEEEET_.cold.1, symObjAddr: 0x14398, symBinAddr: 0x1651CC, symSize: 0x10 }
  - { offset: 0x2E4537, size: 0x8, addend: 0x0, symName: __ZNSt3__16vectorIbNS_9allocatorIbEEE6resizeEmb, symObjAddr: 0xD8E0, symBinAddr: 0xB811C, symSize: 0x268 }
  - { offset: 0x2E4F95, size: 0x8, addend: 0x0, symName: __ZNSt3__16vectorIbNS_9allocatorIbEEE7reserveEm, symObjAddr: 0xDB48, symBinAddr: 0xB8384, symSize: 0x100 }
  - { offset: 0x2E5406, size: 0x8, addend: 0x0, symName: __ZNKSt3__16vectorIbNS_9allocatorIbEEE20__throw_length_errorB8ne190102Ev, symObjAddr: 0xDC48, symBinAddr: 0xB8484, symSize: 0x14 }
  - { offset: 0x2E5419, size: 0x8, addend: 0x0, symName: __ZNKSt3__16vectorIbNS_9allocatorIbEEE20__throw_length_errorB8ne190102Ev, symObjAddr: 0xDC48, symBinAddr: 0xB8484, symSize: 0x14 }
  - { offset: 0x2E5443, size: 0x8, addend: 0x0, symName: __ZNSt3__16vectorI7gguf_kvNS_9allocatorIS1_EEE24__emplace_back_slow_pathIJRKNS_12basic_stringIcNS_11char_traitsIcEENS2_IcEEEERNS0_IbNS2_IbEEEEEEEPS1_DpOT_, symObjAddr: 0xDC5C, symBinAddr: 0xB8498, symSize: 0x140 }
  - { offset: 0x2E564F, size: 0x8, addend: 0x0, symName: __ZN7gguf_kvC2IbEERKNSt3__112basic_stringIcNS1_11char_traitsIcEENS1_9allocatorIcEEEERKNS1_6vectorIT_NS5_ISB_EEEE.cold.1, symObjAddr: 0x143A8, symBinAddr: 0x1651DC, symSize: 0x10 }
  - { offset: 0x2E566B, size: 0x8, addend: 0x0, symName: __ZN7gguf_kvC2IbEERKNSt3__112basic_stringIcNS1_11char_traitsIcEENS1_9allocatorIcEEEERKNS1_6vectorIT_NS5_ISB_EEEE.cold.1, symObjAddr: 0x143A8, symBinAddr: 0x1651DC, symSize: 0x10 }
  - { offset: 0x2E5680, size: 0x8, addend: 0x0, symName: __ZN7gguf_kvC2IbEERKNSt3__112basic_stringIcNS1_11char_traitsIcEENS1_9allocatorIcEEEERKNS1_6vectorIT_NS5_ISB_EEEE.cold.1, symObjAddr: 0x143A8, symBinAddr: 0x1651DC, symSize: 0x10 }
  - { offset: 0x2E5696, size: 0x8, addend: 0x0, symName: __ZN7gguf_kvC2IbEERKNSt3__112basic_stringIcNS1_11char_traitsIcEENS1_9allocatorIcEEEERKNS1_6vectorIT_NS5_ISB_EEEE.cold.1, symObjAddr: 0x143A8, symBinAddr: 0x1651DC, symSize: 0x10 }
  - { offset: 0x2E56AB, size: 0x8, addend: 0x0, symName: __ZN7gguf_kvC2IbEERKNSt3__112basic_stringIcNS1_11char_traitsIcEENS1_9allocatorIcEEEET_.cold.1, symObjAddr: 0x143B8, symBinAddr: 0x1651EC, symSize: 0x10 }
  - { offset: 0x2E56C7, size: 0x8, addend: 0x0, symName: __ZN7gguf_kvC2IbEERKNSt3__112basic_stringIcNS1_11char_traitsIcEENS1_9allocatorIcEEEET_.cold.1, symObjAddr: 0x143B8, symBinAddr: 0x1651EC, symSize: 0x10 }
  - { offset: 0x2E56DC, size: 0x8, addend: 0x0, symName: __ZN7gguf_kvC2IbEERKNSt3__112basic_stringIcNS1_11char_traitsIcEENS1_9allocatorIcEEEET_.cold.1, symObjAddr: 0x143B8, symBinAddr: 0x1651EC, symSize: 0x10 }
  - { offset: 0x2E56F2, size: 0x8, addend: 0x0, symName: __ZN7gguf_kvC2IbEERKNSt3__112basic_stringIcNS1_11char_traitsIcEENS1_9allocatorIcEEEET_.cold.1, symObjAddr: 0x143B8, symBinAddr: 0x1651EC, symSize: 0x10 }
  - { offset: 0x2E5767, size: 0x8, addend: 0x0, symName: __ZNSt3__16vectorINS_12basic_stringIcNS_11char_traitsIcEENS_9allocatorIcEEEENS4_IS6_EEE8__appendEm, symObjAddr: 0xE268, symBinAddr: 0xB8AA4, symSize: 0x184 }
  - { offset: 0x2E6052, size: 0x8, addend: 0x0, symName: __ZNSt3__16vectorINS_12basic_stringIcNS_11char_traitsIcEENS_9allocatorIcEEEENS4_IS6_EEE18__assign_with_sizeB8ne190102IPS6_SA_EEvT_T0_l, symObjAddr: 0xE6C4, symBinAddr: 0xB8E88, symSize: 0x2F4 }
  - { offset: 0x2E6DBE, size: 0x8, addend: 0x0, symName: __ZN7gguf_kvC2ERKNSt3__112basic_stringIcNS0_11char_traitsIcEENS0_9allocatorIcEEEERKNS0_6vectorIS6_NS4_IS6_EEEE.cold.1, symObjAddr: 0x143C8, symBinAddr: 0x1651FC, symSize: 0x10 }
  - { offset: 0x2E6DDA, size: 0x8, addend: 0x0, symName: __ZN7gguf_kvC2ERKNSt3__112basic_stringIcNS0_11char_traitsIcEENS0_9allocatorIcEEEERKNS0_6vectorIS6_NS4_IS6_EEEE.cold.1, symObjAddr: 0x143C8, symBinAddr: 0x1651FC, symSize: 0x10 }
  - { offset: 0x2E6DEF, size: 0x8, addend: 0x0, symName: __ZN7gguf_kvC2ERKNSt3__112basic_stringIcNS0_11char_traitsIcEENS0_9allocatorIcEEEERKNS0_6vectorIS6_NS4_IS6_EEEE.cold.1, symObjAddr: 0x143C8, symBinAddr: 0x1651FC, symSize: 0x10 }
  - { offset: 0x2E6E05, size: 0x8, addend: 0x0, symName: __ZN7gguf_kvC2ERKNSt3__112basic_stringIcNS0_11char_traitsIcEENS0_9allocatorIcEEEERKNS0_6vectorIS6_NS4_IS6_EEEE.cold.1, symObjAddr: 0x143C8, symBinAddr: 0x1651FC, symSize: 0x10 }
  - { offset: 0x2E74CD, size: 0x8, addend: 0x0, symName: __ZN7gguf_kvC2ERKNSt3__112basic_stringIcNS0_11char_traitsIcEENS0_9allocatorIcEEEES8_.cold.1, symObjAddr: 0x143D8, symBinAddr: 0x16520C, symSize: 0x10 }
  - { offset: 0x2E74E9, size: 0x8, addend: 0x0, symName: __ZN7gguf_kvC2ERKNSt3__112basic_stringIcNS0_11char_traitsIcEENS0_9allocatorIcEEEES8_.cold.1, symObjAddr: 0x143D8, symBinAddr: 0x16520C, symSize: 0x10 }
  - { offset: 0x2E74FE, size: 0x8, addend: 0x0, symName: __ZN7gguf_kvC2ERKNSt3__112basic_stringIcNS0_11char_traitsIcEENS0_9allocatorIcEEEES8_.cold.1, symObjAddr: 0x143D8, symBinAddr: 0x16520C, symSize: 0x10 }
  - { offset: 0x2E7514, size: 0x8, addend: 0x0, symName: __ZN7gguf_kvC2ERKNSt3__112basic_stringIcNS0_11char_traitsIcEENS0_9allocatorIcEEEES8_.cold.1, symObjAddr: 0x143D8, symBinAddr: 0x16520C, symSize: 0x10 }
  - { offset: 0x2E76E1, size: 0x8, addend: 0x0, symName: __ZNSt3__16vectorIyNS_9allocatorIyEEE8__appendEm, symObjAddr: 0xEF14, symBinAddr: 0xB9524, symSize: 0x124 }
  - { offset: 0x2E7B23, size: 0x8, addend: 0x0, symName: __ZNKSt3__16vectorIyNS_9allocatorIyEEE20__throw_length_errorB8ne190102Ev, symObjAddr: 0xF038, symBinAddr: 0xB9648, symSize: 0x14 }
  - { offset: 0x2E7DD4, size: 0x8, addend: 0x0, symName: __ZNKSt3__16vectorIyNS_9allocatorIyEEE20__throw_length_errorB8ne190102Ev, symObjAddr: 0xF038, symBinAddr: 0xB9648, symSize: 0x14 }
  - { offset: 0x2E7DFE, size: 0x8, addend: 0x0, symName: __ZNSt3__16vectorI7gguf_kvNS_9allocatorIS1_EEE24__emplace_back_slow_pathIJRKNS_12basic_stringIcNS_11char_traitsIcEENS2_IcEEEERNS0_IyNS2_IyEEEEEEEPS1_DpOT_, symObjAddr: 0xF04C, symBinAddr: 0xB965C, symSize: 0x140 }
  - { offset: 0x2E7E09, size: 0x8, addend: 0x0, symName: __ZN7gguf_kvC2IyEERKNSt3__112basic_stringIcNS1_11char_traitsIcEENS1_9allocatorIcEEEERKNS1_6vectorIT_NS5_ISB_EEEE.cold.1, symObjAddr: 0x143E8, symBinAddr: 0x16521C, symSize: 0x10 }
  - { offset: 0x2E7E25, size: 0x8, addend: 0x0, symName: __ZN7gguf_kvC2IyEERKNSt3__112basic_stringIcNS1_11char_traitsIcEENS1_9allocatorIcEEEERKNS1_6vectorIT_NS5_ISB_EEEE.cold.1, symObjAddr: 0x143E8, symBinAddr: 0x16521C, symSize: 0x10 }
  - { offset: 0x2E7E3A, size: 0x8, addend: 0x0, symName: __ZN7gguf_kvC2IyEERKNSt3__112basic_stringIcNS1_11char_traitsIcEENS1_9allocatorIcEEEERKNS1_6vectorIT_NS5_ISB_EEEE.cold.1, symObjAddr: 0x143E8, symBinAddr: 0x16521C, symSize: 0x10 }
  - { offset: 0x2E7E50, size: 0x8, addend: 0x0, symName: __ZN7gguf_kvC2IyEERKNSt3__112basic_stringIcNS1_11char_traitsIcEENS1_9allocatorIcEEEERKNS1_6vectorIT_NS5_ISB_EEEE.cold.1, symObjAddr: 0x143E8, symBinAddr: 0x16521C, symSize: 0x10 }
  - { offset: 0x2E7E65, size: 0x8, addend: 0x0, symName: __ZN7gguf_kvC2IyEERKNSt3__112basic_stringIcNS1_11char_traitsIcEENS1_9allocatorIcEEEET_.cold.1, symObjAddr: 0x143F8, symBinAddr: 0x16522C, symSize: 0x10 }
  - { offset: 0x2E7E81, size: 0x8, addend: 0x0, symName: __ZN7gguf_kvC2IyEERKNSt3__112basic_stringIcNS1_11char_traitsIcEENS1_9allocatorIcEEEET_.cold.1, symObjAddr: 0x143F8, symBinAddr: 0x16522C, symSize: 0x10 }
  - { offset: 0x2E7E96, size: 0x8, addend: 0x0, symName: __ZN7gguf_kvC2IyEERKNSt3__112basic_stringIcNS1_11char_traitsIcEENS1_9allocatorIcEEEET_.cold.1, symObjAddr: 0x143F8, symBinAddr: 0x16522C, symSize: 0x10 }
  - { offset: 0x2E7EAC, size: 0x8, addend: 0x0, symName: __ZN7gguf_kvC2IyEERKNSt3__112basic_stringIcNS1_11char_traitsIcEENS1_9allocatorIcEEEET_.cold.1, symObjAddr: 0x143F8, symBinAddr: 0x16522C, symSize: 0x10 }
  - { offset: 0x2E8473, size: 0x8, addend: 0x0, symName: __ZNSt3__16vectorI7gguf_kvNS_9allocatorIS1_EEE24__emplace_back_slow_pathIJRKNS_12basic_stringIcNS_11char_traitsIcEENS2_IcEEEERNS0_IxNS2_IxEEEEEEEPS1_DpOT_, symObjAddr: 0xF7D0, symBinAddr: 0xB9CA8, symSize: 0x140 }
  - { offset: 0x2E847E, size: 0x8, addend: 0x0, symName: __ZN7gguf_kvC2IxEERKNSt3__112basic_stringIcNS1_11char_traitsIcEENS1_9allocatorIcEEEERKNS1_6vectorIT_NS5_ISB_EEEE.cold.1, symObjAddr: 0x14408, symBinAddr: 0x16523C, symSize: 0x10 }
  - { offset: 0x2E849A, size: 0x8, addend: 0x0, symName: __ZN7gguf_kvC2IxEERKNSt3__112basic_stringIcNS1_11char_traitsIcEENS1_9allocatorIcEEEERKNS1_6vectorIT_NS5_ISB_EEEE.cold.1, symObjAddr: 0x14408, symBinAddr: 0x16523C, symSize: 0x10 }
  - { offset: 0x2E84AF, size: 0x8, addend: 0x0, symName: __ZN7gguf_kvC2IxEERKNSt3__112basic_stringIcNS1_11char_traitsIcEENS1_9allocatorIcEEEERKNS1_6vectorIT_NS5_ISB_EEEE.cold.1, symObjAddr: 0x14408, symBinAddr: 0x16523C, symSize: 0x10 }
  - { offset: 0x2E84C5, size: 0x8, addend: 0x0, symName: __ZN7gguf_kvC2IxEERKNSt3__112basic_stringIcNS1_11char_traitsIcEENS1_9allocatorIcEEEERKNS1_6vectorIT_NS5_ISB_EEEE.cold.1, symObjAddr: 0x14408, symBinAddr: 0x16523C, symSize: 0x10 }
  - { offset: 0x2E84DA, size: 0x8, addend: 0x0, symName: __ZN7gguf_kvC2IxEERKNSt3__112basic_stringIcNS1_11char_traitsIcEENS1_9allocatorIcEEEET_.cold.1, symObjAddr: 0x14418, symBinAddr: 0x16524C, symSize: 0x10 }
  - { offset: 0x2E84F6, size: 0x8, addend: 0x0, symName: __ZN7gguf_kvC2IxEERKNSt3__112basic_stringIcNS1_11char_traitsIcEENS1_9allocatorIcEEEET_.cold.1, symObjAddr: 0x14418, symBinAddr: 0x16524C, symSize: 0x10 }
  - { offset: 0x2E850B, size: 0x8, addend: 0x0, symName: __ZN7gguf_kvC2IxEERKNSt3__112basic_stringIcNS1_11char_traitsIcEENS1_9allocatorIcEEEET_.cold.1, symObjAddr: 0x14418, symBinAddr: 0x16524C, symSize: 0x10 }
  - { offset: 0x2E8521, size: 0x8, addend: 0x0, symName: __ZN7gguf_kvC2IxEERKNSt3__112basic_stringIcNS1_11char_traitsIcEENS1_9allocatorIcEEEET_.cold.1, symObjAddr: 0x14418, symBinAddr: 0x16524C, symSize: 0x10 }
  - { offset: 0x2E85B0, size: 0x8, addend: 0x0, symName: __ZNSt3__16vectorIdNS_9allocatorIdEEE8__appendEm, symObjAddr: 0xFE1C, symBinAddr: 0xBA2F4, symSize: 0x124 }
  - { offset: 0x2E8CBB, size: 0x8, addend: 0x0, symName: __ZNSt3__16vectorI7gguf_kvNS_9allocatorIS1_EEE24__emplace_back_slow_pathIJRKNS_12basic_stringIcNS_11char_traitsIcEENS2_IcEEEERNS0_IdNS2_IdEEEEEEEPS1_DpOT_, symObjAddr: 0xFF54, symBinAddr: 0xBA418, symSize: 0x140 }
  - { offset: 0x2E8CC6, size: 0x8, addend: 0x0, symName: __ZN7gguf_kvC2IdEERKNSt3__112basic_stringIcNS1_11char_traitsIcEENS1_9allocatorIcEEEERKNS1_6vectorIT_NS5_ISB_EEEE.cold.1, symObjAddr: 0x14428, symBinAddr: 0x16525C, symSize: 0x10 }
  - { offset: 0x2E8CE2, size: 0x8, addend: 0x0, symName: __ZN7gguf_kvC2IdEERKNSt3__112basic_stringIcNS1_11char_traitsIcEENS1_9allocatorIcEEEERKNS1_6vectorIT_NS5_ISB_EEEE.cold.1, symObjAddr: 0x14428, symBinAddr: 0x16525C, symSize: 0x10 }
  - { offset: 0x2E8CF7, size: 0x8, addend: 0x0, symName: __ZN7gguf_kvC2IdEERKNSt3__112basic_stringIcNS1_11char_traitsIcEENS1_9allocatorIcEEEERKNS1_6vectorIT_NS5_ISB_EEEE.cold.1, symObjAddr: 0x14428, symBinAddr: 0x16525C, symSize: 0x10 }
  - { offset: 0x2E8D0D, size: 0x8, addend: 0x0, symName: __ZN7gguf_kvC2IdEERKNSt3__112basic_stringIcNS1_11char_traitsIcEENS1_9allocatorIcEEEERKNS1_6vectorIT_NS5_ISB_EEEE.cold.1, symObjAddr: 0x14428, symBinAddr: 0x16525C, symSize: 0x10 }
  - { offset: 0x2E8D22, size: 0x8, addend: 0x0, symName: __ZN7gguf_kvC2IdEERKNSt3__112basic_stringIcNS1_11char_traitsIcEENS1_9allocatorIcEEEET_.cold.1, symObjAddr: 0x14438, symBinAddr: 0x16526C, symSize: 0x10 }
  - { offset: 0x2E8D3E, size: 0x8, addend: 0x0, symName: __ZN7gguf_kvC2IdEERKNSt3__112basic_stringIcNS1_11char_traitsIcEENS1_9allocatorIcEEEET_.cold.1, symObjAddr: 0x14438, symBinAddr: 0x16526C, symSize: 0x10 }
  - { offset: 0x2E8D53, size: 0x8, addend: 0x0, symName: __ZN7gguf_kvC2IdEERKNSt3__112basic_stringIcNS1_11char_traitsIcEENS1_9allocatorIcEEEET_.cold.1, symObjAddr: 0x14438, symBinAddr: 0x16526C, symSize: 0x10 }
  - { offset: 0x2E8D69, size: 0x8, addend: 0x0, symName: __ZN7gguf_kvC2IdEERKNSt3__112basic_stringIcNS1_11char_traitsIcEENS1_9allocatorIcEEEET_.cold.1, symObjAddr: 0x14438, symBinAddr: 0x16526C, symSize: 0x10 }
  - { offset: 0x2E8DFD, size: 0x8, addend: 0x0, symName: __ZN15gguf_writer_buf5writeERKNSt3__16vectorIaNS0_9allocatorIaEEEE, symObjAddr: 0x105D4, symBinAddr: 0xBAA98, symSize: 0x48 }
  - { offset: 0x2E8F31, size: 0x8, addend: 0x0, symName: __ZNSt3__16vectorIaNS_9allocatorIaEEE18__insert_with_sizeB8ne190102INS_11__wrap_iterIPKaEES8_EENS5_IPaEES8_T_T0_l, symObjAddr: 0x10884, symBinAddr: 0xBAD48, symSize: 0x30C }
  - { offset: 0x2E99D6, size: 0x8, addend: 0x0, symName: __ZN16gguf_writer_file5writeEa, symObjAddr: 0x10B90, symBinAddr: 0xBB054, symSize: 0x278 }
  - { offset: 0x2E9DA1, size: 0x8, addend: 0x0, symName: __ZN16gguf_writer_file5writeERKNSt3__16vectorIaNS0_9allocatorIaEEEE, symObjAddr: 0x10E08, symBinAddr: 0xBB2CC, symSize: 0x28C }
  - { offset: 0x2EAB94, size: 0x8, addend: 0x0, symName: __ZNSt3__13mapI9gguf_typemNS_4lessIS1_EENS_9allocatorINS_4pairIKS1_mEEEEEC2B8ne190102ESt16initializer_listIS7_ERKS3_, symObjAddr: 0x11254, symBinAddr: 0xBB718, symSize: 0xF4 }
  - { offset: 0x2EAFB4, size: 0x8, addend: 0x0, symName: __ZNSt3__16__treeINS_12__value_typeI9gguf_typemEENS_19__map_value_compareIS2_S3_NS_4lessIS2_EELb1EEENS_9allocatorIS3_EEE12__find_equalIS2_EERPNS_16__tree_node_baseIPvEENS_21__tree_const_iteratorIS3_PNS_11__tree_nodeIS3_SD_EElEERPNS_15__tree_end_nodeISF_EESG_RKT_, symObjAddr: 0x11348, symBinAddr: 0xBB80C, symSize: 0x1B0 }
  - { offset: 0x2EB01C, size: 0x8, addend: 0x0, symName: __ZNSt3__16__treeINS_12__value_typeI9gguf_typemEENS_19__map_value_compareIS2_S3_NS_4lessIS2_EELb1EEENS_9allocatorIS3_EEE12__find_equalIS2_EERPNS_16__tree_node_baseIPvEENS_21__tree_const_iteratorIS3_PNS_11__tree_nodeIS3_SD_EElEERPNS_15__tree_end_nodeISF_EESG_RKT_, symObjAddr: 0x11348, symBinAddr: 0xBB80C, symSize: 0x1B0 }
  - { offset: 0x2EB03A, size: 0x8, addend: 0x0, symName: __ZNSt3__16__treeINS_12__value_typeI9gguf_typemEENS_19__map_value_compareIS2_S3_NS_4lessIS2_EELb1EEENS_9allocatorIS3_EEE12__find_equalIS2_EERPNS_16__tree_node_baseIPvEENS_21__tree_const_iteratorIS3_PNS_11__tree_nodeIS3_SD_EElEERPNS_15__tree_end_nodeISF_EESG_RKT_, symObjAddr: 0x11348, symBinAddr: 0xBB80C, symSize: 0x1B0 }
  - { offset: 0x2EB876, size: 0x8, addend: 0x0, symName: __ZNSt3__13mapI9gguf_typePKcNS_4lessIS1_EENS_9allocatorINS_4pairIKS1_S3_EEEEEC2B8ne190102ESt16initializer_listIS9_ERKS5_, symObjAddr: 0x116F0, symBinAddr: 0xBBA00, symSize: 0xF4 }
  - { offset: 0x2EBC96, size: 0x8, addend: 0x0, symName: __ZNSt3__16__treeINS_12__value_typeI9gguf_typePKcEENS_19__map_value_compareIS2_S5_NS_4lessIS2_EELb1EEENS_9allocatorIS5_EEE12__find_equalIS2_EERPNS_16__tree_node_baseIPvEENS_21__tree_const_iteratorIS5_PNS_11__tree_nodeIS5_SF_EElEERPNS_15__tree_end_nodeISH_EESI_RKT_, symObjAddr: 0x117E4, symBinAddr: 0xBBAF4, symSize: 0x1B0 }
  - { offset: 0x2EBCFE, size: 0x8, addend: 0x0, symName: __ZNSt3__16__treeINS_12__value_typeI9gguf_typePKcEENS_19__map_value_compareIS2_S5_NS_4lessIS2_EELb1EEENS_9allocatorIS5_EEE12__find_equalIS2_EERPNS_16__tree_node_baseIPvEENS_21__tree_const_iteratorIS5_PNS_11__tree_nodeIS5_SF_EElEERPNS_15__tree_end_nodeISH_EESI_RKT_, symObjAddr: 0x117E4, symBinAddr: 0xBBAF4, symSize: 0x1B0 }
  - { offset: 0x2EBD1C, size: 0x8, addend: 0x0, symName: __ZNSt3__16__treeINS_12__value_typeI9gguf_typePKcEENS_19__map_value_compareIS2_S5_NS_4lessIS2_EELb1EEENS_9allocatorIS5_EEE12__find_equalIS2_EERPNS_16__tree_node_baseIPvEENS_21__tree_const_iteratorIS5_PNS_11__tree_nodeIS5_SF_EElEERPNS_15__tree_end_nodeISH_EESI_RKT_, symObjAddr: 0x117E4, symBinAddr: 0xBBAF4, symSize: 0x1B0 }
  - { offset: 0x2EC3F8, size: 0x8, addend: 0x0, symName: __ZN16gguf_writer_base5writeERKNSt3__112basic_stringIcNS0_11char_traitsIcEENS0_9allocatorIcEEEE, symObjAddr: 0x140AC, symBinAddr: 0xBE33C, symSize: 0x120 }
  - { offset: 0x2EC6D8, size: 0x8, addend: 0x0, symName: __ZN16gguf_writer_base5writeEPKc, symObjAddr: 0x141CC, symBinAddr: 0xBE45C, symSize: 0xFC }
  - { offset: 0x2ECCC0, size: 0x8, addend: 0x0, symName: __GLOBAL__sub_I_gguf.cpp, symObjAddr: 0x15440, symBinAddr: 0xBE560, symSize: 0x138 }
  - { offset: 0x2ECD95, size: 0x8, addend: 0x0, symName: _OUTLINED_FUNCTION_0, symObjAddr: 0x14448, symBinAddr: 0xBE558, symSize: 0x8 }
  - { offset: 0x2EEB11, size: 0x8, addend: 0x0, symName: _ggml_compute_forward_add_non_quantized, symObjAddr: 0x0, symBinAddr: 0xBE698, symSize: 0x31A4 }
  - { offset: 0x2F17D7, size: 0x8, addend: 0x0, symName: _ggml_compute_forward_add_non_quantized, symObjAddr: 0x0, symBinAddr: 0xBE698, symSize: 0x31A4 }
  - { offset: 0x2F37C6, size: 0x8, addend: 0x0, symName: _ggml_compute_forward_sub, symObjAddr: 0x31A4, symBinAddr: 0xC183C, symSize: 0x31A4 }
  - { offset: 0x2F521D, size: 0x8, addend: 0x0, symName: _ggml_compute_forward_sub, symObjAddr: 0x31A4, symBinAddr: 0xC183C, symSize: 0x31A4 }
  - { offset: 0x2F720C, size: 0x8, addend: 0x0, symName: _ggml_compute_forward_mul, symObjAddr: 0x6348, symBinAddr: 0xC49E0, symSize: 0x31A4 }
  - { offset: 0x2F8BE0, size: 0x8, addend: 0x0, symName: _ggml_compute_forward_mul, symObjAddr: 0x6348, symBinAddr: 0xC49E0, symSize: 0x31A4 }
  - { offset: 0x2FABCF, size: 0x8, addend: 0x0, symName: _ggml_compute_forward_div, symObjAddr: 0x94EC, symBinAddr: 0xC7B84, symSize: 0x31C4 }
  - { offset: 0x2FC5A3, size: 0x8, addend: 0x0, symName: _ggml_compute_forward_div, symObjAddr: 0x94EC, symBinAddr: 0xC7B84, symSize: 0x31C4 }
  - { offset: 0x300487, size: 0x8, addend: 0x0, symName: _ggml_get_type_traits_cpu, symObjAddr: 0x0, symBinAddr: 0xCAD48, symSize: 0x14 }
  - { offset: 0x3004A1, size: 0x8, addend: 0x0, symName: _ggml_arm_arch_features, symObjAddr: 0x22724, symBinAddr: 0x22ECA0, symSize: 0x0 }
  - { offset: 0x3004D7, size: 0x8, addend: 0x0, symName: _ggml_cpu_init, symObjAddr: 0x350C, symBinAddr: 0xCE254, symSize: 0x664 }
  - { offset: 0x3004FB, size: 0x8, addend: 0x0, symName: __MergedGlobals, symObjAddr: 0x22728, symBinAddr: 0x22E888, symSize: 0x0 }
  - { offset: 0x3009F2, size: 0x8, addend: 0x0, symName: _ggml_table_f32_f16, symBinAddr: 0x26F0A4, symSize: 0x0 }
  - { offset: 0x300A20, size: 0x8, addend: 0x0, symName: _ggml_table_f32_e8m0_half, symBinAddr: 0x26ECA4, symSize: 0x0 }
  - { offset: 0x300A45, size: 0x8, addend: 0x0, symName: _type_traits_cpu, symObjAddr: 0x5F90, symBinAddr: 0x196B00, symSize: 0x0 }
  - { offset: 0x300D01, size: 0x8, addend: 0x0, symName: __MergedGlobals, symObjAddr: 0x22728, symBinAddr: 0x22E888, symSize: 0x0 }
  - { offset: 0x3021DE, size: 0x8, addend: 0x0, symName: _ggml_get_type_traits_cpu, symObjAddr: 0x0, symBinAddr: 0xCAD48, symSize: 0x14 }
  - { offset: 0x302215, size: 0x8, addend: 0x0, symName: _ggml_barrier, symObjAddr: 0x14, symBinAddr: 0xCAD5C, symSize: 0x54 }
  - { offset: 0x302266, size: 0x8, addend: 0x0, symName: _ggml_threadpool_chunk_set, symObjAddr: 0x68, symBinAddr: 0xCADB0, symSize: 0x8 }
  - { offset: 0x30229C, size: 0x8, addend: 0x0, symName: _ggml_threadpool_chunk_add, symObjAddr: 0x70, symBinAddr: 0xCADB8, symSize: 0xC }
  - { offset: 0x3022D8, size: 0x8, addend: 0x0, symName: _ggml_numa_init, symObjAddr: 0x7C, symBinAddr: 0xCADC4, symSize: 0x4 }
  - { offset: 0x3022FF, size: 0x8, addend: 0x0, symName: _ggml_is_numa, symObjAddr: 0x80, symBinAddr: 0xCADC8, symSize: 0x8 }
  - { offset: 0x30231A, size: 0x8, addend: 0x0, symName: _ggml_new_i32, symObjAddr: 0x88, symBinAddr: 0xCADD0, symSize: 0x68 }
  - { offset: 0x3023B3, size: 0x8, addend: 0x0, symName: _ggml_set_i32, symObjAddr: 0xF0, symBinAddr: 0xCAE38, symSize: 0x508 }
  - { offset: 0x302406, size: 0x8, addend: 0x0, symName: _ggml_set_i32, symObjAddr: 0xF0, symBinAddr: 0xCAE38, symSize: 0x508 }
  - { offset: 0x3026CE, size: 0x8, addend: 0x0, symName: _ggml_new_f32, symObjAddr: 0x5F8, symBinAddr: 0xCB340, symSize: 0x70 }
  - { offset: 0x30289F, size: 0x8, addend: 0x0, symName: _ggml_new_f32, symObjAddr: 0x5F8, symBinAddr: 0xCB340, symSize: 0x70 }
  - { offset: 0x302938, size: 0x8, addend: 0x0, symName: _ggml_set_f32, symObjAddr: 0x668, symBinAddr: 0xCB3B0, symSize: 0x520 }
  - { offset: 0x30294C, size: 0x8, addend: 0x0, symName: _ggml_set_f32, symObjAddr: 0x668, symBinAddr: 0xCB3B0, symSize: 0x520 }
  - { offset: 0x302C10, size: 0x8, addend: 0x0, symName: _ggml_get_i32_1d, symObjAddr: 0xB88, symBinAddr: 0xCB8D0, symSize: 0x300 }
  - { offset: 0x302CCD, size: 0x8, addend: 0x0, symName: _ggml_get_i32_1d, symObjAddr: 0xB88, symBinAddr: 0xCB8D0, symSize: 0x300 }
  - { offset: 0x302E47, size: 0x8, addend: 0x0, symName: _ggml_get_i32_nd, symObjAddr: 0xE88, symBinAddr: 0xCBBD0, symSize: 0xC8 }
  - { offset: 0x302EA3, size: 0x8, addend: 0x0, symName: _ggml_get_i32_nd, symObjAddr: 0xE88, symBinAddr: 0xCBBD0, symSize: 0xC8 }
  - { offset: 0x302F1E, size: 0x8, addend: 0x0, symName: _ggml_set_i32_1d, symObjAddr: 0xF50, symBinAddr: 0xCBC98, symSize: 0x320 }
  - { offset: 0x3030D4, size: 0x8, addend: 0x0, symName: _ggml_set_i32_1d, symObjAddr: 0xF50, symBinAddr: 0xCBC98, symSize: 0x320 }
  - { offset: 0x303362, size: 0x8, addend: 0x0, symName: _ggml_set_i32_nd, symObjAddr: 0x1270, symBinAddr: 0xCBFB8, symSize: 0x170 }
  - { offset: 0x303376, size: 0x8, addend: 0x0, symName: _ggml_set_i32_nd, symObjAddr: 0x1270, symBinAddr: 0xCBFB8, symSize: 0x170 }
  - { offset: 0x30353C, size: 0x8, addend: 0x0, symName: _ggml_get_f32_1d, symObjAddr: 0x13E0, symBinAddr: 0xCC128, symSize: 0x1E8 }
  - { offset: 0x3035DA, size: 0x8, addend: 0x0, symName: _ggml_get_f32_1d, symObjAddr: 0x13E0, symBinAddr: 0xCC128, symSize: 0x1E8 }
  - { offset: 0x303706, size: 0x8, addend: 0x0, symName: _ggml_get_f32_nd, symObjAddr: 0x15C8, symBinAddr: 0xCC310, symSize: 0xD8 }
  - { offset: 0x30371A, size: 0x8, addend: 0x0, symName: _ggml_get_f32_nd, symObjAddr: 0x15C8, symBinAddr: 0xCC310, symSize: 0xD8 }
  - { offset: 0x3037B3, size: 0x8, addend: 0x0, symName: _ggml_set_f32_1d, symObjAddr: 0x16A0, symBinAddr: 0xCC3E8, symSize: 0x268 }
  - { offset: 0x3037C7, size: 0x8, addend: 0x0, symName: _ggml_set_f32_1d, symObjAddr: 0x16A0, symBinAddr: 0xCC3E8, symSize: 0x268 }
  - { offset: 0x3039C4, size: 0x8, addend: 0x0, symName: _ggml_set_f32_nd, symObjAddr: 0x1908, symBinAddr: 0xCC650, symSize: 0x170 }
  - { offset: 0x3039D8, size: 0x8, addend: 0x0, symName: _ggml_set_f32_nd, symObjAddr: 0x1908, symBinAddr: 0xCC650, symSize: 0x170 }
  - { offset: 0x303B9E, size: 0x8, addend: 0x0, symName: _ggml_compute_forward_mul_mat, symObjAddr: 0x1A78, symBinAddr: 0xCC7C0, symSize: 0xAA8 }
  - { offset: 0x303FDD, size: 0x8, addend: 0x0, symName: _ggml_compute_forward_mul_mat, symObjAddr: 0x1A78, symBinAddr: 0xCC7C0, symSize: 0xAA8 }
  - { offset: 0x3048AB, size: 0x8, addend: 0x0, symName: _ggml_threadpool_free, symObjAddr: 0x2520, symBinAddr: 0xCD268, symSize: 0xF4 }
  - { offset: 0x304916, size: 0x8, addend: 0x0, symName: _ggml_threadpool_free, symObjAddr: 0x2520, symBinAddr: 0xCD268, symSize: 0xF4 }
  - { offset: 0x304A47, size: 0x8, addend: 0x0, symName: _ggml_threadpool_pause, symObjAddr: 0x2614, symBinAddr: 0xCD35C, symSize: 0x40 }
  - { offset: 0x304B1D, size: 0x8, addend: 0x0, symName: _ggml_threadpool_pause, symObjAddr: 0x2614, symBinAddr: 0xCD35C, symSize: 0x40 }
  - { offset: 0x304BB9, size: 0x8, addend: 0x0, symName: _ggml_threadpool_resume, symObjAddr: 0x2654, symBinAddr: 0xCD39C, symSize: 0x3C }
  - { offset: 0x304E63, size: 0x8, addend: 0x0, symName: _ggml_graph_plan, symObjAddr: 0x2690, symBinAddr: 0xCD3D8, symSize: 0x7B8 }
  - { offset: 0x305492, size: 0x8, addend: 0x0, symName: _ggml_threadpool_new, symObjAddr: 0x2E48, symBinAddr: 0xCDB90, symSize: 0xC }
  - { offset: 0x305768, size: 0x8, addend: 0x0, symName: _ggml_threadpool_new, symObjAddr: 0x2E48, symBinAddr: 0xCDB90, symSize: 0xC }
  - { offset: 0x3057B6, size: 0x8, addend: 0x0, symName: _ggml_threadpool_new_impl, symObjAddr: 0x2E54, symBinAddr: 0xCDB9C, symSize: 0x42C }
  - { offset: 0x305AC6, size: 0x8, addend: 0x0, symName: _ggml_graph_compute, symObjAddr: 0x3280, symBinAddr: 0xCDFC8, symSize: 0x28C }
  - { offset: 0x305DC5, size: 0x8, addend: 0x0, symName: _ggml_graph_compute, symObjAddr: 0x3280, symBinAddr: 0xCDFC8, symSize: 0x28C }
  - { offset: 0x30605E, size: 0x8, addend: 0x0, symName: _ggml_cpu_init, symObjAddr: 0x350C, symBinAddr: 0xCE254, symSize: 0x664 }
  - { offset: 0x306101, size: 0x8, addend: 0x0, symName: _ggml_graph_compute_thread, symObjAddr: 0x3B70, symBinAddr: 0xCE8B8, symSize: 0x964 }
  - { offset: 0x307791, size: 0x8, addend: 0x0, symName: _ggml_compute_forward_mul_mat_id, symObjAddr: 0x4E5C, symBinAddr: 0xCFBA4, symSize: 0xBD8 }
  - { offset: 0x30869A, size: 0x8, addend: 0x0, symName: _ggml_graph_compute_with_ctx, symObjAddr: 0x4658, symBinAddr: 0xCF3A0, symSize: 0x68 }
  - { offset: 0x308772, size: 0x8, addend: 0x0, symName: _ggml_cpu_fp32_to_fp32, symObjAddr: 0x46C0, symBinAddr: 0xCF408, symSize: 0x14 }
  - { offset: 0x3087BD, size: 0x8, addend: 0x0, symName: _ggml_cpu_fp32_to_fp16, symObjAddr: 0x46D4, symBinAddr: 0xCF41C, symSize: 0x1A4 }
  - { offset: 0x30891D, size: 0x8, addend: 0x0, symName: _ggml_cpu_fp16_to_fp32, symObjAddr: 0x4878, symBinAddr: 0xCF5C0, symSize: 0x98 }
  - { offset: 0x30898C, size: 0x8, addend: 0x0, symName: _ggml_cpu_fp32_to_bf16, symObjAddr: 0x4910, symBinAddr: 0xCF658, symSize: 0xE4 }
  - { offset: 0x3089FB, size: 0x8, addend: 0x0, symName: _ggml_cpu_fp32_to_i32, symObjAddr: 0x49F4, symBinAddr: 0xCF73C, symSize: 0x80 }
  - { offset: 0x308A51, size: 0x8, addend: 0x0, symName: _ggml_cpu_bf16_to_fp32, symObjAddr: 0x4A74, symBinAddr: 0xCF7BC, symSize: 0xB0 }
  - { offset: 0x308ACA, size: 0x8, addend: 0x0, symName: _ggml_cpu_has_avx, symObjAddr: 0x4B24, symBinAddr: 0xCF86C, symSize: 0x8 }
  - { offset: 0x308AE5, size: 0x8, addend: 0x0, symName: _ggml_cpu_has_avx_vnni, symObjAddr: 0x4B2C, symBinAddr: 0xCF874, symSize: 0x8 }
  - { offset: 0x308B00, size: 0x8, addend: 0x0, symName: _ggml_cpu_has_avx2, symObjAddr: 0x4B34, symBinAddr: 0xCF87C, symSize: 0x8 }
  - { offset: 0x308B1B, size: 0x8, addend: 0x0, symName: _ggml_cpu_has_avx512, symObjAddr: 0x4B3C, symBinAddr: 0xCF884, symSize: 0x8 }
  - { offset: 0x308B36, size: 0x8, addend: 0x0, symName: _ggml_cpu_has_avx512_vbmi, symObjAddr: 0x4B44, symBinAddr: 0xCF88C, symSize: 0x8 }
  - { offset: 0x308B51, size: 0x8, addend: 0x0, symName: _ggml_cpu_has_avx512_vnni, symObjAddr: 0x4B4C, symBinAddr: 0xCF894, symSize: 0x8 }
  - { offset: 0x308B6C, size: 0x8, addend: 0x0, symName: _ggml_cpu_has_avx512_bf16, symObjAddr: 0x4B54, symBinAddr: 0xCF89C, symSize: 0x8 }
  - { offset: 0x308B87, size: 0x8, addend: 0x0, symName: _ggml_cpu_has_amx_int8, symObjAddr: 0x4B5C, symBinAddr: 0xCF8A4, symSize: 0x8 }
  - { offset: 0x308BA2, size: 0x8, addend: 0x0, symName: _ggml_cpu_has_bmi2, symObjAddr: 0x4B64, symBinAddr: 0xCF8AC, symSize: 0x8 }
  - { offset: 0x308BBD, size: 0x8, addend: 0x0, symName: _ggml_cpu_has_fma, symObjAddr: 0x4B6C, symBinAddr: 0xCF8B4, symSize: 0x8 }
  - { offset: 0x308BD8, size: 0x8, addend: 0x0, symName: _ggml_cpu_has_arm_fma, symObjAddr: 0x4B74, symBinAddr: 0xCF8BC, symSize: 0x8 }
  - { offset: 0x308BF3, size: 0x8, addend: 0x0, symName: _ggml_cpu_has_riscv_v, symObjAddr: 0x4B7C, symBinAddr: 0xCF8C4, symSize: 0x8 }
  - { offset: 0x308C0E, size: 0x8, addend: 0x0, symName: _ggml_cpu_get_rvv_vlen, symObjAddr: 0x4B84, symBinAddr: 0xCF8CC, symSize: 0x8 }
  - { offset: 0x308C29, size: 0x8, addend: 0x0, symName: _ggml_cpu_has_f16c, symObjAddr: 0x4B8C, symBinAddr: 0xCF8D4, symSize: 0x8 }
  - { offset: 0x308C44, size: 0x8, addend: 0x0, symName: _ggml_cpu_has_fp16_va, symObjAddr: 0x4B94, symBinAddr: 0xCF8DC, symSize: 0x8 }
  - { offset: 0x308C5F, size: 0x8, addend: 0x0, symName: _ggml_cpu_has_wasm_simd, symObjAddr: 0x4B9C, symBinAddr: 0xCF8E4, symSize: 0x8 }
  - { offset: 0x308C7A, size: 0x8, addend: 0x0, symName: _ggml_cpu_has_llamafile, symObjAddr: 0x4BA4, symBinAddr: 0xCF8EC, symSize: 0x8 }
  - { offset: 0x308C95, size: 0x8, addend: 0x0, symName: _ggml_cpu_has_sse3, symObjAddr: 0x4BAC, symBinAddr: 0xCF8F4, symSize: 0x8 }
  - { offset: 0x308CB0, size: 0x8, addend: 0x0, symName: _ggml_cpu_has_ssse3, symObjAddr: 0x4BB4, symBinAddr: 0xCF8FC, symSize: 0x8 }
  - { offset: 0x308CCB, size: 0x8, addend: 0x0, symName: _ggml_cpu_has_vsx, symObjAddr: 0x4BBC, symBinAddr: 0xCF904, symSize: 0x8 }
  - { offset: 0x308CE6, size: 0x8, addend: 0x0, symName: _ggml_cpu_has_vxe, symObjAddr: 0x4BC4, symBinAddr: 0xCF90C, symSize: 0x8 }
  - { offset: 0x308D01, size: 0x8, addend: 0x0, symName: _ggml_cpu_has_neon, symObjAddr: 0x4BCC, symBinAddr: 0xCF914, symSize: 0x8 }
  - { offset: 0x308D1C, size: 0x8, addend: 0x0, symName: _ggml_cpu_has_dotprod, symObjAddr: 0x4BD4, symBinAddr: 0xCF91C, symSize: 0x8 }
  - { offset: 0x308D37, size: 0x8, addend: 0x0, symName: _ggml_cpu_has_sve, symObjAddr: 0x4BDC, symBinAddr: 0xCF924, symSize: 0x8 }
  - { offset: 0x308D52, size: 0x8, addend: 0x0, symName: _ggml_cpu_has_matmul_int8, symObjAddr: 0x4BE4, symBinAddr: 0xCF92C, symSize: 0x8 }
  - { offset: 0x308D6D, size: 0x8, addend: 0x0, symName: _ggml_cpu_get_sve_cnt, symObjAddr: 0x4BEC, symBinAddr: 0xCF934, symSize: 0x8 }
  - { offset: 0x308D88, size: 0x8, addend: 0x0, symName: _ggml_cpu_has_sme, symObjAddr: 0x4BF4, symBinAddr: 0xCF93C, symSize: 0x8 }
  - { offset: 0x308E73, size: 0x8, addend: 0x0, symName: _ggml_graph_compute_secondary_thread, symObjAddr: 0x4BFC, symBinAddr: 0xCF944, symSize: 0x260 }
  - { offset: 0x3094FA, size: 0x8, addend: 0x0, symName: __Z39ggml_backend_cpu_get_extra_buffer_typesv, symObjAddr: 0x0, symBinAddr: 0xD077C, symSize: 0x94 }
  - { offset: 0x309508, size: 0x8, addend: 0x0, symName: __Z39ggml_backend_cpu_get_extra_buffer_typesv, symObjAddr: 0x0, symBinAddr: 0xD077C, symSize: 0x94 }
  - { offset: 0x309528, size: 0x8, addend: 0x0, symName: __MergedGlobals.51, symObjAddr: 0x45F80, symBinAddr: 0x22E890, symSize: 0x0 }
  - { offset: 0x30EF6A, size: 0x8, addend: 0x0, symName: _ggml_backend_cpu_reg, symObjAddr: 0x2CC, symBinAddr: 0xD0A48, symSize: 0x1C }
  - { offset: 0x30EF8B, size: 0x8, addend: 0x0, symName: __MergedGlobals, symObjAddr: 0x3AD8, symBinAddr: 0x198370, symSize: 0x0 }
  - { offset: 0x30EFB1, size: 0x8, addend: 0x0, symName: __ZL18ggml_backend_cpu_i, symObjAddr: 0x3740, symBinAddr: 0x197040, symSize: 0x0 }
  - { offset: 0x30EFC4, size: 0x8, addend: 0x0, symName: __ZL31ggml_backend_cpu_reg_get_deviceP16ggml_backend_regm, symObjAddr: 0x4E4, symBinAddr: 0xD0C60, symSize: 0xF0 }
  - { offset: 0x30EFF0, size: 0x8, addend: 0x0, symName: __MergedGlobals.51, symObjAddr: 0x45F80, symBinAddr: 0x22E890, symSize: 0x0 }
  - { offset: 0x30F009, size: 0x8, addend: 0x0, symName: __MergedGlobals.51, symObjAddr: 0x45F80, symBinAddr: 0x22E890, symSize: 0x0 }
  - { offset: 0x30F18A, size: 0x8, addend: 0x0, symName: __ZL25ggml_backend_cpu_device_i, symObjAddr: 0x37C0, symBinAddr: 0x1970C0, symSize: 0x0 }
  - { offset: 0x30F19D, size: 0x8, addend: 0x0, symName: __ZL46ggml_backend_cpu_device_get_extra_buffers_typeP19ggml_backend_device, symObjAddr: 0x1184, symBinAddr: 0xD1850, symSize: 0x94 }
  - { offset: 0x30F1C7, size: 0x8, addend: 0x0, symName: __MergedGlobals.51, symObjAddr: 0x45F80, symBinAddr: 0x22E890, symSize: 0x0 }
  - { offset: 0x30F214, size: 0x8, addend: 0x0, symName: __ZL29ggml_backend_cpu_get_featuresP16ggml_backend_reg, symObjAddr: 0x1218, symBinAddr: 0xD18E4, symSize: 0x94 }
  - { offset: 0x30F240, size: 0x8, addend: 0x0, symName: __MergedGlobals.51, symObjAddr: 0x45F80, symBinAddr: 0x22E890, symSize: 0x0 }
  - { offset: 0x30F453, size: 0x8, addend: 0x0, symName: '__ZZL29ggml_backend_cpu_get_featuresP16ggml_backend_regENK3$_0clEv', symObjAddr: 0x148C, symBinAddr: 0xD1B58, symSize: 0x1DA0 }
  - { offset: 0x30F47C, size: 0x8, addend: 0x0, symName: __MergedGlobals.51, symObjAddr: 0x45F80, symBinAddr: 0x22E890, symSize: 0x0 }
  - { offset: 0x30F496, size: 0x8, addend: 0x0, symName: __MergedGlobals.51, symObjAddr: 0x45F80, symBinAddr: 0x22E890, symSize: 0x0 }
  - { offset: 0x316140, size: 0x8, addend: 0x0, symName: '__ZZ39ggml_backend_cpu_get_extra_buffer_typesvENK3$_0clEv', symObjAddr: 0x94, symBinAddr: 0xD0810, symSize: 0x144 }
  - { offset: 0x316ABB, size: 0x8, addend: 0x0, symName: __ZNSt3__16vectorIP24ggml_backend_buffer_typeNS_9allocatorIS2_EEED1B8ne190102Ev, symObjAddr: 0x1D8, symBinAddr: 0xD0954, symSize: 0x34 }
  - { offset: 0x316AE1, size: 0x8, addend: 0x0, symName: __ZNSt3__16vectorIP24ggml_backend_buffer_typeNS_9allocatorIS2_EEED1B8ne190102Ev, symObjAddr: 0x1D8, symBinAddr: 0xD0954, symSize: 0x34 }
  - { offset: 0x316B01, size: 0x8, addend: 0x0, symName: __ZNSt3__16vectorIP24ggml_backend_buffer_typeNS_9allocatorIS2_EEED1B8ne190102Ev, symObjAddr: 0x1D8, symBinAddr: 0xD0954, symSize: 0x34 }
  - { offset: 0x316C29, size: 0x8, addend: 0x0, symName: _ggml_backend_cpu_init, symObjAddr: 0x20C, symBinAddr: 0xD0988, symSize: 0xC0 }
  - { offset: 0x316CB7, size: 0x8, addend: 0x0, symName: _ggml_backend_is_cpu, symObjAddr: 0x2E8, symBinAddr: 0xD0A64, symSize: 0x18 }
  - { offset: 0x316D15, size: 0x8, addend: 0x0, symName: _ggml_backend_cpu_set_n_threads, symObjAddr: 0x300, symBinAddr: 0xD0A7C, symSize: 0x6C }
  - { offset: 0x316D8E, size: 0x8, addend: 0x0, symName: _ggml_backend_cpu_set_threadpool, symObjAddr: 0x36C, symBinAddr: 0xD0AE8, symSize: 0x80 }
  - { offset: 0x316DBC, size: 0x8, addend: 0x0, symName: _ggml_backend_cpu_set_threadpool, symObjAddr: 0x36C, symBinAddr: 0xD0AE8, symSize: 0x80 }
  - { offset: 0x316E47, size: 0x8, addend: 0x0, symName: _ggml_backend_cpu_set_abort_callback, symObjAddr: 0x3EC, symBinAddr: 0xD0B68, symSize: 0x78 }
  - { offset: 0x316E68, size: 0x8, addend: 0x0, symName: _ggml_backend_cpu_set_abort_callback, symObjAddr: 0x3EC, symBinAddr: 0xD0B68, symSize: 0x78 }
  - { offset: 0x316EF6, size: 0x8, addend: 0x0, symName: _ggml_backend_cpu_set_use_ref, symObjAddr: 0x464, symBinAddr: 0xD0BE0, symSize: 0x6C }
  - { offset: 0x316F0A, size: 0x8, addend: 0x0, symName: _ggml_backend_cpu_set_use_ref, symObjAddr: 0x464, symBinAddr: 0xD0BE0, symSize: 0x6C }
  - { offset: 0x316F87, size: 0x8, addend: 0x0, symName: __ZL29ggml_backend_cpu_reg_get_nameP16ggml_backend_reg, symObjAddr: 0x4D0, symBinAddr: 0xD0C4C, symSize: 0xC }
  - { offset: 0x316F9B, size: 0x8, addend: 0x0, symName: __ZL29ggml_backend_cpu_reg_get_nameP16ggml_backend_reg, symObjAddr: 0x4D0, symBinAddr: 0xD0C4C, symSize: 0xC }
  - { offset: 0x316FC7, size: 0x8, addend: 0x0, symName: __ZL37ggml_backend_cpu_reg_get_device_countP16ggml_backend_reg, symObjAddr: 0x4DC, symBinAddr: 0xD0C58, symSize: 0x8 }
  - { offset: 0x316FF3, size: 0x8, addend: 0x0, symName: __ZN31ggml_backend_cpu_device_contextC1Ev, symObjAddr: 0x9F0, symBinAddr: 0xD10BC, symSize: 0xB4 }
  - { offset: 0x317320, size: 0x8, addend: 0x0, symName: __ZL31ggml_backend_cpu_reg_get_deviceP16ggml_backend_regm.cold.1, symObjAddr: 0x3274, symBinAddr: 0x16527C, symSize: 0x5C }
  - { offset: 0x317338, size: 0x8, addend: 0x0, symName: __ZL33ggml_backend_cpu_get_proc_addressP16ggml_backend_regPKc, symObjAddr: 0x5D4, symBinAddr: 0xD0D50, symSize: 0x1A4 }
  - { offset: 0x3174CD, size: 0x8, addend: 0x0, symName: __ZL25ggml_backend_cpu_get_nameP12ggml_backend, symObjAddr: 0x828, symBinAddr: 0xD0EF4, symSize: 0xC }
  - { offset: 0x3174F7, size: 0x8, addend: 0x0, symName: __ZL21ggml_backend_cpu_freeP12ggml_backend, symObjAddr: 0x834, symBinAddr: 0xD0F00, symSize: 0x38 }
  - { offset: 0x317532, size: 0x8, addend: 0x0, symName: __ZL34ggml_backend_cpu_graph_plan_createP12ggml_backendPK11ggml_cgraph, symObjAddr: 0x86C, symBinAddr: 0xD0F38, symSize: 0xB4 }
  - { offset: 0x3175CA, size: 0x8, addend: 0x0, symName: __ZL32ggml_backend_cpu_graph_plan_freeP12ggml_backendPv, symObjAddr: 0x920, symBinAddr: 0xD0FEC, symSize: 0x2C }
  - { offset: 0x317610, size: 0x8, addend: 0x0, symName: __ZL35ggml_backend_cpu_graph_plan_computeP12ggml_backendPv, symObjAddr: 0x94C, symBinAddr: 0xD1018, symSize: 0x8 }
  - { offset: 0x31768A, size: 0x8, addend: 0x0, symName: __ZL30ggml_backend_cpu_graph_computeP12ggml_backendP11ggml_cgraph, symObjAddr: 0x954, symBinAddr: 0xD1020, symSize: 0x9C }
  - { offset: 0x3179A8, size: 0x8, addend: 0x0, symName: __ZN31ggml_backend_cpu_device_contextD1Ev, symObjAddr: 0xAA4, symBinAddr: 0xD1170, symSize: 0x38 }
  - { offset: 0x317A21, size: 0x8, addend: 0x0, symName: __ZN31ggml_backend_cpu_device_contextD1Ev, symObjAddr: 0xAA4, symBinAddr: 0xD1170, symSize: 0x38 }
  - { offset: 0x317B1E, size: 0x8, addend: 0x0, symName: __ZL32ggml_backend_cpu_device_get_nameP19ggml_backend_device, symObjAddr: 0xADC, symBinAddr: 0xD11A8, symSize: 0xC }
  - { offset: 0x317BA2, size: 0x8, addend: 0x0, symName: __ZL39ggml_backend_cpu_device_get_descriptionP19ggml_backend_device, symObjAddr: 0xAE8, symBinAddr: 0xD11B4, symSize: 0x18 }
  - { offset: 0x317C54, size: 0x8, addend: 0x0, symName: __ZL34ggml_backend_cpu_device_get_memoryP19ggml_backend_devicePmS1_, symObjAddr: 0xB00, symBinAddr: 0xD11CC, symSize: 0x48 }
  - { offset: 0x317CD6, size: 0x8, addend: 0x0, symName: __ZL32ggml_backend_cpu_device_get_typeP19ggml_backend_device, symObjAddr: 0xB48, symBinAddr: 0xD1214, symSize: 0x8 }
  - { offset: 0x317D7B, size: 0x8, addend: 0x0, symName: __ZL33ggml_backend_cpu_device_get_propsP19ggml_backend_deviceP22ggml_backend_dev_props, symObjAddr: 0xB50, symBinAddr: 0xD121C, symSize: 0x64 }
  - { offset: 0x317F0E, size: 0x8, addend: 0x0, symName: __ZL36ggml_backend_cpu_device_init_backendP19ggml_backend_devicePKc, symObjAddr: 0xBB4, symBinAddr: 0xD1280, symSize: 0xC0 }
  - { offset: 0x317FA5, size: 0x8, addend: 0x0, symName: __ZL39ggml_backend_cpu_device_get_buffer_typeP19ggml_backend_device, symObjAddr: 0xC74, symBinAddr: 0xD1340, symSize: 0x4 }
  - { offset: 0x317FD4, size: 0x8, addend: 0x0, symName: __ZL39ggml_backend_cpu_device_get_buffer_typeP19ggml_backend_device, symObjAddr: 0xC74, symBinAddr: 0xD1340, symSize: 0x4 }
  - { offset: 0x317FEC, size: 0x8, addend: 0x0, symName: __ZL44ggml_backend_cpu_device_buffer_from_host_ptrP19ggml_backend_devicePvmm, symObjAddr: 0xC78, symBinAddr: 0xD1344, symSize: 0xC }
  - { offset: 0x31810F, size: 0x8, addend: 0x0, symName: __ZL35ggml_backend_cpu_device_supports_opP19ggml_backend_devicePK11ggml_tensor, symObjAddr: 0xC84, symBinAddr: 0xD1350, symSize: 0x42C }
  - { offset: 0x318394, size: 0x8, addend: 0x0, symName: __ZL37ggml_backend_cpu_device_supports_buftP19ggml_backend_deviceP24ggml_backend_buffer_type, symObjAddr: 0x10B0, symBinAddr: 0xD177C, symSize: 0xD4 }
  - { offset: 0x3184AD, size: 0x8, addend: 0x0, symName: '__ZZL46ggml_backend_cpu_device_get_extra_buffers_typeP19ggml_backend_deviceENK3$_0clEv', symObjAddr: 0x12AC, symBinAddr: 0xD1978, symSize: 0x1E0 }
  - { offset: 0x319247, size: 0x8, addend: 0x0, symName: __ZNKSt3__16vectorI20ggml_backend_featureNS_9allocatorIS1_EEE20__throw_length_errorB8ne190102Ev, symObjAddr: 0x3260, symBinAddr: 0xD392C, symSize: 0x14 }
  - { offset: 0x319271, size: 0x8, addend: 0x0, symName: __ZL31ggml_backend_cpu_reg_get_deviceP16ggml_backend_regm.cold.1, symObjAddr: 0x3274, symBinAddr: 0x16527C, symSize: 0x5C }
  - { offset: 0x31927C, size: 0x8, addend: 0x0, symName: __ZNSt3__16vectorI20ggml_backend_featureNS_9allocatorIS1_EEED1B8ne190102Ev, symObjAddr: 0x322C, symBinAddr: 0xD38F8, symSize: 0x34 }
  - { offset: 0x3192A2, size: 0x8, addend: 0x0, symName: __ZNSt3__16vectorI20ggml_backend_featureNS_9allocatorIS1_EEED1B8ne190102Ev, symObjAddr: 0x322C, symBinAddr: 0xD38F8, symSize: 0x34 }
  - { offset: 0x3192C2, size: 0x8, addend: 0x0, symName: __ZNSt3__16vectorI20ggml_backend_featureNS_9allocatorIS1_EEED1B8ne190102Ev, symObjAddr: 0x322C, symBinAddr: 0xD38F8, symSize: 0x34 }
  - { offset: 0x31B2C5, size: 0x8, addend: 0x0, symName: _ggml_compute_forward_dup, symObjAddr: 0x0, symBinAddr: 0xD3940, symSize: 0x59E8 }
  - { offset: 0x31B31F, size: 0x8, addend: 0x0, symName: __ZNSt3__111__introsortINS_17_ClassicAlgPolicyER11cmp_argsortIL15ggml_sort_order0EEPiLb0EEEvT1_S7_T0_NS_15iterator_traitsIS7_E15difference_typeEb, symObjAddr: 0x31A44, symBinAddr: 0x105384, symSize: 0x8DC }
  - { offset: 0x31CF96, size: 0x8, addend: 0x0, symName: __ZNSt3__127__insertion_sort_incompleteB8ne190102INS_17_ClassicAlgPolicyER11cmp_argsortIL15ggml_sort_order0EEPiEEbT1_S7_T0_, symObjAddr: 0x32320, symBinAddr: 0x105C60, symSize: 0x388 }
  - { offset: 0x31D9E3, size: 0x8, addend: 0x0, symName: __ZNSt3__111__introsortINS_17_ClassicAlgPolicyER11cmp_argsortIL15ggml_sort_order1EEPiLb0EEEvT1_S7_T0_NS_15iterator_traitsIS7_E15difference_typeEb, symObjAddr: 0x32C0C, symBinAddr: 0x10654C, symSize: 0x8DC }
  - { offset: 0x31F65A, size: 0x8, addend: 0x0, symName: __ZNSt3__127__insertion_sort_incompleteB8ne190102INS_17_ClassicAlgPolicyER11cmp_argsortIL15ggml_sort_order1EEPiEEbT1_S7_T0_, symObjAddr: 0x334E8, symBinAddr: 0x106E28, symSize: 0x388 }
  - { offset: 0x3206D0, size: 0x8, addend: 0x0, symName: __ZNSt3__119__partial_sort_implB8ne190102INS_17_ClassicAlgPolicyER9cmp_top_kPiS4_EET1_S5_S5_T2_OT0_, symObjAddr: 0x33DD4, symBinAddr: 0x107714, symSize: 0x398 }
  - { offset: 0x3212B2, size: 0x8, addend: 0x0, symName: __ZNSt3__17__sort5B8ne190102INS_17_ClassicAlgPolicyER11cmp_argsortIL15ggml_sort_order0EEPiEEvT1_S7_S7_S7_S7_T0_, symObjAddr: 0x326A8, symBinAddr: 0x105FE8, symSize: 0x1CC }
  - { offset: 0x321324, size: 0x8, addend: 0x0, symName: __ZNSt3__17__sort5B8ne190102INS_17_ClassicAlgPolicyER11cmp_argsortIL15ggml_sort_order0EEPiEEvT1_S7_S7_S7_S7_T0_, symObjAddr: 0x326A8, symBinAddr: 0x105FE8, symSize: 0x1CC }
  - { offset: 0x321A05, size: 0x8, addend: 0x0, symName: __ZNSt3__119__partial_sort_implB8ne190102INS_17_ClassicAlgPolicyER11cmp_argsortIL15ggml_sort_order0EEPiS6_EET1_S7_S7_T2_OT0_, symObjAddr: 0x32874, symBinAddr: 0x1061B4, symSize: 0x398 }
  - { offset: 0x3226B3, size: 0x8, addend: 0x0, symName: __ZNSt3__17__sort5B8ne190102INS_17_ClassicAlgPolicyER11cmp_argsortIL15ggml_sort_order1EEPiEEvT1_S7_S7_S7_S7_T0_, symObjAddr: 0x33870, symBinAddr: 0x1071B0, symSize: 0x1CC }
  - { offset: 0x322725, size: 0x8, addend: 0x0, symName: __ZNSt3__17__sort5B8ne190102INS_17_ClassicAlgPolicyER11cmp_argsortIL15ggml_sort_order1EEPiEEvT1_S7_S7_S7_S7_T0_, symObjAddr: 0x33870, symBinAddr: 0x1071B0, symSize: 0x1CC }
  - { offset: 0x322E06, size: 0x8, addend: 0x0, symName: __ZNSt3__119__partial_sort_implB8ne190102INS_17_ClassicAlgPolicyER11cmp_argsortIL15ggml_sort_order1EEPiS6_EET1_S7_S7_T2_OT0_, symObjAddr: 0x33A3C, symBinAddr: 0x10737C, symSize: 0x398 }
  - { offset: 0x326B7F, size: 0x8, addend: 0x0, symName: _ggml_compute_forward_dup, symObjAddr: 0x0, symBinAddr: 0xD3940, symSize: 0x59E8 }
  - { offset: 0x3296DC, size: 0x8, addend: 0x0, symName: __ZL28ggml_compute_forward_dup_fltIftEvPK19ggml_compute_paramsP11ggml_tensor, symObjAddr: 0x59E8, symBinAddr: 0xD9328, symSize: 0x1178 }
  - { offset: 0x32977F, size: 0x8, addend: 0x0, symName: __ZL28ggml_compute_forward_dup_fltIftEvPK19ggml_compute_paramsP11ggml_tensor, symObjAddr: 0x59E8, symBinAddr: 0xD9328, symSize: 0x1178 }
  - { offset: 0x329FCD, size: 0x8, addend: 0x0, symName: __ZL28ggml_compute_forward_dup_fltIf11ggml_bf16_tEvPK19ggml_compute_paramsP11ggml_tensor, symObjAddr: 0x6B60, symBinAddr: 0xDA4A0, symSize: 0x9C4 }
  - { offset: 0x329FF2, size: 0x8, addend: 0x0, symName: __ZL28ggml_compute_forward_dup_fltIf11ggml_bf16_tEvPK19ggml_compute_paramsP11ggml_tensor, symObjAddr: 0x6B60, symBinAddr: 0xDA4A0, symSize: 0x9C4 }
  - { offset: 0x32A59D, size: 0x8, addend: 0x0, symName: __ZL28ggml_compute_forward_dup_fltIffEvPK19ggml_compute_paramsP11ggml_tensor, symObjAddr: 0x7524, symBinAddr: 0xDAE64, symSize: 0x618 }
  - { offset: 0x32A663, size: 0x8, addend: 0x0, symName: __ZL29ggml_compute_forward_dup_to_qIfEvPK19ggml_compute_paramsP11ggml_tensor, symObjAddr: 0x85E4, symBinAddr: 0xDBF24, symSize: 0x488 }
  - { offset: 0x32A9E4, size: 0x8, addend: 0x0, symName: _ggml_compute_forward_add, symObjAddr: 0x8A6C, symBinAddr: 0xDC3AC, symSize: 0x910 }
  - { offset: 0x32AA01, size: 0x8, addend: 0x0, symName: __ZL28ggml_compute_forward_dup_fltIffEvPK19ggml_compute_paramsP11ggml_tensor, symObjAddr: 0x7524, symBinAddr: 0xDAE64, symSize: 0x618 }
  - { offset: 0x32AF1E, size: 0x8, addend: 0x0, symName: __ZL28ggml_compute_forward_dup_fltIfiEvPK19ggml_compute_paramsP11ggml_tensor, symObjAddr: 0x7B3C, symBinAddr: 0xDB47C, symSize: 0xAA8 }
  - { offset: 0x32AF43, size: 0x8, addend: 0x0, symName: __ZL28ggml_compute_forward_dup_fltIfiEvPK19ggml_compute_paramsP11ggml_tensor, symObjAddr: 0x7B3C, symBinAddr: 0xDB47C, symSize: 0xAA8 }
  - { offset: 0x32B492, size: 0x8, addend: 0x0, symName: __ZL29ggml_compute_forward_dup_to_qIfEvPK19ggml_compute_paramsP11ggml_tensor, symObjAddr: 0x85E4, symBinAddr: 0xDBF24, symSize: 0x488 }
  - { offset: 0x32B7E3, size: 0x8, addend: 0x0, symName: _ggml_compute_forward_add, symObjAddr: 0x8A6C, symBinAddr: 0xDC3AC, symSize: 0x910 }
  - { offset: 0x32BC27, size: 0x8, addend: 0x0, symName: _ggml_compute_forward_add_id, symObjAddr: 0x937C, symBinAddr: 0xDCCBC, symSize: 0x55C }
  - { offset: 0x32BF29, size: 0x8, addend: 0x0, symName: _ggml_compute_forward_add_id, symObjAddr: 0x937C, symBinAddr: 0xDCCBC, symSize: 0x55C }
  - { offset: 0x32C1B7, size: 0x8, addend: 0x0, symName: _ggml_compute_forward_add1, symObjAddr: 0x98D8, symBinAddr: 0xDD218, symSize: 0x864 }
  - { offset: 0x32C5A9, size: 0x8, addend: 0x0, symName: _ggml_compute_forward_add1, symObjAddr: 0x98D8, symBinAddr: 0xDD218, symSize: 0x864 }
  - { offset: 0x32CBDD, size: 0x8, addend: 0x0, symName: __ZL33ggml_compute_forward_add1_f16_f16PK19ggml_compute_paramsP11ggml_tensor, symObjAddr: 0xA13C, symBinAddr: 0xDDA7C, symSize: 0x4A4 }
  - { offset: 0x32CC04, size: 0x8, addend: 0x0, symName: __ZL35ggml_compute_forward_add1_bf16_bf16PK19ggml_compute_paramsP11ggml_tensor, symObjAddr: 0xAA80, symBinAddr: 0xDE3C0, symSize: 0x3E0 }
  - { offset: 0x32CF86, size: 0x8, addend: 0x0, symName: __ZL34ggml_compute_forward_add1_bf16_f32PK19ggml_compute_paramsP11ggml_tensor, symObjAddr: 0xAE60, symBinAddr: 0xDE7A0, symSize: 0x3E0 }
  - { offset: 0x32CFC6, size: 0x8, addend: 0x0, symName: __ZL33ggml_compute_forward_add1_f16_f16PK19ggml_compute_paramsP11ggml_tensor, symObjAddr: 0xA13C, symBinAddr: 0xDDA7C, symSize: 0x4A4 }
  - { offset: 0x32D419, size: 0x8, addend: 0x0, symName: __ZL33ggml_compute_forward_add1_f16_f32PK19ggml_compute_paramsP11ggml_tensor, symObjAddr: 0xA5E0, symBinAddr: 0xDDF20, symSize: 0x4A0 }
  - { offset: 0x32D42D, size: 0x8, addend: 0x0, symName: __ZL34ggml_compute_forward_add1_bf16_f32PK19ggml_compute_paramsP11ggml_tensor, symObjAddr: 0xAE60, symBinAddr: 0xDE7A0, symSize: 0x3E0 }
  - { offset: 0x32D7AF, size: 0x8, addend: 0x0, symName: _ggml_compute_forward_acc, symObjAddr: 0xB240, symBinAddr: 0xDEB80, symSize: 0x374 }
  - { offset: 0x32D7C3, size: 0x8, addend: 0x0, symName: __ZL33ggml_compute_forward_add1_f16_f32PK19ggml_compute_paramsP11ggml_tensor, symObjAddr: 0xA5E0, symBinAddr: 0xDDF20, symSize: 0x4A0 }
  - { offset: 0x32DC16, size: 0x8, addend: 0x0, symName: __ZL35ggml_compute_forward_add1_bf16_bf16PK19ggml_compute_paramsP11ggml_tensor, symObjAddr: 0xAA80, symBinAddr: 0xDE3C0, symSize: 0x3E0 }
  - { offset: 0x32DDEA, size: 0x8, addend: 0x0, symName: _ggml_compute_forward_acc, symObjAddr: 0xB240, symBinAddr: 0xDEB80, symSize: 0x374 }
  - { offset: 0x32E0E5, size: 0x8, addend: 0x0, symName: _ggml_compute_forward_sum, symObjAddr: 0xB5B4, symBinAddr: 0xDEEF4, symSize: 0x81C }
  - { offset: 0x32E4D5, size: 0x8, addend: 0x0, symName: _ggml_compute_forward_sum, symObjAddr: 0xB5B4, symBinAddr: 0xDEEF4, symSize: 0x81C }
  - { offset: 0x32E933, size: 0x8, addend: 0x0, symName: _ggml_compute_forward_cumsum, symObjAddr: 0xBDD0, symBinAddr: 0xDF710, symSize: 0x2F0 }
  - { offset: 0x32EB71, size: 0x8, addend: 0x0, symName: _ggml_compute_forward_cumsum, symObjAddr: 0xBDD0, symBinAddr: 0xDF710, symSize: 0x2F0 }
  - { offset: 0x32EDEB, size: 0x8, addend: 0x0, symName: _ggml_compute_forward_sum_rows, symObjAddr: 0xC0C0, symBinAddr: 0xDFA00, symSize: 0x28C }
  - { offset: 0x32EF90, size: 0x8, addend: 0x0, symName: _ggml_compute_forward_sum_rows, symObjAddr: 0xC0C0, symBinAddr: 0xDFA00, symSize: 0x28C }
  - { offset: 0x32F1C1, size: 0x8, addend: 0x0, symName: _ggml_compute_forward_mean, symObjAddr: 0xC34C, symBinAddr: 0xDFC8C, symSize: 0x16C }
  - { offset: 0x32F326, size: 0x8, addend: 0x0, symName: _ggml_compute_forward_mean, symObjAddr: 0xC34C, symBinAddr: 0xDFC8C, symSize: 0x16C }
  - { offset: 0x32F468, size: 0x8, addend: 0x0, symName: _ggml_compute_forward_argmax, symObjAddr: 0xC4B8, symBinAddr: 0xDFDF8, symSize: 0x114 }
  - { offset: 0x32F57B, size: 0x8, addend: 0x0, symName: _ggml_compute_forward_argmax, symObjAddr: 0xC4B8, symBinAddr: 0xDFDF8, symSize: 0x114 }
  - { offset: 0x32F67F, size: 0x8, addend: 0x0, symName: _ggml_compute_forward_count_equal, symObjAddr: 0xC5CC, symBinAddr: 0xDFF0C, symSize: 0x464 }
  - { offset: 0x32F905, size: 0x8, addend: 0x0, symName: _ggml_compute_forward_count_equal, symObjAddr: 0xC5CC, symBinAddr: 0xDFF0C, symSize: 0x464 }
  - { offset: 0x32FB86, size: 0x8, addend: 0x0, symName: _ggml_compute_forward_repeat, symObjAddr: 0xCA30, symBinAddr: 0xE0370, symSize: 0xA2C }
  - { offset: 0x32FF55, size: 0x8, addend: 0x0, symName: _ggml_compute_forward_repeat, symObjAddr: 0xCA30, symBinAddr: 0xE0370, symSize: 0xA2C }
  - { offset: 0x33037D, size: 0x8, addend: 0x0, symName: _ggml_compute_forward_repeat_back, symObjAddr: 0xD45C, symBinAddr: 0xE0D9C, symSize: 0x7AC }
  - { offset: 0x3305BF, size: 0x8, addend: 0x0, symName: _ggml_compute_forward_repeat_back, symObjAddr: 0xD45C, symBinAddr: 0xE0D9C, symSize: 0x7AC }
  - { offset: 0x3308D4, size: 0x8, addend: 0x0, symName: _ggml_compute_forward_concat, symObjAddr: 0xDC08, symBinAddr: 0xE1548, symSize: 0xF8C }
  - { offset: 0x331145, size: 0x8, addend: 0x0, symName: _ggml_compute_forward_concat, symObjAddr: 0xDC08, symBinAddr: 0xE1548, symSize: 0xF8C }
  - { offset: 0x3318AD, size: 0x8, addend: 0x0, symName: _ggml_compute_forward_fill, symObjAddr: 0xEB94, symBinAddr: 0xE24D4, symSize: 0x398 }
  - { offset: 0x331B15, size: 0x8, addend: 0x0, symName: _ggml_compute_forward_fill, symObjAddr: 0xEB94, symBinAddr: 0xE24D4, symSize: 0x398 }
  - { offset: 0x331F16, size: 0x8, addend: 0x0, symName: _ggml_compute_forward_tri, symObjAddr: 0xEF2C, symBinAddr: 0xE286C, symSize: 0x1E0 }
  - { offset: 0x3321C8, size: 0x8, addend: 0x0, symName: _ggml_compute_forward_tri, symObjAddr: 0xEF2C, symBinAddr: 0xE286C, symSize: 0x1E0 }
  - { offset: 0x3323CD, size: 0x8, addend: 0x0, symName: _ggml_compute_forward_leaky_relu, symObjAddr: 0xF10C, symBinAddr: 0xE2A4C, symSize: 0x6A0 }
  - { offset: 0x332565, size: 0x8, addend: 0x0, symName: _ggml_compute_forward_leaky_relu, symObjAddr: 0xF10C, symBinAddr: 0xE2A4C, symSize: 0x6A0 }
  - { offset: 0x332819, size: 0x8, addend: 0x0, symName: _ggml_compute_forward_silu_back, symObjAddr: 0xF7AC, symBinAddr: 0xE30EC, symSize: 0x720 }
  - { offset: 0x332AA0, size: 0x8, addend: 0x0, symName: _ggml_compute_forward_silu_back, symObjAddr: 0xF7AC, symBinAddr: 0xE30EC, symSize: 0x720 }
  - { offset: 0x332E02, size: 0x8, addend: 0x0, symName: _ggml_compute_forward_norm, symObjAddr: 0xFECC, symBinAddr: 0xE380C, symSize: 0x2A4 }
  - { offset: 0x332FF5, size: 0x8, addend: 0x0, symName: _ggml_compute_forward_norm, symObjAddr: 0xFECC, symBinAddr: 0xE380C, symSize: 0x2A4 }
  - { offset: 0x3332A4, size: 0x8, addend: 0x0, symName: _ggml_compute_forward_rms_norm, symObjAddr: 0x10170, symBinAddr: 0xE3AB0, symSize: 0x5D0 }
  - { offset: 0x33356A, size: 0x8, addend: 0x0, symName: _ggml_compute_forward_rms_norm, symObjAddr: 0x10170, symBinAddr: 0xE3AB0, symSize: 0x5D0 }
  - { offset: 0x3337D2, size: 0x8, addend: 0x0, symName: _ggml_compute_forward_rms_norm_mul_fused, symObjAddr: 0x10740, symBinAddr: 0xE4080, symSize: 0x5DC }
  - { offset: 0x333A74, size: 0x8, addend: 0x0, symName: _ggml_compute_forward_rms_norm_mul_fused, symObjAddr: 0x10740, symBinAddr: 0xE4080, symSize: 0x5DC }
  - { offset: 0x333D12, size: 0x8, addend: 0x0, symName: _ggml_compute_forward_rms_norm_back, symObjAddr: 0x10D1C, symBinAddr: 0xE465C, symSize: 0x60C }
  - { offset: 0x333FB5, size: 0x8, addend: 0x0, symName: _ggml_compute_forward_rms_norm_back, symObjAddr: 0x10D1C, symBinAddr: 0xE465C, symSize: 0x60C }
  - { offset: 0x3341FC, size: 0x8, addend: 0x0, symName: _ggml_compute_forward_group_norm, symObjAddr: 0x11328, symBinAddr: 0xE4C68, symSize: 0x8E4 }
  - { offset: 0x3344D7, size: 0x8, addend: 0x0, symName: _ggml_compute_forward_group_norm, symObjAddr: 0x11328, symBinAddr: 0xE4C68, symSize: 0x8E4 }
  - { offset: 0x3347D4, size: 0x8, addend: 0x0, symName: _ggml_compute_forward_l2_norm, symObjAddr: 0x11C0C, symBinAddr: 0xE554C, symSize: 0x5B4 }
  - { offset: 0x33498A, size: 0x8, addend: 0x0, symName: _ggml_compute_forward_l2_norm, symObjAddr: 0x11C0C, symBinAddr: 0xE554C, symSize: 0x5B4 }
  - { offset: 0x334BD4, size: 0x8, addend: 0x0, symName: _ggml_compute_forward_out_prod, symObjAddr: 0x121C0, symBinAddr: 0xE5B00, symSize: 0x23E4 }
  - { offset: 0x335426, size: 0x8, addend: 0x0, symName: _ggml_compute_forward_out_prod, symObjAddr: 0x121C0, symBinAddr: 0xE5B00, symSize: 0x23E4 }
  - { offset: 0x335DDA, size: 0x8, addend: 0x0, symName: _ggml_compute_forward_scale, symObjAddr: 0x145A4, symBinAddr: 0xE7EE4, symSize: 0x20C }
  - { offset: 0x335F1C, size: 0x8, addend: 0x0, symName: _ggml_compute_forward_scale, symObjAddr: 0x145A4, symBinAddr: 0xE7EE4, symSize: 0x20C }
  - { offset: 0x336175, size: 0x8, addend: 0x0, symName: _ggml_compute_forward_set, symObjAddr: 0x147B0, symBinAddr: 0xE80F0, symSize: 0x760 }
  - { offset: 0x336573, size: 0x8, addend: 0x0, symName: _ggml_compute_forward_set, symObjAddr: 0x147B0, symBinAddr: 0xE80F0, symSize: 0x760 }
  - { offset: 0x336A59, size: 0x8, addend: 0x0, symName: _ggml_compute_forward_cpy, symObjAddr: 0x14F10, symBinAddr: 0xE8850, symSize: 0x4 }
  - { offset: 0x336A6D, size: 0x8, addend: 0x0, symName: _ggml_compute_forward_cpy, symObjAddr: 0x14F10, symBinAddr: 0xE8850, symSize: 0x4 }
  - { offset: 0x336AA6, size: 0x8, addend: 0x0, symName: _ggml_compute_forward_cpy, symObjAddr: 0x14F10, symBinAddr: 0xE8850, symSize: 0x4 }
  - { offset: 0x336AC2, size: 0x8, addend: 0x0, symName: _ggml_compute_forward_cont, symObjAddr: 0x14F14, symBinAddr: 0xE8854, symSize: 0x4 }
  - { offset: 0x336AFB, size: 0x8, addend: 0x0, symName: _ggml_compute_forward_cont, symObjAddr: 0x14F14, symBinAddr: 0xE8854, symSize: 0x4 }
  - { offset: 0x33739D, size: 0x8, addend: 0x0, symName: _ggml_compute_forward_get_rows, symObjAddr: 0x14F18, symBinAddr: 0xE8858, symSize: 0x6F0 }
  - { offset: 0x3379A7, size: 0x8, addend: 0x0, symName: _ggml_compute_forward_set_rows, symObjAddr: 0x15608, symBinAddr: 0xE8F48, symSize: 0x408 }
  - { offset: 0x337E8B, size: 0x8, addend: 0x0, symName: _ggml_compute_forward_set_rows, symObjAddr: 0x15608, symBinAddr: 0xE8F48, symSize: 0x408 }
  - { offset: 0x338256, size: 0x8, addend: 0x0, symName: _ggml_compute_forward_get_rows_back, symObjAddr: 0x15A10, symBinAddr: 0xE9350, symSize: 0x4CC }
  - { offset: 0x338380, size: 0x8, addend: 0x0, symName: _ggml_compute_forward_get_rows_back, symObjAddr: 0x15A10, symBinAddr: 0xE9350, symSize: 0x4CC }
  - { offset: 0x3385E9, size: 0x8, addend: 0x0, symName: _ggml_compute_forward_diag, symObjAddr: 0x15EDC, symBinAddr: 0xE981C, symSize: 0x3A4 }
  - { offset: 0x33876E, size: 0x8, addend: 0x0, symName: _ggml_compute_forward_diag, symObjAddr: 0x15EDC, symBinAddr: 0xE981C, symSize: 0x3A4 }
  - { offset: 0x338996, size: 0x8, addend: 0x0, symName: _ggml_compute_forward_diag_mask_inf, symObjAddr: 0x16280, symBinAddr: 0xE9BC0, symSize: 0x38 }
  - { offset: 0x3389AA, size: 0x8, addend: 0x0, symName: _ggml_compute_forward_diag_mask_inf, symObjAddr: 0x16280, symBinAddr: 0xE9BC0, symSize: 0x38 }
  - { offset: 0x338A06, size: 0x8, addend: 0x0, symName: __ZL34ggml_compute_forward_diag_mask_f32PK19ggml_compute_paramsP11ggml_tensorf, symObjAddr: 0x162B8, symBinAddr: 0xE9BF8, symSize: 0x238 }
  - { offset: 0x338A1A, size: 0x8, addend: 0x0, symName: __ZL34ggml_compute_forward_diag_mask_f32PK19ggml_compute_paramsP11ggml_tensorf, symObjAddr: 0x162B8, symBinAddr: 0xE9BF8, symSize: 0x238 }
  - { offset: 0x338C35, size: 0x8, addend: 0x0, symName: _ggml_compute_forward_diag_mask_zero, symObjAddr: 0x164F0, symBinAddr: 0xE9E30, symSize: 0x34 }
  - { offset: 0x338C49, size: 0x8, addend: 0x0, symName: _ggml_compute_forward_diag_mask_zero, symObjAddr: 0x164F0, symBinAddr: 0xE9E30, symSize: 0x34 }
  - { offset: 0x338CA5, size: 0x8, addend: 0x0, symName: _ggml_compute_forward_soft_max, symObjAddr: 0x16524, symBinAddr: 0xE9E64, symSize: 0x684 }
  - { offset: 0x338FC1, size: 0x8, addend: 0x0, symName: _ggml_compute_forward_soft_max, symObjAddr: 0x16524, symBinAddr: 0xE9E64, symSize: 0x684 }
  - { offset: 0x3393A3, size: 0x8, addend: 0x0, symName: _ggml_compute_forward_soft_max_ext_back, symObjAddr: 0x16BA8, symBinAddr: 0xEA4E8, symSize: 0x4E0 }
  - { offset: 0x33953B, size: 0x8, addend: 0x0, symName: _ggml_compute_forward_soft_max_ext_back, symObjAddr: 0x16BA8, symBinAddr: 0xEA4E8, symSize: 0x4E0 }
  - { offset: 0x3398E3, size: 0x8, addend: 0x0, symName: _ggml_compute_forward_clamp, symObjAddr: 0x17088, symBinAddr: 0xEA9C8, symSize: 0x660 }
  - { offset: 0x339B1D, size: 0x8, addend: 0x0, symName: _ggml_compute_forward_clamp, symObjAddr: 0x17088, symBinAddr: 0xEA9C8, symSize: 0x660 }
  - { offset: 0x339E37, size: 0x8, addend: 0x0, symName: _ggml_compute_forward_rope, symObjAddr: 0x176E8, symBinAddr: 0xEB028, symSize: 0x44 }
  - { offset: 0x339E4B, size: 0x8, addend: 0x0, symName: _ggml_compute_forward_rope, symObjAddr: 0x176E8, symBinAddr: 0xEB028, symSize: 0x44 }
  - { offset: 0x339EC3, size: 0x8, addend: 0x0, symName: __ZL29ggml_compute_forward_rope_fltItEvPK19ggml_compute_paramsP11ggml_tensorb, symObjAddr: 0x1772C, symBinAddr: 0xEB06C, symSize: 0x1620 }
  - { offset: 0x339ED7, size: 0x8, addend: 0x0, symName: __ZL29ggml_compute_forward_rope_fltItEvPK19ggml_compute_paramsP11ggml_tensorb, symObjAddr: 0x1772C, symBinAddr: 0xEB06C, symSize: 0x1620 }
  - { offset: 0x33B0BB, size: 0x8, addend: 0x0, symName: __ZL29ggml_compute_forward_rope_fltIfEvPK19ggml_compute_paramsP11ggml_tensorb, symObjAddr: 0x18D4C, symBinAddr: 0xEC68C, symSize: 0x14F8 }
  - { offset: 0x33B0D8, size: 0x8, addend: 0x0, symName: __ZL29ggml_compute_forward_rope_fltIfEvPK19ggml_compute_paramsP11ggml_tensorb, symObjAddr: 0x18D4C, symBinAddr: 0xEC68C, symSize: 0x14F8 }
  - { offset: 0x33BB4F, size: 0x8, addend: 0x0, symName: _ggml_compute_forward_rope_back, symObjAddr: 0x1A244, symBinAddr: 0xEDB84, symSize: 0x44 }
  - { offset: 0x33C02E, size: 0x8, addend: 0x0, symName: _ggml_compute_forward_rope_back, symObjAddr: 0x1A244, symBinAddr: 0xEDB84, symSize: 0x44 }
  - { offset: 0x33C0A6, size: 0x8, addend: 0x0, symName: _ggml_compute_forward_conv_transpose_1d, symObjAddr: 0x1A288, symBinAddr: 0xEDBC8, symSize: 0xCF8 }
  - { offset: 0x33C6ED, size: 0x8, addend: 0x0, symName: _ggml_compute_forward_conv_transpose_1d, symObjAddr: 0x1A288, symBinAddr: 0xEDBC8, symSize: 0xCF8 }
  - { offset: 0x33CE1B, size: 0x8, addend: 0x0, symName: _ggml_compute_forward_im2col, symObjAddr: 0x1AF80, symBinAddr: 0xEE8C0, symSize: 0xA58 }
  - { offset: 0x33D4A6, size: 0x8, addend: 0x0, symName: _ggml_compute_forward_im2col, symObjAddr: 0x1AF80, symBinAddr: 0xEE8C0, symSize: 0xA58 }
  - { offset: 0x33DA2B, size: 0x8, addend: 0x0, symName: _ggml_compute_forward_im2col_back_f32, symObjAddr: 0x1B9D8, symBinAddr: 0xEF318, symSize: 0x560 }
  - { offset: 0x33DA3F, size: 0x8, addend: 0x0, symName: _ggml_compute_forward_im2col_back_f32, symObjAddr: 0x1B9D8, symBinAddr: 0xEF318, symSize: 0x560 }
  - { offset: 0x33DEAC, size: 0x8, addend: 0x0, symName: _ggml_compute_forward_im2col_3d, symObjAddr: 0x1BF38, symBinAddr: 0xEF878, symSize: 0xADC }
  - { offset: 0x33E63E, size: 0x8, addend: 0x0, symName: _ggml_compute_forward_im2col_3d, symObjAddr: 0x1BF38, symBinAddr: 0xEF878, symSize: 0xADC }
  - { offset: 0x33EC3F, size: 0x8, addend: 0x0, symName: _ggml_compute_forward_col2im_1d, symObjAddr: 0x1CA14, symBinAddr: 0xF0354, symSize: 0x524 }
  - { offset: 0x33F091, size: 0x8, addend: 0x0, symName: _ggml_compute_forward_col2im_1d, symObjAddr: 0x1CA14, symBinAddr: 0xF0354, symSize: 0x524 }
  - { offset: 0x33F69E, size: 0x8, addend: 0x0, symName: _ggml_compute_forward_conv_2d, symObjAddr: 0x1CF38, symBinAddr: 0xF0878, symSize: 0xA0C }
  - { offset: 0x33FAC6, size: 0x8, addend: 0x0, symName: _ggml_compute_forward_conv_2d, symObjAddr: 0x1CF38, symBinAddr: 0xF0878, symSize: 0xA0C }
  - { offset: 0x3404B7, size: 0x8, addend: 0x0, symName: _ggml_compute_forward_conv_3d, symObjAddr: 0x1D944, symBinAddr: 0xF1284, symSize: 0xDD8 }
  - { offset: 0x341109, size: 0x8, addend: 0x0, symName: _ggml_compute_forward_conv_transpose_2d, symObjAddr: 0x1E71C, symBinAddr: 0xF205C, symSize: 0x15D4 }
  - { offset: 0x3418E3, size: 0x8, addend: 0x0, symName: _ggml_compute_forward_conv_2d_dw, symObjAddr: 0x1FCF0, symBinAddr: 0xF3630, symSize: 0x7C0 }
  - { offset: 0x341D1D, size: 0x8, addend: 0x0, symName: _ggml_compute_forward_conv_2d_dw, symObjAddr: 0x1FCF0, symBinAddr: 0xF3630, symSize: 0x7C0 }
  - { offset: 0x34208D, size: 0x8, addend: 0x0, symName: _ggml_compute_forward_pool_1d, symObjAddr: 0x204B0, symBinAddr: 0xF3DF0, symSize: 0x2B8 }
  - { offset: 0x3421D8, size: 0x8, addend: 0x0, symName: _ggml_compute_forward_pool_1d, symObjAddr: 0x204B0, symBinAddr: 0xF3DF0, symSize: 0x2B8 }
  - { offset: 0x342393, size: 0x8, addend: 0x0, symName: _ggml_compute_forward_pool_2d, symObjAddr: 0x20768, symBinAddr: 0xF40A8, symSize: 0x5B4 }
  - { offset: 0x3423A7, size: 0x8, addend: 0x0, symName: _ggml_compute_forward_pool_2d, symObjAddr: 0x20768, symBinAddr: 0xF40A8, symSize: 0x5B4 }
  - { offset: 0x342668, size: 0x8, addend: 0x0, symName: _ggml_compute_forward_pool_2d_back, symObjAddr: 0x20D1C, symBinAddr: 0xF465C, symSize: 0x4F0 }
  - { offset: 0x34267C, size: 0x8, addend: 0x0, symName: _ggml_compute_forward_pool_2d_back, symObjAddr: 0x20D1C, symBinAddr: 0xF465C, symSize: 0x4F0 }
  - { offset: 0x342B78, size: 0x8, addend: 0x0, symName: _ggml_compute_forward_upscale, symObjAddr: 0x2120C, symBinAddr: 0xF4B4C, symSize: 0xA48 }
  - { offset: 0x3434FC, size: 0x8, addend: 0x0, symName: _ggml_compute_forward_upscale, symObjAddr: 0x2120C, symBinAddr: 0xF4B4C, symSize: 0xA48 }
  - { offset: 0x34421D, size: 0x8, addend: 0x0, symName: _ggml_compute_forward_pad, symObjAddr: 0x21C54, symBinAddr: 0xF5594, symSize: 0x800 }
  - { offset: 0x3446A1, size: 0x8, addend: 0x0, symName: _ggml_compute_forward_pad, symObjAddr: 0x21C54, symBinAddr: 0xF5594, symSize: 0x800 }
  - { offset: 0x344933, size: 0x8, addend: 0x0, symName: _ggml_compute_forward_pad_reflect_1d, symObjAddr: 0x22454, symBinAddr: 0xF5D94, symSize: 0xF9C }
  - { offset: 0x344947, size: 0x8, addend: 0x0, symName: _ggml_compute_forward_pad_reflect_1d, symObjAddr: 0x22454, symBinAddr: 0xF5D94, symSize: 0xF9C }
  - { offset: 0x344BA6, size: 0x8, addend: 0x0, symName: _ggml_compute_forward_roll, symObjAddr: 0x233F0, symBinAddr: 0xF6D30, symSize: 0x350 }
  - { offset: 0x344E00, size: 0x8, addend: 0x0, symName: _ggml_compute_forward_roll, symObjAddr: 0x233F0, symBinAddr: 0xF6D30, symSize: 0x350 }
  - { offset: 0x345100, size: 0x8, addend: 0x0, symName: _ggml_compute_forward_arange, symObjAddr: 0x23740, symBinAddr: 0xF7080, symSize: 0x228 }
  - { offset: 0x3451A9, size: 0x8, addend: 0x0, symName: _ggml_compute_forward_arange, symObjAddr: 0x23740, symBinAddr: 0xF7080, symSize: 0x228 }
  - { offset: 0x3452EB, size: 0x8, addend: 0x0, symName: _ggml_compute_forward_timestep_embedding, symObjAddr: 0x23968, symBinAddr: 0xF72A8, symSize: 0x574 }
  - { offset: 0x34549E, size: 0x8, addend: 0x0, symName: _ggml_compute_forward_timestep_embedding, symObjAddr: 0x23968, symBinAddr: 0xF72A8, symSize: 0x574 }
  - { offset: 0x3455E0, size: 0x8, addend: 0x0, symName: _ggml_compute_forward_argsort, symObjAddr: 0x23EDC, symBinAddr: 0xF781C, symSize: 0x428 }
  - { offset: 0x345775, size: 0x8, addend: 0x0, symName: _ggml_compute_forward_argsort, symObjAddr: 0x23EDC, symBinAddr: 0xF781C, symSize: 0x428 }
  - { offset: 0x345A4F, size: 0x8, addend: 0x0, symName: _ggml_compute_forward_top_k, symObjAddr: 0x24304, symBinAddr: 0xF7C44, symSize: 0x570 }
  - { offset: 0x345C4B, size: 0x8, addend: 0x0, symName: _ggml_compute_forward_top_k, symObjAddr: 0x24304, symBinAddr: 0xF7C44, symSize: 0x570 }
  - { offset: 0x345F7B, size: 0x8, addend: 0x0, symName: _ggml_compute_forward_flash_attn_ext, symObjAddr: 0x24874, symBinAddr: 0xF81B4, symSize: 0x23B0 }
  - { offset: 0x346EF4, size: 0x8, addend: 0x0, symName: _ggml_compute_forward_flash_attn_ext, symObjAddr: 0x24874, symBinAddr: 0xF81B4, symSize: 0x23B0 }
  - { offset: 0x34823E, size: 0x8, addend: 0x0, symName: _ggml_compute_forward_flash_attn_back, symObjAddr: 0x26C24, symBinAddr: 0xFA564, symSize: 0x1120 }
  - { offset: 0x348252, size: 0x8, addend: 0x0, symName: __ZL49ggml_compute_forward_flash_attn_ext_f16_one_chunkPK19ggml_compute_paramsP11ggml_tensoriixxPfx, symObjAddr: 0x3416C, symBinAddr: 0x107AAC, symSize: 0x1198 }
  - { offset: 0x3497C1, size: 0x8, addend: 0x0, symName: _ggml_compute_forward_flash_attn_back, symObjAddr: 0x26C24, symBinAddr: 0xFA564, symSize: 0x1120 }
  - { offset: 0x34A3F2, size: 0x8, addend: 0x0, symName: _ggml_compute_forward_ssm_conv, symObjAddr: 0x27D44, symBinAddr: 0xFB684, symSize: 0x428 }
  - { offset: 0x34A550, size: 0x8, addend: 0x0, symName: _ggml_compute_forward_ssm_conv, symObjAddr: 0x27D44, symBinAddr: 0xFB684, symSize: 0x428 }
  - { offset: 0x34A6F4, size: 0x8, addend: 0x0, symName: _ggml_compute_forward_ssm_scan, symObjAddr: 0x2816C, symBinAddr: 0xFBAAC, symSize: 0x128C }
  - { offset: 0x34AB28, size: 0x8, addend: 0x0, symName: _ggml_compute_forward_ssm_scan, symObjAddr: 0x2816C, symBinAddr: 0xFBAAC, symSize: 0x128C }
  - { offset: 0x34AFC7, size: 0x8, addend: 0x0, symName: _ggml_compute_forward_win_part, symObjAddr: 0x293F8, symBinAddr: 0xFCD38, symSize: 0x580 }
  - { offset: 0x34B142, size: 0x8, addend: 0x0, symName: _ggml_compute_forward_win_part, symObjAddr: 0x293F8, symBinAddr: 0xFCD38, symSize: 0x580 }
  - { offset: 0x34B280, size: 0x8, addend: 0x0, symName: _ggml_compute_forward_win_unpart, symObjAddr: 0x29978, symBinAddr: 0xFD2B8, symSize: 0x228 }
  - { offset: 0x34B3E5, size: 0x8, addend: 0x0, symName: _ggml_compute_forward_win_unpart, symObjAddr: 0x29978, symBinAddr: 0xFD2B8, symSize: 0x228 }
  - { offset: 0x34B4F4, size: 0x8, addend: 0x0, symName: _ggml_compute_forward_unary, symObjAddr: 0x29BA0, symBinAddr: 0xFD4E0, symSize: 0x1238 }
  - { offset: 0x34C522, size: 0x8, addend: 0x0, symName: _ggml_compute_forward_unary, symObjAddr: 0x29BA0, symBinAddr: 0xFD4E0, symSize: 0x1238 }
  - { offset: 0x34D652, size: 0x8, addend: 0x0, symName: _ggml_compute_forward_glu, symObjAddr: 0x2ADD8, symBinAddr: 0xFE718, symSize: 0x2378 }
  - { offset: 0x34E883, size: 0x8, addend: 0x0, symName: _ggml_compute_forward_glu, symObjAddr: 0x2ADD8, symBinAddr: 0xFE718, symSize: 0x2378 }
  - { offset: 0x350A67, size: 0x8, addend: 0x0, symName: _ggml_compute_forward_get_rel_pos, symObjAddr: 0x2D150, symBinAddr: 0x100A90, symSize: 0x2B4 }
  - { offset: 0x350C29, size: 0x8, addend: 0x0, symName: _ggml_compute_forward_get_rel_pos, symObjAddr: 0x2D150, symBinAddr: 0x100A90, symSize: 0x2B4 }
  - { offset: 0x350D34, size: 0x8, addend: 0x0, symName: _ggml_compute_forward_add_rel_pos, symObjAddr: 0x2D404, symBinAddr: 0x100D44, symSize: 0x1B8 }
  - { offset: 0x350EF0, size: 0x8, addend: 0x0, symName: _ggml_compute_forward_add_rel_pos, symObjAddr: 0x2D404, symBinAddr: 0x100D44, symSize: 0x1B8 }
  - { offset: 0x3510D4, size: 0x8, addend: 0x0, symName: _ggml_compute_forward_rwkv_wkv6, symObjAddr: 0x2D5BC, symBinAddr: 0x100EFC, symSize: 0xBAC }
  - { offset: 0x35147C, size: 0x8, addend: 0x0, symName: _ggml_compute_forward_rwkv_wkv6, symObjAddr: 0x2D5BC, symBinAddr: 0x100EFC, symSize: 0xBAC }
  - { offset: 0x35170D, size: 0x8, addend: 0x0, symName: _ggml_compute_forward_gla, symObjAddr: 0x2E168, symBinAddr: 0x101AA8, symSize: 0xC58 }
  - { offset: 0x351A81, size: 0x8, addend: 0x0, symName: _ggml_compute_forward_gla, symObjAddr: 0x2E168, symBinAddr: 0x101AA8, symSize: 0xC58 }
  - { offset: 0x351D23, size: 0x8, addend: 0x0, symName: _ggml_compute_forward_solve_tri, symObjAddr: 0x2EDC0, symBinAddr: 0x102700, symSize: 0x4CC }
  - { offset: 0x351FDD, size: 0x8, addend: 0x0, symName: _ggml_compute_forward_solve_tri, symObjAddr: 0x2EDC0, symBinAddr: 0x102700, symSize: 0x4CC }
  - { offset: 0x352292, size: 0x8, addend: 0x0, symName: _ggml_compute_forward_gated_delta_net, symObjAddr: 0x2F28C, symBinAddr: 0x102BCC, symSize: 0xC80 }
  - { offset: 0x352830, size: 0x8, addend: 0x0, symName: _ggml_compute_forward_gated_delta_net, symObjAddr: 0x2F28C, symBinAddr: 0x102BCC, symSize: 0xC80 }
  - { offset: 0x352FFB, size: 0x8, addend: 0x0, symName: _ggml_compute_forward_rwkv_wkv7, symObjAddr: 0x2FF0C, symBinAddr: 0x10384C, symSize: 0x410 }
  - { offset: 0x35345F, size: 0x8, addend: 0x0, symName: _ggml_compute_forward_rwkv_wkv7, symObjAddr: 0x2FF0C, symBinAddr: 0x10384C, symSize: 0x410 }
  - { offset: 0x353790, size: 0x8, addend: 0x0, symName: _ggml_compute_forward_map_custom1, symObjAddr: 0x3031C, symBinAddr: 0x103C5C, symSize: 0x1C }
  - { offset: 0x3537A4, size: 0x8, addend: 0x0, symName: _ggml_compute_forward_map_custom1, symObjAddr: 0x3031C, symBinAddr: 0x103C5C, symSize: 0x1C }
  - { offset: 0x353815, size: 0x8, addend: 0x0, symName: _ggml_compute_forward_map_custom2, symObjAddr: 0x30338, symBinAddr: 0x103C78, symSize: 0x20 }
  - { offset: 0x353897, size: 0x8, addend: 0x0, symName: _ggml_compute_forward_map_custom3, symObjAddr: 0x30358, symBinAddr: 0x103C98, symSize: 0x20 }
  - { offset: 0x35392A, size: 0x8, addend: 0x0, symName: _ggml_compute_forward_custom, symObjAddr: 0x30378, symBinAddr: 0x103CB8, symSize: 0x18 }
  - { offset: 0x353AFF, size: 0x8, addend: 0x0, symName: _ggml_compute_forward_cross_entropy_loss, symObjAddr: 0x30390, symBinAddr: 0x103CD0, symSize: 0x4F0 }
  - { offset: 0x353F48, size: 0x8, addend: 0x0, symName: _ggml_compute_forward_cross_entropy_loss_back, symObjAddr: 0x30880, symBinAddr: 0x1041C0, symSize: 0x448 }
  - { offset: 0x3540D0, size: 0x8, addend: 0x0, symName: _ggml_compute_forward_cross_entropy_loss_back, symObjAddr: 0x30880, symBinAddr: 0x1041C0, symSize: 0x448 }
  - { offset: 0x354565, size: 0x8, addend: 0x0, symName: _ggml_compute_forward_opt_step_adamw, symObjAddr: 0x30CC8, symBinAddr: 0x104608, symSize: 0x3E8 }
  - { offset: 0x35481C, size: 0x8, addend: 0x0, symName: _ggml_compute_forward_opt_step_adamw, symObjAddr: 0x30CC8, symBinAddr: 0x104608, symSize: 0x3E8 }
  - { offset: 0x354AFD, size: 0x8, addend: 0x0, symName: _ggml_compute_forward_opt_step_sgd, symObjAddr: 0x310B0, symBinAddr: 0x1049F0, symSize: 0x3D4 }
  - { offset: 0x354D28, size: 0x8, addend: 0x0, symName: _ggml_compute_forward_opt_step_sgd, symObjAddr: 0x310B0, symBinAddr: 0x1049F0, symSize: 0x3D4 }
  - { offset: 0x354F36, size: 0x8, addend: 0x0, symName: _ggml_compute_forward_fwht, symObjAddr: 0x31484, symBinAddr: 0x104DC4, symSize: 0x590 }
  - { offset: 0x355288, size: 0x8, addend: 0x0, symName: _ggml_compute_forward_fwht, symObjAddr: 0x31484, symBinAddr: 0x104DC4, symSize: 0x590 }
  - { offset: 0x3554D3, size: 0x8, addend: 0x0, symName: '__ZZL28ggml_compute_forward_tri_f32PK19ggml_compute_paramsP11ggml_tensorEN3$_08__invokeEii', symObjAddr: 0x31A14, symBinAddr: 0x105354, symSize: 0xC }
  - { offset: 0x35552A, size: 0x8, addend: 0x0, symName: '__ZZL28ggml_compute_forward_tri_f32PK19ggml_compute_paramsP11ggml_tensorEN3$_08__invokeEii', symObjAddr: 0x31A14, symBinAddr: 0x105354, symSize: 0xC }
  - { offset: 0x355563, size: 0x8, addend: 0x0, symName: '__ZZL28ggml_compute_forward_tri_f32PK19ggml_compute_paramsP11ggml_tensorEN3$_08__invokeEii', symObjAddr: 0x31A14, symBinAddr: 0x105354, symSize: 0xC }
  - { offset: 0x3555CA, size: 0x8, addend: 0x0, symName: '__ZZL28ggml_compute_forward_tri_f32PK19ggml_compute_paramsP11ggml_tensorEN3$_18__invokeEii', symObjAddr: 0x31A20, symBinAddr: 0x105360, symSize: 0xC }
  - { offset: 0x355603, size: 0x8, addend: 0x0, symName: '__ZZL28ggml_compute_forward_tri_f32PK19ggml_compute_paramsP11ggml_tensorEN3$_18__invokeEii', symObjAddr: 0x31A20, symBinAddr: 0x105360, symSize: 0xC }
  - { offset: 0x35566A, size: 0x8, addend: 0x0, symName: '__ZZL28ggml_compute_forward_tri_f32PK19ggml_compute_paramsP11ggml_tensorEN3$_28__invokeEii', symObjAddr: 0x31A2C, symBinAddr: 0x10536C, symSize: 0xC }
  - { offset: 0x3556A3, size: 0x8, addend: 0x0, symName: '__ZZL28ggml_compute_forward_tri_f32PK19ggml_compute_paramsP11ggml_tensorEN3$_28__invokeEii', symObjAddr: 0x31A2C, symBinAddr: 0x10536C, symSize: 0xC }
  - { offset: 0x35570A, size: 0x8, addend: 0x0, symName: '__ZZL28ggml_compute_forward_tri_f32PK19ggml_compute_paramsP11ggml_tensorEN3$_38__invokeEii', symObjAddr: 0x31A38, symBinAddr: 0x105378, symSize: 0xC }
  - { offset: 0x355743, size: 0x8, addend: 0x0, symName: '__ZZL28ggml_compute_forward_tri_f32PK19ggml_compute_paramsP11ggml_tensorEN3$_38__invokeEii', symObjAddr: 0x31A38, symBinAddr: 0x105378, symSize: 0xC }
  - { offset: 0x357AA1, size: 0x8, addend: 0x0, symName: _quantize_row_q1_0, symObjAddr: 0x0, symBinAddr: 0x108C44, symSize: 0x4 }
  - { offset: 0x357AAF, size: 0x8, addend: 0x0, symName: _ggml_vec_dot_q4_K_q8_K, symObjAddr: 0x2EFC, symBinAddr: 0x10BB40, symSize: 0x768 }
  - { offset: 0x357E87, size: 0x8, addend: 0x0, symName: _ggml_vec_dot_q5_K_q8_K, symObjAddr: 0x3664, symBinAddr: 0x10C2A8, symSize: 0x814 }
  - { offset: 0x358297, size: 0x8, addend: 0x0, symName: _kvalues_mxfp4, symObjAddr: 0x68A0, symBinAddr: 0x177EF8, symSize: 0x0 }
  - { offset: 0x3582DC, size: 0x8, addend: 0x0, symName: _iq2xxs_grid, symObjAddr: 0x68B0, symBinAddr: 0x177F08, symSize: 0x0 }
  - { offset: 0x35831B, size: 0x8, addend: 0x0, symName: _ksigns_iq2xs, symObjAddr: 0x70B0, symBinAddr: 0x178708, symSize: 0x0 }
  - { offset: 0x358359, size: 0x8, addend: 0x0, symName: _iq2xs_grid, symObjAddr: 0x7130, symBinAddr: 0x178788, symSize: 0x0 }
  - { offset: 0x35837F, size: 0x8, addend: 0x0, symName: _iq2s_grid, symObjAddr: 0x8130, symBinAddr: 0x179788, symSize: 0x0 }
  - { offset: 0x3583A5, size: 0x8, addend: 0x0, symName: _iq3xxs_grid, symObjAddr: 0xA130, symBinAddr: 0x17B788, symSize: 0x0 }
  - { offset: 0x3583CB, size: 0x8, addend: 0x0, symName: _iq3s_grid, symObjAddr: 0xA530, symBinAddr: 0x17BB88, symSize: 0x0 }
  - { offset: 0x3583F1, size: 0x8, addend: 0x0, symName: _iq1s_grid, symObjAddr: 0xAD30, symBinAddr: 0x17C388, symSize: 0x0 }
  - { offset: 0x358417, size: 0x8, addend: 0x0, symName: _kvalues_iq4nl, symObjAddr: 0xED30, symBinAddr: 0x180388, symSize: 0x0 }
  - { offset: 0x358453, size: 0x8, addend: 0x0, symName: _quantize_row_q1_0, symObjAddr: 0x0, symBinAddr: 0x108C44, symSize: 0x4 }
  - { offset: 0x358497, size: 0x8, addend: 0x0, symName: _quantize_row_q1_0, symObjAddr: 0x0, symBinAddr: 0x108C44, symSize: 0x4 }
  - { offset: 0x35854D, size: 0x8, addend: 0x0, symName: _quantize_row_q4_0, symObjAddr: 0x4, symBinAddr: 0x108C48, symSize: 0x4 }
  - { offset: 0x358591, size: 0x8, addend: 0x0, symName: _quantize_row_q4_0, symObjAddr: 0x4, symBinAddr: 0x108C48, symSize: 0x4 }
  - { offset: 0x358608, size: 0x8, addend: 0x0, symName: _quantize_row_q4_1, symObjAddr: 0x8, symBinAddr: 0x108C4C, symSize: 0x4 }
  - { offset: 0x35864C, size: 0x8, addend: 0x0, symName: _quantize_row_q4_1, symObjAddr: 0x8, symBinAddr: 0x108C4C, symSize: 0x4 }
  - { offset: 0x358707, size: 0x8, addend: 0x0, symName: _quantize_row_q5_0, symObjAddr: 0xC, symBinAddr: 0x108C50, symSize: 0x4 }
  - { offset: 0x35874B, size: 0x8, addend: 0x0, symName: _quantize_row_q5_0, symObjAddr: 0xC, symBinAddr: 0x108C50, symSize: 0x4 }
  - { offset: 0x3587DD, size: 0x8, addend: 0x0, symName: _quantize_row_q5_1, symObjAddr: 0x10, symBinAddr: 0x108C54, symSize: 0x4 }
  - { offset: 0x358821, size: 0x8, addend: 0x0, symName: _quantize_row_q5_1, symObjAddr: 0x10, symBinAddr: 0x108C54, symSize: 0x4 }
  - { offset: 0x3588DD, size: 0x8, addend: 0x0, symName: _quantize_row_q8_0, symObjAddr: 0x14, symBinAddr: 0x108C58, symSize: 0x4 }
  - { offset: 0x358921, size: 0x8, addend: 0x0, symName: _quantize_row_q8_0, symObjAddr: 0x14, symBinAddr: 0x108C58, symSize: 0x4 }
  - { offset: 0x3589A6, size: 0x8, addend: 0x0, symName: _quantize_row_q8_1, symObjAddr: 0x18, symBinAddr: 0x108C5C, symSize: 0x4 }
  - { offset: 0x3589EA, size: 0x8, addend: 0x0, symName: _quantize_row_q8_1, symObjAddr: 0x18, symBinAddr: 0x108C5C, symSize: 0x4 }
  - { offset: 0x358A9B, size: 0x8, addend: 0x0, symName: _quantize_row_mxfp4, symObjAddr: 0x1C, symBinAddr: 0x108C60, symSize: 0x4 }
  - { offset: 0x358ADF, size: 0x8, addend: 0x0, symName: _quantize_row_mxfp4, symObjAddr: 0x1C, symBinAddr: 0x108C60, symSize: 0x4 }
  - { offset: 0x358B56, size: 0x8, addend: 0x0, symName: _quantize_row_nvfp4, symObjAddr: 0x20, symBinAddr: 0x108C64, symSize: 0x4 }
  - { offset: 0x358B9A, size: 0x8, addend: 0x0, symName: _quantize_row_nvfp4, symObjAddr: 0x20, symBinAddr: 0x108C64, symSize: 0x4 }
  - { offset: 0x358C1F, size: 0x8, addend: 0x0, symName: _quantize_row_q2_K, symObjAddr: 0x24, symBinAddr: 0x108C68, symSize: 0x4 }
  - { offset: 0x358C63, size: 0x8, addend: 0x0, symName: _quantize_row_q2_K, symObjAddr: 0x24, symBinAddr: 0x108C68, symSize: 0x4 }
  - { offset: 0x358D38, size: 0x8, addend: 0x0, symName: _quantize_row_q3_K, symObjAddr: 0x28, symBinAddr: 0x108C6C, symSize: 0x4 }
  - { offset: 0x358D7C, size: 0x8, addend: 0x0, symName: _quantize_row_q3_K, symObjAddr: 0x28, symBinAddr: 0x108C6C, symSize: 0x4 }
  - { offset: 0x358E21, size: 0x8, addend: 0x0, symName: _quantize_row_q4_K, symObjAddr: 0x2C, symBinAddr: 0x108C70, symSize: 0x4 }
  - { offset: 0x358E73, size: 0x8, addend: 0x0, symName: _quantize_row_q4_K, symObjAddr: 0x2C, symBinAddr: 0x108C70, symSize: 0x4 }
  - { offset: 0x358F48, size: 0x8, addend: 0x0, symName: _quantize_row_q5_K, symObjAddr: 0x30, symBinAddr: 0x108C74, symSize: 0x4 }
  - { offset: 0x358F9A, size: 0x8, addend: 0x0, symName: _quantize_row_q5_K, symObjAddr: 0x30, symBinAddr: 0x108C74, symSize: 0x4 }
  - { offset: 0x35906F, size: 0x8, addend: 0x0, symName: _quantize_row_q6_K, symObjAddr: 0x34, symBinAddr: 0x108C78, symSize: 0x4 }
  - { offset: 0x3590C1, size: 0x8, addend: 0x0, symName: _quantize_row_q6_K, symObjAddr: 0x34, symBinAddr: 0x108C78, symSize: 0x4 }
  - { offset: 0x359166, size: 0x8, addend: 0x0, symName: _quantize_row_tq1_0, symObjAddr: 0x38, symBinAddr: 0x108C7C, symSize: 0x4 }
